 runSCI

 Timestamp is 5e5fcf72 (Wed Mar 04 10:55:30 2020)

 Preferred load address is 0000000140000000

 Start         Length     Name                   Class
 0001:00000000 00127cb0H .text                   CODE
 0001:00127cb0 0002014bH .text$mn                CODE
 0001:00147e00 000004d0H .text$x                 CODE
 0002:00000000 00000560H .idata$5                DATA
 0002:00000560 00000008H .CRT$XCA                DATA
 0002:00000568 00000008H .CRT$XCF                DATA
 0002:00000570 00000020H .CRT$XCU                DATA
 0002:00000590 00000008H .CRT$XCZ                DATA
 0002:00000598 00000008H .CRT$XIA                DATA
 0002:000005a0 00000028H .CRT$XIC                DATA
 0002:000005c8 00000008H .CRT$XIY                DATA
 0002:000005d0 00000008H .CRT$XIZ                DATA
 0002:000005d8 00000008H .CRT$XPA                DATA
 0002:000005e0 00000010H .CRT$XPX                DATA
 0002:000005f0 00000008H .CRT$XPXA               DATA
 0002:000005f8 00000008H .CRT$XPZ                DATA
 0002:00000600 00000008H .CRT$XTA                DATA
 0002:00000608 00000008H .CRT$XTZ                DATA
 0002:00000620 0002ace0H .rdata                  DATA
 0002:0002b300 000000a0H .rdata$debug            DATA
 0002:0002b3a0 00000008H .rtc$IAA                DATA
 0002:0002b3a8 00000008H .rtc$IZZ                DATA
 0002:0002b3b0 00000008H .rtc$TAA                DATA
 0002:0002b3b8 00000008H .rtc$TZZ                DATA
 0002:0002b3c0 00009e8cH .xdata                  DATA
 0002:0003524c 00000000H .edata                  DATA
 0002:0003524c 00000078H .idata$2                DATA
 0002:000352c4 00000014H .idata$3                DATA
 0002:000352d8 00000560H .idata$4                DATA
 0002:00035838 00000c0eH .idata$6                DATA
 0003:00000000 0000da10H .data                   DATA
 0003:0000da20 0006ad68H .bss                    DATA
 0004:00000000 00007254H .pdata                  DATA
 0005:00000000 00000008H .data1                  DATA
 0006:00000000 000048e8H .trace                  DATA
 0007:00000000 00001200H _RDATA                  DATA

  Address         Publics by Value              Rva+Base               Lib:Object

 0000:00000000       __guard_flags              0000000000000000     <absolute>
 0000:00000000       ___safe_se_handler_table   0000000000000000     <absolute>
 0000:00000000       ___safe_se_handler_count   0000000000000000     <absolute>
 0000:00000000       __guard_fids_count         0000000000000000     <absolute>
 0000:00000000       __guard_fids_table         0000000000000000     <absolute>
 0000:00000000       __ImageBase                0000000140000000     <linker-defined>
 0001:00000000       DATUMS.                    0000000140001000 f   datums_mod.obj
 0001:00000010       DATUMS_mp_UTM2LL           0000000140001010 f   datums_mod.obj
 0001:000002b0       DATUMS_mp_LL2UTM           00000001400012b0 f   datums_mod.obj
 0001:000005a0       DATUMS_mp_UTMDOMAIN        00000001400015a0 f   datums_mod.obj
 0001:00000620       DATUMS_mp_INITUTM          0000000140001620 f   datums_mod.obj
 0001:000006a0       MPI_FI.                    00000001400016a0 f   MPIFunc_fi.obj
 0001:000006b0       CHEM_MPI_FI.               00000001400016b0 f   MPIFunc_fi.obj
 0001:000006c0       STEPMC_MPI_FI.             00000001400016c0 f   MPIFunc_fi.obj
 0001:000006d0       AERMODREL_FD.              00000001400016d0 f   AERMODrel_fd.obj
 0001:000006e0       AERMODRECEPTOR_FD.         00000001400016e0 f   AERMODreceptor_fd.obj
 0001:000006f0       AERMODMET_FD.              00000001400016f0 f   AERMODmet_fd.obj
 0001:00000700       LOADSEN_FI.                0000000140001700 f   LoadSen.obj
 0001:00000710       LOADSEN                    0000000140001710 f   LoadSen.obj
 0001:000037b0       SCIPUFFDRIVER_FI.          00000001400047b0 f   SCIPUFFdriver_fi.obj
 0001:000037c0       UPDATERELLIST_FD.          00000001400047c0 f   UpdateRelList_fd.obj
 0001:000037d0       UPDATERELLIST_FI.          00000001400047d0 f   UpdateRelList_fi.obj
 0001:000037e0       MAIN__                     00000001400047e0 f   runSCI.obj
 0001:0000a990       TIMETOSTRING               000000014000b990 f   runSCI.obj
 0001:0000aeb0       RUNSCIRDCMDLINE            000000014000beb0 f   runSCI.obj
 0001:0000bf60       PROG_INC.                  000000014000cf60 f   runSCI.obj
 0001:0000bf70       TOOLCALLBACK               000000014000cf70 f   runSCI.obj
 0001:0000f150       COPYCSTRING                0000000140010150 f   runSCI.obj
 0001:0000f250       UPDATESTACKEMISSION        0000000140010250 f   UpdateStackEmission.obj
 0001:00010ec0       PARSEDATASO                0000000140011ec0 f   ParseDataSO.obj
 0001:000168e0       WRITEPRIMEFILE             00000001400178e0 f   ParseDataSO.obj
 0001:00016f40       SETSRCPARAMMC              0000000140017f40 f   ParseDataSO.obj
 0001:00017aa0       REALLOCRELLIST             0000000140018aa0 f   ParseDataSO.obj
 0001:00018df0       INITRELSTACK               0000000140019df0 f   ParseDataSO.obj
 0001:00018ec0       INITRELCONT                0000000140019ec0 f   ParseDataSO.obj
 0001:00018f90       INITRELINST                0000000140019f90 f   ParseDataSO.obj
 0001:00019070       INITRELAREA                000000014001a070 f   ParseDataSO.obj
 0001:00019140       PARSEDATARE                000000014001a140 f   ParseDataRE.obj
 0001:0001dc10       STARTARG                   000000014001ec10 f   ParseDataRE.obj
 0001:0001ddb0       COMPUTEDURATIONAERMOD      000000014001edb0 f   ComputeDuration.obj
 0001:0001e070       CHECK_YMD                  000000014001f070 f   ComputeDuration.obj
 0001:0001e0a0       PARSEDATATE                000000014001f0a0 f   ParseDataTE.obj
 0001:0001e740       PARSEDATAME                000000014001f740 f   ParseDataME.obj
 0001:00022ac0       RUNAERMODINP               0000000140023ac0 f   RunAERMODInp.obj
 0001:00023dd0       REPORTDEFAULTS             0000000140024dd0 f   RunAERMODInp.obj
 0001:00024760       PARSEDATACO                0000000140025760 f   ParseDataCO.obj
 0001:000280a0       GENSCIPUFFAREASOURCE       00000001400290a0 f   GenSCIPUFFAreaSource.obj
 0001:00028890       NUMAREASOURCES             0000000140029890 f   GenSCIPUFFAreaSource.obj
 0001:00028900       SETMCRELEASE               0000000140029900 f   GenSCIPUFFAreaSource.obj
 0001:00028cb0       REALLOCMCRELLIST           0000000140029cb0 f   GenSCIPUFFAreaSource.obj
 0001:00029440       READARRAYLIMITS            000000014002a440 f   ReadArrayLimits.obj
 0001:00029ae0       READPATHWAYSC              000000014002aae0 f   ReadArrayLimits.obj
 0001:0002a040       PARSEDATASC                000000014002b040 f   ReadArrayLimits.obj
 0001:0002a380       PARSEDATAEV                000000014002b380 f   ParseDataEV.obj
 0001:0002a520       INITAERMOD                 000000014002b520 f   InitAERMOD.obj
 0001:0002ae30       GETZRUFFROMWEATHER         000000014002be30 f   GetZrufFromWeather.obj
 0001:0002b9b0       FILEINPUT                  000000014002c9b0 f   FileInput.obj
 0001:0002c250       BUILDFILENAMEAERMOD        000000014002d250 f   FileInput.obj
 0001:0002c590       READAERMODINPUT            000000014002d590 f   ReadAERMODInput.obj
 0001:0002cd50       READPATHWAY                000000014002dd50 f   ReadAERMODInput.obj
 0001:0002d120       GENSCIPUFFWEATHER          000000014002e120 f   GenSCIPUFFWeather.obj
 0001:0002e200       UPDATECONTREL              000000014002f200 f   UpdateContRel.obj
 0001:0002edd0       FINDREL                    000000014002fdd0 f   UpdateContRel.obj
 0001:0002f120       READNEXTREL                0000000140030120 f   UpdateContRel.obj
 0001:0002f6d0       GETNEXTFILEUNIT            00000001400306d0 f   UpdateContRel.obj
 0001:0002f7a0       CLEARRELLIST               00000001400307a0 f   UpdateContRel.obj
 0001:0002f820       INITRELLIST                0000000140030820 f   InitSCIPUFFProject.obj
 0001:0002fa20       INITSCIPUFFPROJECT         0000000140030a20 f   InitSCIPUFFProject.obj
 0001:00031b80       GETTIMEFROMWEATHER         0000000140032b80 f   GetTimeFromWeather.obj
 0001:00033320       SKIPMET2DAERMOD            0000000140034320 f   GetTimeFromWeather.obj
 0001:000334c0       SKIPMET3DAERMOD            00000001400344c0 f   GetTimeFromWeather.obj
 0001:00033670       SKIPMETHEADERAERMOD        0000000140034670 f   GetTimeFromWeather.obj
 0001:000344b0       YEARMONTHDAY               00000001400354b0 f   GetTimeFromWeather.obj
 0001:00034610       SKIPMODELHEADERAERMOD      0000000140035610 f   GetTimeFromWeather.obj
 0001:00034c90       SETYEAR                    0000000140035c90 f   GetTimeFromWeather.obj
 0001:00034cc0       SKIPMETTIMEAERMOD          0000000140035cc0 f   GetTimeFromWeather.obj
 0001:000351a0       SETTIMEZONE                00000001400361a0 f   SetTimeZone.obj
 0001:000353e0       SETEMISSIONS               00000001400363e0 f   ReadEmissionFile.obj
 0001:00037890       PARSEHOUREMIS              0000000140038890 f   ReadEmissionFile.obj
 0001:000393e0       FINDRELNAME                000000014003a3e0 f   ReadEmissionFile.obj
 0001:00039530       READNEXTEMISSION           000000014003a530 f   ReadEmissionFile.obj
 0001:0003b1b0       FINDRELTYPE                000000014003c1b0 f   ReadEmissionFile.obj
 0001:0003b320       GETDOMREFFROMWEATHER       000000014003c320 f   GetDomRefFromWeather.obj
 0001:0003bd40       SETSCIPUFFDOMAIN           000000014003cd40 f   SetSCIPUFFDomain.obj
 0001:0003c260       PARSEDATAMA                000000014003d260 f   ParseDataMA.obj
 0001:0003e600       FINDMATLNAME               000000014003f600 f   ParseDataMA.obj
 0001:0003e8b0       GETMATLDENSITY             000000014003f8b0 f   ParseDataMA.obj
 0001:0003ed20       GETRELTIME                 000000014003fd20 f   GetRelTime.obj
 0001:0003edf0       PARSEDATAOU                000000014003fdf0 f   ParseDataOU.obj
 0001:0003fea0       GENSCIPUFFSENSOR           0000000140040ea0 f   GenSCIPUFFSensor.obj
 0001:00040960       GENPOLARGRID               0000000140041960 f   GenSCIPUFFSensor.obj
 0001:00041080       GENRECTGRID                0000000140042080 f   GenSCIPUFFSensor.obj
 0001:00041790       GENDISCLIST                0000000140042790 f   GenSCIPUFFSensor.obj
 0001:00041f50       JULIAN_DAY                 0000000140042f50 f   SCIPUFFlib:julian.obj
 0001:00042030       LEAP_YEAR                  0000000140043030 f   SCIPUFFlib:julian.obj
 0001:00042090       JULIAN_YMD                 0000000140043090 f   SCIPUFFlib:julian.obj
 0001:00042290       DAYS_IN_YEAR               0000000140043290 f   SCIPUFFlib:julian.obj
 0001:00042310       DATETIMESHIFT              0000000140043310 f   SCIPUFFlib:julian.obj
 0001:00042610       VSORTI                     0000000140043610 f   SCIPUFFlib:vsort.obj
 0001:000428b0       VSORTR                     00000001400438b0 f   SCIPUFFlib:vsort.obj
 0001:00042b50       USORT                      0000000140043b50 f   SCIPUFFlib:vsort.obj
 0001:00042d40       CUPPER                     0000000140043d40 f   SCIPUFFlib:cupper.obj
 0001:00042dc0       GET_NEXT_DATA              0000000140043dc0 f   SCIPUFFlib:get_next_data.obj
 0001:00043520       PARSE_STRING               0000000140044520 f   SCIPUFFlib:get_next_data.obj
 0001:00043740       FIRST_NBLANK               0000000140044740 f   SCIPUFFlib:get_next_data.obj
 0001:00043770       GET_NEXT_DATA_ARRAY        0000000140044770 f   SCIPUFFlib:get_next_data.obj
 0001:00043950       PARSE_STRING_ARRAY         0000000140044950 f   SCIPUFFlib:get_next_data.obj
 0001:00043c00       INIT_NEXT_DATA             0000000140044c00 f   SCIPUFFlib:get_next_data.obj
 0001:00043e20       C_FORMAT                   0000000140044e20 f   SCIPUFFlib:cformat.obj
 0001:00044060       I_FORMAT                   0000000140045060 f   SCIPUFFlib:cformat.obj
 0001:000441b0       D_FORMAT                   00000001400451b0 f   SCIPUFFlib:cformat.obj
 0001:000444f0       TRIGCONST.                 00000001400454f0 f   SCIPUFFlib:trig_degrees.obj
 0001:00044500       SIND                       0000000140045500 f   SCIPUFFlib:trig_degrees.obj
 0001:00044520       COSD                       0000000140045520 f   SCIPUFFlib:trig_degrees.obj
 0001:00044540       TAND                       0000000140045540 f   SCIPUFFlib:trig_degrees.obj
 0001:00044560       ASIND                      0000000140045560 f   SCIPUFFlib:trig_degrees.obj
 0001:00044580       ACOSD                      0000000140045580 f   SCIPUFFlib:trig_degrees.obj
 0001:000445a0       ATAN2D                     00000001400455a0 f   SCIPUFFlib:trig_degrees.obj
 0001:000445d0       DEBLANK                    00000001400455d0 f   SCIPUFFlib:deblank.obj
 0001:00044720       for_len_trim               0000000140045720 f   libifcoremt:for_90_trim.obj
 0001:00044860       for_trim                   0000000140045860 f   libifcoremt:for_90_trim.obj
 0001:000449b0       SetEndian                  00000001400459b0 f   libifcoremt:for_open.obj
 0001:00044f10       CheckStreamRecortType      0000000140045f10 f   libifcoremt:for_open.obj
 0001:000454e0       CheckEndian                00000001400464e0 f   libifcoremt:for_open.obj
 0001:00045a10       for_open                   0000000140046a10 f   libifcoremt:for_open.obj
 0001:00047660       for__update_reopen_keywords 0000000140048660 f   libifcoremt:for_open.obj
 0001:00049300       for__set_foreign_bits      000000014004a300 f   libifcoremt:for_open.obj
 0001:0004a560       for__open_key              000000014004b560 f   libifcoremt:for_open.obj
 0001:0004a7d0       for__open_args             000000014004b7d0 f   libifcoremt:for_open.obj
 0001:0004b060       for__find_iomsg            000000014004c060 f   libifcoremt:for_open.obj
 0001:0004b110       for__set_terminator_option 000000014004c110 f   libifcoremt:for_open.obj
 0001:0004b690       for__set_conversion_option 000000014004c690 f   libifcoremt:for_open.obj
 0001:0004ba50       for__is_special_device     000000014004ca50 f   libifcoremt:for_open.obj
 0001:0004bc60       for__open_default          000000014004cc60 f   libifcoremt:for_open.obj
 0001:0004c040       for_read_seq_fmt           000000014004d040 f   libifcoremt:for_rseq_fmt.obj
 0001:0004eba0       for_read_seq_fmt_xmit      000000014004fba0 f   libifcoremt:for_rseq_fmt.obj
 0001:00051d50       for__read_args             0000000140052d50 f   libifcoremt:for_rseq_fmt.obj
 0001:00052000       for_index_back             0000000140053000 f   libifcoremt:for_90_index.obj
 0001:000525a0       for_f90_index              00000001400535a0 f   libifcoremt:for_90_index.obj
 0001:00052b80       for_cpystr                 0000000140053b80 f   libifcoremt:for_f90str.obj
 0001:00052c10       for_cpstr_gt               0000000140053c10 f   libifcoremt:for_f90str.obj
 0001:00052ee0       for_cpstr_lt               0000000140053ee0 f   libifcoremt:for_f90str.obj
 0001:000531b0       for_cpstr_eq               00000001400541b0 f   libifcoremt:for_f90str.obj
 0001:00053400       for_cpstr_ne               0000000140054400 f   libifcoremt:for_f90str.obj
 0001:00053680       for_cpstr_ge               0000000140054680 f   libifcoremt:for_f90str.obj
 0001:00053950       for_cpstr_le               0000000140054950 f   libifcoremt:for_f90str.obj
 0001:00053c20       for_cpstr                  0000000140054c20 f   libifcoremt:for_f90str.obj
 0001:00053db0       for_concat                 0000000140054db0 f   libifcoremt:for_f90str.obj
 0001:00053fb0       for__get_vm                0000000140054fb0 f   libifcoremt:for_vm.obj
 0001:00053ff0       for__realloc_vm            0000000140054ff0 f   libifcoremt:for_vm.obj
 0001:00054070       for__free_vm               0000000140055070 f   libifcoremt:for_vm.obj
 0001:00054090       for_allocate               0000000140055090 f   libifcoremt:for_vm.obj
 0001:000542c0       for_alloc_allocatable      00000001400552c0 f   libifcoremt:for_vm.obj
 0001:00054520       for_deallocate             0000000140055520 f   libifcoremt:for_vm.obj
 0001:000546a0       for_dealloc_allocatable    00000001400556a0 f   libifcoremt:for_vm.obj
 0001:00054860       for_check_mult_overflow    0000000140055860 f   libifcoremt:for_vm.obj
 0001:00054910       for_check_mult_overflow64  0000000140055910 f   libifcoremt:for_vm.obj
 0001:00054a40       for_set_fastmem_policy     0000000140055a40 f   libifcoremt:for_vm.obj
 0001:00054a60       for_get_hbw_availability   0000000140055a60 f   libifcoremt:for_vm.obj
 0001:00054a80       for__alternate_aligned_malloc 0000000140055a80 f   libifcoremt:for_vm.obj
 0001:00054a90       for__alternate_aligned_free 0000000140055a90 f   libifcoremt:for_vm.obj
 0001:00054aa0       for_rewind                 0000000140055aa0 f   libifcoremt:for_rewind.obj
 0001:00055a80       for_adjustl                0000000140056a80 f   libifcoremt:for_90_adjust.obj
 0001:00055be0       for_adjustr                0000000140056be0 f   libifcoremt:for_90_adjust.obj
 0001:00055c80       for_read_int_fmt           0000000140056c80 f   libifcoremt:for_rint_fmt.obj
 0001:00059af0       for_read_int_fmt_xmit      000000014005aaf0 f   libifcoremt:for_rint_fmt.obj
 0001:0005c9c0       for_read_int_lis           000000014005d9c0 f   libifcoremt:for_rint_lis.obj
 0001:0005f710       for_read_int_lis_xmit      0000000140060710 f   libifcoremt:for_rint_lis.obj
 0001:00060de0       for_ri_cvt_2step           0000000140061de0 f   libifcoremt:for_rint_lis.obj
 0001:00062090       for_set_reentrancy         0000000140063090 f   libifcoremt:for_reentrancy.obj
 0001:00062140       for__reentrancy_cleanup    0000000140063140 f   libifcoremt:for_reentrancy.obj
 0001:000622a0       for__destroy_threadstor    00000001400632a0 f   libifcoremt:for_reentrancy.obj
 0001:000622e0       for__destroy_threadstor_index 00000001400632e0 f   libifcoremt:for_reentrancy.obj
 0001:00062370       for__access_threadstor_threads 0000000140063370 f   libifcoremt:for_reentrancy.obj
 0001:000625c0       for__acquire_threadstor_threads 00000001400635c0 f   libifcoremt:for_reentrancy.obj
 0001:00062840       for__disable_asynch_deliv_private 0000000140063840 f   libifcoremt:for_reentrancy.obj
 0001:00062880       for__enable_asynch_deliv_private 0000000140063880 f   libifcoremt:for_reentrancy.obj
 0001:000628b0       for__acquire_semaphore_threaded 00000001400638b0 f   libifcoremt:for_reentrancy.obj
 0001:00062940       for__release_mutex         0000000140063940 f   libifcoremt:for_reentrancy.obj
 0001:00062960       for__once_private          0000000140063960 f   libifcoremt:for_reentrancy.obj
 0001:00062a70       for__thread_clean          0000000140063a70 f   libifcoremt:for_reentrancy.obj
 0001:00062ac0       for__init_threadstor_index 0000000140063ac0 f   libifcoremt:for_reentrancy.obj
 0001:00062af0       for__reentrancy_init       0000000140063af0 f   libifcoremt:for_reentrancy.obj
 0001:00062df0       ensure_one_leading_blank_before_data 0000000140063df0 f   libifcoremt:for_wseq_lis.obj
 0001:00063170       for_write_seq_lis          0000000140064170 f   libifcoremt:for_wseq_lis.obj
 0001:00065170       for_write_seq_lis_xmit     0000000140066170 f   libifcoremt:for_wseq_lis.obj
 0001:0006aad0       for_since_epoch            000000014006bad0 f   libifcoremt:for_secnds.obj
 0001:0006ab80       for_since_epoch_t          000000014006bb80 f   libifcoremt:for_secnds.obj
 0001:0006ac20       for_since_epoch_x          000000014006bc20 f   libifcoremt:for_secnds.obj
 0001:0006ad10       for_secnds                 000000014006bd10 f   libifcoremt:for_secnds.obj
 0001:0006ae30       for_secnds_t               000000014006be30 f   libifcoremt:for_secnds.obj
 0001:0006af50       for_secnds_x               000000014006bf50 f   libifcoremt:for_secnds.obj
 0001:0006b1c0       for_cpusec                 000000014006c1c0 f   libifcoremt:for_secnds.obj
 0001:0006b2c0       for_cpusec_t               000000014006c2c0 f   libifcoremt:for_secnds.obj
 0001:0006b3c0       for_cpusec_x               000000014006c3c0 f   libifcoremt:for_secnds.obj
 0001:0006b4f0       for_write_seq_fmt          000000014006c4f0 f   libifcoremt:for_wseq_fmt.obj
 0001:0006df20       for_write_seq_fmt_xmit     000000014006ef20 f   libifcoremt:for_wseq_fmt.obj
 0001:000719f0       for__write_args            00000001400729f0 f   libifcoremt:for_wseq_fmt.obj
 0001:00071bd0       for_inquire                0000000140072bd0 f   libifcoremt:for_inquire.obj
 0001:000796d0       for_read_seq_lis           000000014007a6d0 f   libifcoremt:for_rseq_lis.obj
 0001:0007b1a0       for_read_seq_lis_xmit      000000014007c1a0 f   libifcoremt:for_rseq_lis.obj
 0001:0007deb0       for__swallow_imaginary_part 000000014007eeb0 f   libifcoremt:for_rseq_lis.obj
 0001:0007e130       for_close                  000000014007f130 f   libifcoremt:for_close.obj
 0001:0007ea60       for__close_args            000000014007fa60 f   libifcoremt:for_close.obj
 0001:0007ec50       for__close_default         000000014007fc50 f   libifcoremt:for_close.obj
 0001:0007edb0       for_abort                  000000014007fdb0 f   libifcoremt:for_stop.obj
 0001:0007f9f0       for_stop_core_impl         00000001400809f0 f   libifcoremt:for_stop.obj
 0001:000807c0       for_stop_core              00000001400817c0 f   libifcoremt:for_stop.obj
 0001:000814b0       for_stop                   00000001400824b0 f   libifcoremt:for_stop.obj
 0001:00082010       r_int                      0000000140083010 f   libifcoremt:for_mi_int.obj
 0001:00082020       r_int_val                  0000000140083020 f   libifcoremt:for_mi_int.obj
 0001:00082030       d_int                      0000000140083030 f   libifcoremt:for_mi_int.obj
 0001:00082040       d_int_val                  0000000140083040 f   libifcoremt:for_mi_int.obj
 0001:00082050       h_nint                     0000000140083050 f   libifcoremt:for_mi_int.obj
 0001:00082060       i_nint                     0000000140083060 f   libifcoremt:for_mi_int.obj
 0001:00082070       k_nint                     0000000140083070 f   libifcoremt:for_mi_int.obj
 0001:00082080       r_nint                     0000000140083080 f   libifcoremt:for_mi_int.obj
 0001:000820f0       f_lanint_val               00000001400830f0 f   libifcoremt:for_mi_int.obj
 0001:00082160       b_nint                     0000000140083160 f   libifcoremt:for_mi_int.obj
 0001:00082170       i_dnnt                     0000000140083170 f   libifcoremt:for_mi_int.obj
 0001:00082180       h_dnnt                     0000000140083180 f   libifcoremt:for_mi_int.obj
 0001:00082190       b_dnnt                     0000000140083190 f   libifcoremt:for_mi_int.obj
 0001:000821a0       k_dnnt                     00000001400831a0 f   libifcoremt:for_mi_int.obj
 0001:000821b0       d_nint                     00000001400831b0 f   libifcoremt:for_mi_int.obj
 0001:00082220       f_ldnint_val               0000000140083220 f   libifcoremt:for_mi_int.obj
 0001:000822c0       for_write_int_fmt          00000001400832c0 f   libifcoremt:for_wint_fmt.obj
 0001:00086620       for_write_int_fmt_xmit     0000000140087620 f   libifcoremt:for_wint_fmt.obj
 0001:00089900       for_realloc_lhs            000000014008a900 f   libifcoremt:for_realloc_check.obj
 0001:00089a20       for_check_shape            000000014008aa20 f   libifcoremt:for_realloc_check.obj
 0001:00089ac0       for_backspace              000000014008aac0 f   libifcoremt:for_backspace.obj
 0001:0008e230       for_write_int_lis          000000014008f230 f   libifcoremt:for_wint_lis.obj
 0001:000919d0       for_write_int_lis_xmit     00000001400929d0 f   libifcoremt:for_wint_lis.obj
 0001:00093d20       for_nargs                  0000000140094d20 f   libifcoremt:for_getarg.obj
 0001:00093d30       for_iargc                  0000000140094d30 f   libifcoremt:for_getarg.obj
 0001:00093d40       for_getarg                 0000000140094d40 f   libifcoremt:for_getarg.obj
 0001:00093e60       for_getarg_i2              0000000140094e60 f   libifcoremt:for_getarg.obj
 0001:00093f80       NARGS                      0000000140094f80 f   libifcoremt:for_getarg.obj
 0001:00093f90       IARGC                      0000000140094f90 f   libifcoremt:for_getarg.obj
 0001:00093fa0       IARG                       0000000140094fa0 f   libifcoremt:for_getarg.obj
 0001:00093fb0       NUMARG                     0000000140094fb0 f   libifcoremt:for_getarg.obj
 0001:00093fc0       GETARG                     0000000140094fc0 f   libifcoremt:for_getarg.obj
 0001:000940a0       for_getcmd_arg             00000001400950a0 f   libifcoremt:for_getarg.obj
 0001:00094300       for_read_seq               0000000140095300 f   libifcoremt:for_rseq.obj
 0001:00095f60       for_read_seq_xmit          0000000140096f60 f   libifcoremt:for_rseq.obj
 0001:00098f10       for__io_return             0000000140099f10 f   libifcoremt:for_diags_intel.obj
 0001:0009bae0       for__issue_diagnostic      000000014009cae0 f   libifcoremt:for_diags_intel.obj
 0001:0009ca90       for__this_image_number_or_zero 000000014009da90 f   libifcoremt:for_diags_intel.obj
 0001:0009cb10       for__get_msg               000000014009db10 f   libifcoremt:for_diags_intel.obj
 0001:0009d1e0       for_emit_diagnostic        000000014009e1e0 f   libifcoremt:for_diags_intel.obj
 0001:0009d450       for_msgbox                 000000014009e450 f   libifcoremt:for_diags_intel.obj
 0001:0009d500       for__message_catalog_close 000000014009e500 f   libifcoremt:for_diags_intel.obj
 0001:0009d570       for_errmsg                 000000014009e570 f   libifcoremt:for_diags_intel.obj
 0001:0009d700       for__rtc_uninit_use        000000014009e700 f   libifcoremt:for_diags_intel.obj
 0001:0009d720       for__rtc_uninit_use_src    000000014009e720 f   libifcoremt:for_diags_intel.obj
 0001:0009e360       TRACEBACKQQ                000000014009f360 f   libifcoremt:for_diags_intel.obj
 0001:0009e690       for_perror_                000000014009f690 f   libifcoremt:for_diags_intel.obj
 0001:0009fe60       for_gerror_                00000001400a0e60 f   libifcoremt:for_diags_intel.obj
 0001:000a0e80       for__establish_user_error_handler 00000001400a1e80 f   libifcoremt:for_diags_intel.obj
 0001:000a0ec0       for__continue_traceback_   00000001400a1ec0 f   libifcoremt:for_diags_intel.obj
 0001:000a1120       for__continue_traceback    00000001400a2120 f   libifcoremt:for_diags_intel.obj
 0001:000a13a0       for__desc_ret_item         00000001400a23a0 f   libifcoremt:for_desc_item.obj
 0001:000a1700       for__key_desc_ret_item     00000001400a2700 f   libifcoremt:for_desc_item.obj
 0001:000a1a70       for__desc_test_item        00000001400a2a70 f   libifcoremt:for_desc_item.obj
 0001:000a1d20       for__desc_zero_length_item 00000001400a2d20 f   libifcoremt:for_desc_item.obj
 0001:000a20c0       for__acquire_lun           00000001400a30c0 f   libifcoremt:for_lub_mgt.obj
 0001:000a3a90       for__release_lun           00000001400a4a90 f   libifcoremt:for_lub_mgt.obj
 0001:000a4000       for__create_lub            00000001400a5000 f   libifcoremt:for_lub_mgt.obj
 0001:000a4160       for__deallocate_lub        00000001400a5160 f   libifcoremt:for_lub_mgt.obj
 0001:000a49b0       for__get_next_lub          00000001400a59b0 f   libifcoremt:for_lub_mgt.obj
 0001:000a55e0       for__get_free_newunit      00000001400a65e0 f   libifcoremt:for_lub_mgt.obj
 0001:000a5930       for__release_newunit       00000001400a6930 f   libifcoremt:for_lub_mgt.obj
 0001:000a59a0       for__aio_destroy           00000001400a69a0 f   libifcoremt:for_aio.obj
 0001:000a59f0       for__aio_acquire_lun_fname 00000001400a69f0 f   libifcoremt:for_aio.obj
 0001:000a5b30       for__aio_release           00000001400a6b30 f   libifcoremt:for_aio.obj
 0001:000a5c50       for__aio_acquire_lun       00000001400a6c50 f   libifcoremt:for_aio.obj
 0001:000a6280       for__aio_release_lun       00000001400a7280 f   libifcoremt:for_aio.obj
 0001:000a6ae0       for_asynchronous           00000001400a7ae0 f   libifcoremt:for_aio.obj
 0001:000a75f0       for_waitid                 00000001400a85f0 f   libifcoremt:for_aio.obj
 0001:000a8640       for_wait                   00000001400a9640 f   libifcoremt:for_aio.obj
 0001:000a94c0       for__aio_check_unit        00000001400aa4c0 f   libifcoremt:for_aio.obj
 0001:000a9560       for__aio_error_handling    00000001400aa560 f   libifcoremt:for_aio.obj
 0001:000a9ce0       for__aio_init              00000001400aace0 f   libifcoremt:for_aio.obj
 0001:000a9d00       real_aio_init              00000001400aad00 f   libifcoremt:for_aio.obj
 0001:000a9d80       for__compute_filename      00000001400aad80 f   libifcoremt:for_nt_open_proc.obj
 0001:000abb80       for__open_proc             00000001400acb80 f   libifcoremt:for_nt_open_proc.obj
 0001:000b0820       for__reopen_file           00000001400b1820 f   libifcoremt:for_nt_open_proc.obj
 0001:000b2d30       for__decl_exit_hand        00000001400b3d30 f   libifcoremt:for_nt_open_proc.obj
 0001:000b2d40       for__format_compiler       00000001400b3d40 f   libifcoremt:for_fmt_comp.obj
 0001:000b6ff0       for__format_free           00000001400b7ff0 f   libifcoremt:for_fmt_comp.obj
 0001:000b7040       for__characterize_LUB_buffer 00000001400b8040 f   libifcoremt:for_get.obj
 0001:000b7640       for__get_s                 00000001400b8640 f   libifcoremt:for_get.obj
 0001:000baf90       for__get_d                 00000001400bbf90 f   libifcoremt:for_get.obj
 0001:000bb610       for__get_su_fields         00000001400bc610 f   libifcoremt:for_get.obj
 0001:000bcef0       for__get_more_fields       00000001400bdef0 f   libifcoremt:for_get.obj
 0001:000bd270       for__read_input            00000001400be270 f   libifcoremt:for_get.obj
 0001:000bd540       for__interp_fmt            00000001400be540 f   libifcoremt:for_intrp_fmt.obj
 0001:000be370       for__adjust_buffer         00000001400bf370 f   libifcoremt:for_io_util.obj
 0001:000be600       for__lower_bound_index     00000001400bf600 f   libifcoremt:for_io_util.obj
 0001:000be650       for__cvt_foreign_read      00000001400bf650 f   libifcoremt:for_io_util.obj
 0001:000beb50       for__cvt_foreign_write     00000001400bfb50 f   libifcoremt:for_io_util.obj
 0001:000bef00       for__cvt_foreign_check     00000001400bff00 f   libifcoremt:for_io_util.obj
 0001:000befd0       for_check_env_name         00000001400bffd0 f   libifcoremt:for_io_util.obj
 0001:000bf110       for__format_value          00000001400c0110 f   libifcoremt:for_fmt_val.obj
 0001:000c0070       for__cvt_value             00000001400c1070 f   libifcoremt:for_fmt_val.obj
 0001:000c0d70       for__udio_uf               00000001400c1d70 f   libifcoremt:for_udio.obj
 0001:000c1800       for__udio_lis              00000001400c2800 f   libifcoremt:for_udio.obj
 0001:000c1e70       for__udio_nml              00000001400c2e70 f   libifcoremt:for_udio.obj
 0001:000c2590       for__udio_fmt              00000001400c3590 f   libifcoremt:for_udio.obj
 0001:000c2a90       for_index                  00000001400c3a90 f   libifcoremt:for_index.obj
 0001:000c2b40       for_string_index           00000001400c3b40 f   libifcoremt:for_index.obj
 0001:000c2c00       for_index_ssll             00000001400c3c00 f   libifcoremt:for_index.obj
 0001:000c2cb0       for_avallocate             00000001400c3cb0 f   libifcoremt:for_avalloc.obj
 0001:000c3190       for_avdeallocate           00000001400c4190 f   libifcoremt:for_avalloc.obj
 0001:000c3210       for__put_su                00000001400c4210 f   libifcoremt:for_put.obj
 0001:000c3880       for__write_output          00000001400c4880 f   libifcoremt:for_put.obj
 0001:000c3f90       for__put_sf                00000001400c4f90 f   libifcoremt:for_put.obj
 0001:000c5440       for__put_d                 00000001400c6440 f   libifcoremt:for_put.obj
 0001:000c5720       for__flush_readahead       00000001400c6720 f   libifcoremt:for_put.obj
 0001:000c59b0       for_write_seq              00000001400c69b0 f   libifcoremt:for_wseq.obj
 0001:000c7400       for_write_seq_xmit         00000001400c8400 f   libifcoremt:for_wseq.obj
 0001:000cc890       for__finish_ufseq_write    00000001400cd890 f   libifcoremt:for_wseq.obj
 0001:000ccce0       for_exit                   00000001400cdce0 f   libifcoremt:for_exit.obj
 0001:000ccd30       for__add_to_lf_table       00000001400cdd30 f   libifcoremt:for_need_lf.obj
 0001:000cd230       for__rm_from_lf_table      00000001400ce230 f   libifcoremt:for_need_lf.obj
 0001:000cd390       for__process_start_time    00000001400ce390 f   libifcoremt:for_init.obj
 0001:000cd3a0       free_for__l_excpt_info     00000001400ce3a0 f   libifcoremt:for_init.obj
 0001:000cd3d0       for_enable_underflow       00000001400ce3d0 f   libifcoremt:for_init.obj
 0001:000cd400       for_get_fpe_               00000001400ce400 f   libifcoremt:for_init.obj
 0001:000cd490       for_set_fpe_               00000001400ce490 f   libifcoremt:for_init.obj
 0001:000cd600       for_fpe_service            00000001400ce600 f   libifcoremt:for_init.obj
 0001:000cd780       for_get_fpe_counts_        00000001400ce780 f   libifcoremt:for_init.obj
 0001:000cd7d0       for_rtl_finish_            00000001400ce7d0 f   libifcoremt:for_init.obj
 0001:000cd900       for__nt_signal_handler     00000001400ce900 f   libifcoremt:for_init.obj
 0001:000ce810       GETEXCEPTIONPTRSQQ         00000001400cf810 f   libifcoremt:for_init.obj
 0001:000ce830       for_rtl_init_wrap_         00000001400cf830 f   libifcoremt:for_init.obj
 0001:000cee00       for_rtl_init_              00000001400cfe00 f   libifcoremt:for_init.obj
 0001:000cf440       for__common_inquire        00000001400d0440 f   libifcoremt:for_common_inquire.obj
 0001:000d0940       for__inquire_args          00000001400d1940 f   libifcoremt:for_common_inquire.obj
 0001:000d1170       for__close_proc            00000001400d2170 f   libifcoremt:for_close_proc.obj
 0001:000d1cd0       for__fpe_exit_handler      00000001400d2cd0 f   libifcoremt:for_exit_handler.obj
 0001:000d1db0       for__exit_handler          00000001400d2db0 f   libifcoremt:for_exit_handler.obj
 0001:000d26c0       tbk_stack_trace            00000001400d36c0 f   libifcoremt:tbk_traceback.obj
 0001:000d2940       __msportlib_d_gethandle    00000001400d3940 f   libifcoremt:for_portlib.obj
 0001:000d2c00       __msportlib_d_get_POSIX_fd 00000001400d3c00 f   libifcoremt:for_portlib.obj
 0001:000d2dd0       __msportlib_set_posix_io_flag 00000001400d3dd0 f   libifcoremt:for_portlib.obj
 0001:000d2e10       __msportlib_d_curpos       00000001400d3e10 f   libifcoremt:for_portlib.obj
 0001:000d2f40       __msportlib_d_curpos_i8    00000001400d3f40 f   libifcoremt:for_portlib.obj
 0001:000d3060       __msportlib_d_fseek        00000001400d4060 f   libifcoremt:for_portlib.obj
 0001:000d32e0       __msportlib_d_fseek_i8     00000001400d42e0 f   libifcoremt:for_portlib.obj
 0001:000d3550       __msportlib_d_readchar     00000001400d4550 f   libifcoremt:for_portlib.obj
 0001:000d3e30       __msportlib_d_writechar    00000001400d4e30 f   libifcoremt:for_portlib.obj
 0001:000d5520       COMMITQQ                   00000001400d6520 f   libifcoremt:for_portlib.obj
 0001:000d55c0       FLUSHQQ                    00000001400d65c0 f   libifcoremt:for_portlib.obj
 0001:000d5650       for__signal                00000001400d6650 f   libifcoremt:for_portlib.obj
 0001:000d5660       for__raise                 00000001400d6660 f   libifcoremt:for_portlib.obj
 0001:000d5670       cvt_text_to_integer        00000001400d6670 f   libifcoremt:cvt_text_to_int.obj
 0001:000d5990       cvt_text_to_unsigned       00000001400d6990 f   libifcoremt:cvt_text_to_int.obj
 0001:000d5c40       cvt_text_to_integer64      00000001400d6c40 f   libifcoremt:cvt_text_to_int.obj
 0001:000d5f70       cvt_text_to_unsigned64     00000001400d6f70 f   libifcoremt:cvt_text_to_int.obj
 0001:000d6240       cvt_ieee_single_to_cray_   00000001400d7240 f   libifcoremt:cvt_ieee_single.obj
 0001:000d65f0       CVT_IEEE_SINGLE_TO_CRAY    00000001400d75f0 f   libifcoremt:cvt_ieee_single.obj
 0001:000d69a0       cvt_ieee_single_to_cray    00000001400d79a0 f   libifcoremt:cvt_ieee_single.obj
 0001:000d6d90       cvt_ieee_single_to_ibm_short_ 00000001400d7d90 f   libifcoremt:cvt_ieee_single.obj
 0001:000d7180       CVT_IEEE_SINGLE_TO_IBM_SHORT 00000001400d8180 f   libifcoremt:cvt_ieee_single.obj
 0001:000d7570       cvt_ieee_single_to_ibm_short 00000001400d8570 f   libifcoremt:cvt_ieee_single.obj
 0001:000d79a0       cvt_ieee_single_to_vax_f_  00000001400d89a0 f   libifcoremt:cvt_ieee_single.obj
 0001:000d7cd0       CVT_IEEE_SINGLE_TO_VAX_F   00000001400d8cd0 f   libifcoremt:cvt_ieee_single.obj
 0001:000d8000       cvt_ieee_single_to_vax_f   00000001400d9000 f   libifcoremt:cvt_ieee_single.obj
 0001:000d83c0       cvt_ieee_double_to_cray_   00000001400d93c0 f   libifcoremt:cvt_ieee_double.obj
 0001:000d87f0       CVT_IEEE_DOUBLE_TO_CRAY    00000001400d97f0 f   libifcoremt:cvt_ieee_double.obj
 0001:000d8c20       cvt_ieee_double_to_cray    00000001400d9c20 f   libifcoremt:cvt_ieee_double.obj
 0001:000d90c0       cvt_ieee_double_to_ibm_long_ 00000001400da0c0 f   libifcoremt:cvt_ieee_double.obj
 0001:000d9550       CVT_IEEE_DOUBLE_TO_IBM_LONG 00000001400da550 f   libifcoremt:cvt_ieee_double.obj
 0001:000d99e0       cvt_ieee_double_to_ibm_long 00000001400da9e0 f   libifcoremt:cvt_ieee_double.obj
 0001:000d9ea0       cvt_ieee_double_to_vax_d_  00000001400daea0 f   libifcoremt:cvt_ieee_double.obj
 0001:000da2a0       CVT_IEEE_DOUBLE_TO_VAX_D   00000001400db2a0 f   libifcoremt:cvt_ieee_double.obj
 0001:000da6a0       cvt_ieee_double_to_vax_d   00000001400db6a0 f   libifcoremt:cvt_ieee_double.obj
 0001:000daaf0       cvt_ieee_double_to_vax_g_  00000001400dbaf0 f   libifcoremt:cvt_ieee_double.obj
 0001:000daf00       CVT_IEEE_DOUBLE_TO_VAX_G   00000001400dbf00 f   libifcoremt:cvt_ieee_double.obj
 0001:000db310       cvt_ieee_double_to_vax_g   00000001400dc310 f   libifcoremt:cvt_ieee_double.obj
 0001:000db770       cvt_ieee_double_to_vax_h_  00000001400dc770 f   libifcoremt:cvt_ieee_double.obj
 0001:000dbbe0       CVT_IEEE_DOUBLE_TO_VAX_H   00000001400dcbe0 f   libifcoremt:cvt_ieee_double.obj
 0001:000dc050       cvt_ieee_double_to_vax_h   00000001400dd050 f   libifcoremt:cvt_ieee_double.obj
 0001:000dc4e0       cvt_vax_f_to_ieee_single_  00000001400dd4e0 f   libifcoremt:cvt_vax_f.obj
 0001:000dc990       CVT_VAX_F_TO_IEEE_SINGLE   00000001400dd990 f   libifcoremt:cvt_vax_f.obj
 0001:000dce40       cvt_vax_f_to_ieee_single   00000001400dde40 f   libifcoremt:cvt_vax_f.obj
 0001:000dd320       cvt_ibm_short_to_ieee_single_ 00000001400de320 f   libifcoremt:cvt_ibm_short.obj
 0001:000dd800       CVT_IBM_SHORT_TO_IEEE_SINGLE 00000001400de800 f   libifcoremt:cvt_ibm_short.obj
 0001:000ddce0       cvt_ibm_short_to_ieee_single 00000001400dece0 f   libifcoremt:cvt_ibm_short.obj
 0001:000de200       cvt_vax_g_to_ieee_double_  00000001400df200 f   libifcoremt:cvt_vax_g.obj
 0001:000de700       CVT_VAX_G_TO_IEEE_DOUBLE   00000001400df700 f   libifcoremt:cvt_vax_g.obj
 0001:000dec00       cvt_vax_g_to_ieee_double   00000001400dfc00 f   libifcoremt:cvt_vax_g.obj
 0001:000df150       cvt_vax_d_to_ieee_double_  00000001400e0150 f   libifcoremt:cvt_vax_d.obj
 0001:000df650       CVT_VAX_D_TO_IEEE_DOUBLE   00000001400e0650 f   libifcoremt:cvt_vax_d.obj
 0001:000dfb50       cvt_vax_d_to_ieee_double   00000001400e0b50 f   libifcoremt:cvt_vax_d.obj
 0001:000e00a0       cvt_ibm_long_to_ieee_double_ 00000001400e10a0 f   libifcoremt:cvt_ibm_long.obj
 0001:000e0540       CVT_IBM_LONG_TO_IEEE_DOUBLE 00000001400e1540 f   libifcoremt:cvt_ibm_long.obj
 0001:000e09e0       cvt_ibm_long_to_ieee_double 00000001400e19e0 f   libifcoremt:cvt_ibm_long.obj
 0001:000e0f60       cvt_cray_to_ieee_single_   00000001400e1f60 f   libifcoremt:cvt_cray.obj
 0001:000e1460       CVT_CRAY_TO_IEEE_SINGLE    00000001400e2460 f   libifcoremt:cvt_cray.obj
 0001:000e1960       cvt_cray_to_ieee_single    00000001400e2960 f   libifcoremt:cvt_cray.obj
 0001:000e1e70       cvt_cray_to_ieee_double_   00000001400e2e70 f   libifcoremt:cvt_cray.obj
 0001:000e2390       CVT_CRAY_TO_IEEE_DOUBLE    00000001400e3390 f   libifcoremt:cvt_cray.obj
 0001:000e28b0       cvt_cray_to_ieee_double    00000001400e38b0 f   libifcoremt:cvt_cray.obj
 0001:000e2e10       cvt_data_to_text           00000001400e3e10 f   libifcoremt:cvt_data_to_text.obj
 0001:000e3240       cvt_data64_to_text         00000001400e4240 f   libifcoremt:cvt_data_to_text.obj
 0001:000e3670       cvt_integer_to_text        00000001400e4670 f   libifcoremt:cvt_int_to_text.obj
 0001:000e3870       cvt_unsigned_to_text       00000001400e4870 f   libifcoremt:cvt_int_to_text.obj
 0001:000e3aa0       cvt_integer64_to_text      00000001400e4aa0 f   libifcoremt:cvt_int_to_text.obj
 0001:000e3cd0       cvt_unsigned64_to_text     00000001400e4cd0 f   libifcoremt:cvt_int_to_text.obj
 0001:000e3f10       cvt_boolean_to_text        00000001400e4f10 f   libifcoremt:cvt_log_to_text.obj
 0001:000e41e0       cvt_boolean_to_text_ex     00000001400e51e0 f   libifcoremt:cvt_log_to_text.obj
 0001:000e4480       cvt_boolean64_to_text      00000001400e5480 f   libifcoremt:cvt_log_to_text.obj
 0001:000e4710       cvt_ieee_x_to_text_ex      00000001400e5710 f   libifcoremt:cvt_cvtas_x.obj
 0001:000e6020       cvt_ieee_x_to_text         00000001400e7020 f   libifcoremt:cvt_cvtas_x.obj
 0001:000e7650       cvt_text_to_ieee_x_ex      00000001400e8650 f   libifcoremt:cvt_cvtas_x.obj
 0001:000e7720       cvt_ieee_t_to_text_ex      00000001400e8720 f   libifcoremt:cvt_cvtas_t.obj
 0001:000e8f30       cvt_ieee_t_to_text         00000001400e9f30 f   libifcoremt:cvt_cvtas_t.obj
 0001:000ea4a0       cvt_text_to_ieee_t_ex      00000001400eb4a0 f   libifcoremt:cvt_cvtas_t.obj
 0001:000ea530       cvt_ieee_s_to_text_ex      00000001400eb530 f   libifcoremt:cvt_cvtas_s.obj
 0001:000ebcd0       cvt_ieee_s_to_text         00000001400eccd0 f   libifcoremt:cvt_cvtas_s.obj
 0001:000ed1e0       cvt_text_to_ieee_s_ex      00000001400ee1e0 f   libifcoremt:cvt_cvtas_s.obj
 0001:000ed270       cvt_text_to_data           00000001400ee270 f   libifcoremt:cvt_text_to_data.obj
 0001:000ed570       cvt_text_to_data64         00000001400ee570 f   libifcoremt:cvt_text_to_data.obj
 0001:000ed860       cvt_text_to_boolean        00000001400ee860 f   libifcoremt:cvt_text_to_log.obj
 0001:000ed960       cvt_text_to_boolean64      00000001400ee960 f   libifcoremt:cvt_text_to_log.obj
 0001:000eda60       FOCUSQQ                    00000001400eea60 f   libifcoremt:for_m_qwin.obj
 0001:000edde0       INQFOCUSQQ                 00000001400eede0 f   libifcoremt:for_m_qwin.obj
 0001:000edf00       _unit2handle               00000001400eef00 f   libifcoremt:for_m_qwin.obj
 0001:000ee250       _qwunit2handle             00000001400ef250 f   libifcoremt:for_m_qwin.obj
 0001:000ee2e0       _handle2unit               00000001400ef2e0 f   libifcoremt:for_m_qwin.obj
 0001:000ee3b0       GETHANDLEQQ                00000001400ef3b0 f   libifcoremt:for_m_qwin.obj
 0001:000ee700       GETUNITQQ                  00000001400ef700 f   libifcoremt:for_m_qwin.obj
 0001:000ee7e0       GETHWNDQQ                  00000001400ef7e0 f   libifcoremt:for_m_qwin.obj
 0001:000eeb70       SETWSIZEQQ                 00000001400efb70 f   libifcoremt:for_m_qwin.obj
 0001:000eefa0       GETWSIZEQQ                 00000001400effa0 f   libifcoremt:for_m_qwin.obj
 0001:000ef450       _FQclearscreen             00000001400f0450 f   libifcoremt:for_m_qwin.obj
 0001:000ef460       _FQdisplaycursor           00000001400f0460 f   libifcoremt:for_m_qwin.obj
 0001:000ef470       _fq_outtext                00000001400f0470 f   libifcoremt:for_m_qwin.obj
 0001:000ef5a0       _FQscrolltextwindow        00000001400f05a0 f   libifcoremt:for_m_qwin.obj
 0001:000ef5b0       _fq_gettextposition        00000001400f05b0 f   libifcoremt:for_m_qwin.obj
 0001:000ef5c0       _fq_settextposition        00000001400f05c0 f   libifcoremt:for_m_qwin.obj
 0001:000ef5d0       for__preconnected_units_create 00000001400f05d0 f   libifcoremt:for_preconnected_units_init.obj
 0001:000ef8a0       for__default_io_sizes_env_init 00000001400f08a0 f   libifcoremt:for_default_io_sizes_env_init.obj
 0001:000efb10       cvtas_x_to_a               00000001400f0b10 f   libifcoremt:cvtas_x_to_a.obj
 0001:000f5540       cvtas_a_to_x               00000001400f6540 f   libifcoremt:cvtas_a_to_x.obj
 0001:000fb4a0       cvtas_t_to_a               00000001400fc4a0 f   libifcoremt:cvtas_t_to_a.obj
 0001:00100f00       cvtas_a_to_t               0000000140101f00 f   libifcoremt:cvtas_a_to_t.obj
 0001:00103e40       cvtas_s_to_a               0000000140104e40 f   libifcoremt:cvtas_s_to_a.obj
 0001:00109700       cvtas_a_to_s               000000014010a700 f   libifcoremt:cvtas_a_to_s.obj
 0001:0010abe0       cvtas__nan_x               000000014010bbe0 f   libifcoremt:cvtas_nan_x.obj
 0001:0010acc0       cvtas__nan_t               000000014010bcc0 f   libifcoremt:cvtas_nan_t.obj
 0001:0010ad80       cvtas__nan_s               000000014010bd80 f   libifcoremt:cvtas_nan_s.obj
 0001:0010ae60       fmodf                      000000014010be60 f   libmmt:fmodf_iface_c99.obj
 0001:0010ae80       expf                       000000014010be80 f   libmmt:expf_iface_c99.obj
 0001:0010aea0       logf                       000000014010bea0 f   libmmt:logf_iface_c99.obj
 0001:0010aec0       cosf                       000000014010bec0 f   libmmt:cosf_iface_c99.obj
 0001:0010aee0       log10f                     000000014010bee0 f   libmmt:log10f_iface_c99.obj
 0001:0010af00       sinf                       000000014010bf00 f   libmmt:sinf_iface_c99.obj
 0001:0010af20       tanf                       000000014010bf20 f   libmmt:tanf_iface_c99.obj
 0001:0010af40       asinf                      000000014010bf40 f   libmmt:asinf_iface_c99.obj
 0001:0010af60       acosf                      000000014010bf60 f   libmmt:acosf_iface_c99.obj
 0001:0010af80       atan2f                     000000014010bf80 f   libmmt:atan2f_iface_c99.obj
 0001:0010afa0       fetestexcept               000000014010bfa0 f   libmmt:fetestexcept_iface_c99.obj
 0001:0010afc0       truncf                     000000014010bfc0 f   libmmt:truncf_iface_c99.obj
 0001:0010afe0       trunc                      000000014010bfe0 f   libmmt:trunc_iface_c99.obj
 0001:0010b000       lroundf                    000000014010c000 f   libmmt:lroundf_iface_c99.obj
 0001:0010b020       llroundf                   000000014010c020 f   libmmt:llroundf_iface_c99.obj
 0001:0010b040       lround                     000000014010c040 f   libmmt:lround_iface_c99.obj
 0001:0010b060       llround                    000000014010c060 f   libmmt:llround_iface_c99.obj
 0001:0010b080       __libm_fmodf               000000014010c080 f   libmmt:fmodf_iface_disp.obj
 0001:0010b140       __libm_expf                000000014010c140 f   libmmt:expf_iface_disp.obj
 0001:0010b1f0       __libm_logf                000000014010c1f0 f   libmmt:logf_iface_disp.obj
 0001:0010b2a0       __libm_cosf                000000014010c2a0 f   libmmt:cosf_iface_disp.obj
 0001:0010b350       __libm_log10f              000000014010c350 f   libmmt:log10f_iface_disp.obj
 0001:0010b400       __libm_sinf                000000014010c400 f   libmmt:sinf_iface_disp.obj
 0001:0010b4b0       __libm_tanf                000000014010c4b0 f   libmmt:tanf_iface_disp.obj
 0001:0010b560       __libm_asinf               000000014010c560 f   libmmt:asinf_iface_disp.obj
 0001:0010b610       __libm_acosf               000000014010c610 f   libmmt:acosf_iface_disp.obj
 0001:0010b6c0       __libm_atan2f              000000014010c6c0 f   libmmt:atan2f_iface_disp.obj
 0001:0010b780       __libm_fetestexcept_ex     000000014010c780 f   libmmt:fetestexcept.obj
 0001:0010b800       __libm_truncf_ex           000000014010c800 f   libmmt:truncf.obj
 0001:0010b860       __libm_trunc               000000014010c860 f   libmmt:trunc_iface_disp.obj
 0001:0010b910       __libm_lroundf             000000014010c910 f   libmmt:lroundf_iface_disp.obj
 0001:0010b9c0       __libm_llroundf            000000014010c9c0 f   libmmt:llroundf_iface_disp.obj
 0001:0010ba70       __libm_lround              000000014010ca70 f   libmmt:lround_iface_disp.obj
 0001:0010bb20       __libm_llround             000000014010cb20 f   libmmt:llround_iface_disp.obj
 0001:0010bbd0       __libm_feature_flag_init   000000014010cbd0 f   libmmt:libm_feature_flag.obj
 0001:0010bde0       __libm_fmodf_ex            000000014010cde0 f   libmmt:fmodf_gen.obj
 0001:0010be10       __libm_fmodf_e7            000000014010ce10 f   libmmt:fmodf_ct.obj
 0001:0010bff0       __libm_expf_ex             000000014010cff0 f   libmmt:expf_gen.obj
 0001:0010c210       __libm_expf_e7             000000014010d210 f   libmmt:expf_ct.obj
 0001:0010c430       __libm_expf_l9             000000014010d430 f   libmmt:expf_avx2.obj
 0001:0010c500       __libm_logf_ex             000000014010d500 f   libmmt:logf_gen.obj
 0001:0010c700       __libm_logf_e7             000000014010d700 f   libmmt:logf_ct.obj
 0001:0010c8d0       __libm_logf_l9             000000014010d8d0 f   libmmt:logf_avx2.obj
 0001:0010c9d0       __libm_cosf_ex             000000014010d9d0 f   libmmt:cosf_gen.obj
 0001:0010cc60       __libm_cosf_e7             000000014010dc60 f   libmmt:cosf_ct.obj
 0001:0010cf00       __libm_cosf_l9             000000014010df00 f   libmmt:cosf_avx2.obj
 0001:0010d080       __libm_log10f_ex           000000014010e080 f   libmmt:log10f_gen.obj
 0001:0010d2e0       __libm_log10f_e7           000000014010e2e0 f   libmmt:log10f_ct.obj
 0001:0010d4d0       __libm_log10f_l9           000000014010e4d0 f   libmmt:log10f_avx2.obj
 0001:0010d6e0       __libm_sinf_ex             000000014010e6e0 f   libmmt:sinf_gen.obj
 0001:0010d960       __libm_sinf_e7             000000014010e960 f   libmmt:sinf_ct.obj
 0001:0010dbe0       __libm_sinf_l9             000000014010ebe0 f   libmmt:sinf_avx2.obj
 0001:0010dd60       __libm_tanf_ex             000000014010ed60 f   libmmt:tanf_gen.obj
 0001:0010dfd0       __libm_tanf_e7             000000014010efd0 f   libmmt:tanf_ct.obj
 0001:0010e440       __libm_tanf_l9             000000014010f440 f   libmmt:tanf_avx2.obj
 0001:0010e640       __libm_asinf_ex            000000014010f640 f   libmmt:asinf_gen.obj
 0001:0010e980       __libm_asinf_e7            000000014010f980 f   libmmt:asinf_ct.obj
 0001:0010eb50       __libm_asinf_l9            000000014010fb50 f   libmmt:asinf_avx2.obj
 0001:0010ee30       __libm_acosf_ex            000000014010fe30 f   libmmt:acosf_gen.obj
 0001:0010f0f0       __libm_acosf_e7            00000001401100f0 f   libmmt:acosf_ct.obj
 0001:0010f350       __libm_acosf_l9            0000000140110350 f   libmmt:acosf_avx2.obj
 0001:0010f6a0       __libm_atan2f_ex           00000001401106a0 f   libmmt:atan2f_gen.obj
 0001:0010fc10       __libm_atan2f_e7           0000000140110c10 f   libmmt:atan2f_ct.obj
 0001:00110130       __libm_atan2f_l9           0000000140111130 f   libmmt:atan2f_avx2.obj
 0001:00110460       __libm_trunc_ex            0000000140111460 f   libmmt:trunc_gen.obj
 0001:00110500       __libm_trunc_e7            0000000140111500 f   libmmt:trunc_ct.obj
 0001:00110560       __libm_trunc_y8            0000000140111560 f   libmmt:trunc_pnr.obj
 0001:00110580       __libm_lroundf_ex          0000000140111580 f   libmmt:lroundf_gen.obj
 0001:00110650       __libm_lroundf_e7          0000000140111650 f   libmmt:lroundf_ct.obj
 0001:00110750       __libm_llroundf_ex         0000000140111750 f   libmmt:llroundf_gen.obj
 0001:00110830       __libm_llroundf_e7         0000000140111830 f   libmmt:llroundf_ct.obj
 0001:00110960       __libm_lround_ex           0000000140111960 f   libmmt:lround_gen.obj
 0001:00110a70       __libm_lround_e7           0000000140111a70 f   libmmt:lround_ct.obj
 0001:00110ba0       __libm_llround_ex          0000000140111ba0 f   libmmt:llround_gen.obj
 0001:00110c80       __libm_llround_e7          0000000140111c80 f   libmmt:llround_ct.obj
 0001:00110e00       __libm_fmod                0000000140111e00 f   libmmt:fmod_iface_disp.obj
 0001:00110ec0       __libm_copy_value          0000000140111ec0 f   libmmt:libm_error.obj
 0001:001112b0       __libm_error_support       00000001401122b0 f   libmmt:libm_error.obj
 0001:00111c10       __libm_setusermatherrl     0000000140112c10 f   libmmt:libm_error.obj
 0001:00111c40       __libm_setusermatherr      0000000140112c40 f   libmmt:libm_error.obj
 0001:00111c70       __libm_setusermatherrf     0000000140112c70 f   libmmt:libm_error.obj
 0001:00111ca0       __libm_tan                 0000000140112ca0 f   libmmt:tan_iface_disp.obj
 0001:00111d50       __libm_fmod_ex             0000000140112d50 f   libmmt:fmod_gen.obj
 0001:00111f30       __libm_fmod_e7             0000000140112f30 f   libmmt:fmod_ct.obj
 0001:00112480       __libm_matherrl            0000000140113480 f   libmmt:matherrl_iface_disp.obj
 0001:001124a0       __libm_matherr             00000001401134a0 f   libmmt:matherr_iface_disp.obj
 0001:001124c0       __libm_matherrf            00000001401134c0 f   libmmt:matherrf_iface_disp.obj
 0001:001124e0       __libm_tan_ex              00000001401134e0 f   libmmt:tan_gen.obj
 0001:00112d40       __libm_tan_e7              0000000140113d40 f   libmmt:tan_ct.obj
 0001:001135c0       __libm_tan_l9              00000001401145c0 f   libmmt:tan_avx2.obj
 0001:001138b0       __libm_matherrl_ex         00000001401148b0 f   libmmt:matherrl.obj
 0001:001138d0       __libm_matherr_ex          00000001401148d0 f   libmmt:matherr.obj
 0001:001138f0       __libm_matherrf_ex         00000001401148f0 f   libmmt:matherrf.obj
 0001:00113910       __intel_new_feature_proc_init 0000000140114910 f   libirc:new_proc_init.obj
 0001:00113d20       _intel_fast_memset.A       0000000140114d20 f   libirc:fastmemset.obj
 0001:00113d30       _intel_fast_memset.J       0000000140114d30 f   libirc:fastmemset.obj
 0001:00113d40       _intel_fast_memset.V       0000000140114d40 f   libirc:fastmemset.obj
 0001:00113d50       _intel_fast_memset.Z       0000000140114d50 f   libirc:fastmemset.obj
 0001:00113d60       _intel_fast_memset.a       0000000140114d60 f   libirc:fastmemset.obj
 0001:00113d70       _intel_fast_memset         0000000140114d70 f   libirc:fastmemset.obj
 0001:00113df0       _intel_fast_memcpy.A       0000000140114df0 f   libirc:fastmemcpy.obj
 0001:00113e00       _intel_fast_memcpy.J       0000000140114e00 f   libirc:fastmemcpy.obj
 0001:00113e10       _intel_fast_memcpy.V       0000000140114e10 f   libirc:fastmemcpy.obj
 0001:00113e20       _intel_fast_memcpy.Z       0000000140114e20 f   libirc:fastmemcpy.obj
 0001:00113e30       _intel_fast_memcpy.a       0000000140114e30 f   libirc:fastmemcpy.obj
 0001:00113e40       _intel_fast_memcpy         0000000140114e40 f   libirc:fastmemcpy.obj
 0001:00113ec0       __intel_sse2_strchr        0000000140114ec0 f   libirc:sse2_strchr.obj
 0001:00113f10       __intel_sse2_strlen        0000000140114f10 f   libirc:sse2_strlen.obj
 0001:00113f40       __intel_sse2_strncmp       0000000140114f40 f   libirc:sse2_strncmp.obj
 0001:00114260       __intel_sse2_stricmp       0000000140115260 f   libirc:sse2_stricmp.obj
 0001:00114bc0       __intel_lib_wrappers_init  0000000140115bc0 f   libirc:intel_lib_vs_wrappers_init.obj
 0001:00115130       _intel_fast_memcmp         0000000140116130 f   libirc:ia32_memcmp.obj
 0001:001151c0       __qtoj                     00000001401161c0 f   libirc:q2ints.obj
 0001:00115370       __qtok                     0000000140116370 f   libirc:q2ints.obj
 0001:00115470       __qtoi                     0000000140116470 f   libirc:q2ints.obj
 0001:001155d0       __qtou                     00000001401165d0 f   libirc:q2ints.obj
 0001:001156a0       __ktoq                     00000001401166a0 f   libirc:ints2q.obj
 0001:00115740       __jtoq                     0000000140116740 f   libirc:ints2q.obj
 0001:00115800       __itoq                     0000000140116800 f   libirc:ints2q.obj
 0001:00115870       __utoq                     0000000140116870 f   libirc:ints2q.obj
 0001:001158c0       __divq.L                   00000001401168c0 f   libirc:ia32_divq.obj
 0001:001166f0       __divq.A                   00000001401176f0 f   libirc:ia32_divq.obj
 0001:00117550       __divq                     0000000140118550 f   libirc:ia32_divq.obj
 0001:00118930       __addq                     0000000140119930 f   libirc:ia32_addsubq.obj
 0001:001189b0       __subq                     00000001401199b0 f   libirc:ia32_addsubq.obj
 0001:0011a880       __eqq                      000000014011b880 f   libirc:qcomp.obj
 0001:0011a900       __neq                      000000014011b900 f   libirc:qcomp.obj
 0001:0011a980       __leq                      000000014011b980 f   libirc:qcomp.obj
 0001:0011aa70       __ltq                      000000014011ba70 f   libirc:qcomp.obj
 0001:0011ab60       __geq                      000000014011bb60 f   libirc:qcomp.obj
 0001:0011ac50       __gtq                      000000014011bc50 f   libirc:qcomp.obj
 0001:0011ad40       __compareq                 000000014011bd40 f   libirc:qcomp.obj
 0001:0011ae30       __dtoq                     000000014011be30 f   libirc:fp2q.obj
 0001:0011af10       __ltoq                     000000014011bf10 f   libirc:fp2q.obj
 0001:0011af80       __ftoq                     000000014011bf80 f   libirc:fp2q.obj
 0001:0011b030       __qtod                     000000014011c030 f   libirc:q2fp.obj
 0001:0011b320       __qtol                     000000014011c320 f   libirc:q2fp.obj
 0001:0011b540       __qtof                     000000014011c540 f   libirc:q2fp.obj
 0001:0011b7f0       __intel_sse2_strcpy        000000014011c7f0 f   libirc:sse2_strcpy.obj
 0001:0011b950       __intel_sse2_strtok        000000014011c950 f   libirc:sse2_strtok.obj
 0001:0011bec0       __intel_sse2_strcat        000000014011cec0 f   libirc:sse2_strcat.obj
 0001:0011c060       tbk_string_stack_signal    000000014011d060 f   libirc:tbk_display.obj
 0001:0011c0d0       tbk_string_stack_signal_impl 000000014011d0d0 f   libirc:tbk_display.obj
 0001:0011ce20       __intel_cpu_features_init_x 000000014011de20 f   libirc:cpu_feature_disp.obj
 0001:0011ce40       __intel_cpu_features_init  000000014011de40 f   libirc:cpu_feature_disp.obj
 0001:0011d2a0       __libirc_get_msg           000000014011e2a0 f   libirc:irc_msg_support.obj
 0001:0011d4e0       __libirc_print             000000014011e4e0 f   libirc:irc_msg_support.obj
 0001:0011d7f0       __intel_proc_init_ftzdazule 000000014011e7f0 f   libirc:proc_init_utils.obj
 0001:0011d920       __intel_memset             000000014011e920 f   libirc:fast_memset.obj
 0001:0011d920       __intel_new_memset         000000014011e920 f   libirc:fast_memset.obj
 0001:0011e320       __intel_avx_rep_memset     000000014011f320 f   libirc:intel_avx_rep_memset.obj
 0001:0011f380       __intel_mic_avx512f_memset 0000000140120380 f   libirc:intel_mic_avx512f_memset.obj
 0001:00120c80       __intel_memcpy             0000000140121c80 f   libirc:fast_memcpy.obj
 0001:00120c80       __intel_new_memcpy         0000000140121c80 f   libirc:fast_memcpy.obj
 0001:00121d30       __intel_avx_rep_memcpy     0000000140122d30 f   libirc:intel_avx_rep_memcpy.obj
 0001:001235c0       __intel_mic_avx512f_memcpy 00000001401245c0 f   libirc:intel_mic_avx512f_memcpy.obj
 0001:00125100       tbk_getPC                  0000000140126100 f   libirc:tbk_backtrace.obj
 0001:00125110       tbk_getRetAddr             0000000140126110 f   libirc:tbk_backtrace.obj
 0001:00125120       tbk_getFramePtr            0000000140126120 f   libirc:tbk_backtrace.obj
 0001:00125130       tbk_getSP                  0000000140126130 f   libirc:tbk_backtrace.obj
 0001:00125140       tbk_getBStore              0000000140126140 f   libirc:tbk_backtrace.obj
 0001:00125150       tbk_getModuleName          0000000140126150 f   libirc:tbk_backtrace.obj
 0001:00125280       tbk_get_pc_info            0000000140126280 f   libirc:tbk_backtrace.obj
 0001:00125860       tbk_get_pc_info_pie        0000000140126860 f   libirc:tbk_backtrace.obj
 0001:00126120       tbk_geterrorstring         0000000140127120 f   libirc:tbk_backtrace.obj
 0001:00126130       tbk_trace_stack            0000000140127130 f   libirc:tbk_backtrace.obj
 0001:00126190       tbk_trace_stack_impl       0000000140127190 f   libirc:tbk_backtrace.obj
 0001:00126a70       __cacheSize                0000000140127a70 f   libirc:fast_mem_ops.obj
 0001:00127730       _QWINGethWnd               0000000140128730 f   ifconsol:for_m_console.obj
 0001:00127750       _QWINTGethFrame            0000000140128750 f   ifconsol:for_m_console.obj
 0001:00127770       _QWINGetFocus              0000000140128770 f   ifconsol:for_m_console.obj
 0001:00127790       ChangeQWINCP               0000000140128790 f   ifconsol:for_m_console.obj
 0001:001277a0       _QWINGetFileName           00000001401287a0 f   ifconsol:for_m_console.obj
 0001:001277c0       _QWINGetTitle              00000001401287c0 f   ifconsol:for_m_console.obj
 0001:001277e0       _wgopen                    00000001401287e0 f   ifconsol:for_m_console.obj
 0001:00127800       _QWINClose                 0000000140128800 f   ifconsol:for_m_console.obj
 0001:00127820       _wgsetactive               0000000140128820 f   ifconsol:for_m_console.obj
 0001:00127840       _wggetactive               0000000140128840 f   ifconsol:for_m_console.obj
 0001:00127860       RegisterGetHandleQQ        0000000140128860 f   ifconsol:for_m_console.obj
 0001:00127870       RegisterGetUnitQQ          0000000140128870 f   ifconsol:for_m_console.obj
 0001:00127880       _QWINWrite                 0000000140128880 f   ifconsol:for_m_console.obj
 0001:001278a0       _QWINSetIOFOCUS            00000001401288a0 f   ifconsol:for_m_console.obj
 0001:001278c0       _QWINRead                  00000001401288c0 f   ifconsol:for_m_console.obj
 0001:001278e0       YIELDQQ                    00000001401288e0 f   ifconsol:for_m_console.obj
 0001:00127900       _QWINSetSize               0000000140128900 f   ifconsol:for_m_console.obj
 0001:00127920       _QWINGetSize               0000000140128920 f   ifconsol:for_m_console.obj
 0001:00127940       _QWINMsgBox                0000000140128940 f   ifconsol:for_m_console.obj
 0001:00127960       _QWINRegisterEnd           0000000140128960 f   ifconsol:for_m_console.obj
 0001:00127980       _inchar                    0000000140128980 f   ifconsol:for_m_console.obj
 0001:001279a0       _QWINSetFocus              00000001401289a0 f   ifconsol:for_m_console.obj
 0001:001279c0       _clearscreen               00000001401289c0 f   ifconsol:for_m_console.obj
 0001:001279e0       _displaycursor             00000001401289e0 f   ifconsol:for_m_console.obj
 0001:00127a00       _scrolltextwindow          0000000140128a00 f   ifconsol:for_m_console.obj
 0001:00127a20       _f_gettextposition         0000000140128a20 f   ifconsol:for_m_console.obj
 0001:00127a40       _f_outtext                 0000000140128a40 f   ifconsol:for_m_console.obj
 0001:00127a50       _f_settextposition         0000000140128a50 f   ifconsol:for_m_console.obj
 0001:00127a60       _QWINNiceExit              0000000140128a60 f   ifconsol:for_m_console.obj
 0001:00127a80       _QWINRegisterInit          0000000140128a80 f   ifconsol:for_m_console.obj
 0001:00127aa0       _QWINGetDefaultWindow      0000000140128aa0 f   ifconsol:for_m_console.obj
 0001:00127ac0       main                       0000000140128ac0 f   libifcoremt:for_main.obj
 0001:00127bd0       for__nt_handler_jacket     0000000140128bd0 f   libifcoremt:for_main.obj
 0001:00127c20       for__nt_user_handler_jacket 0000000140128c20 f   libifcoremt:for_main.obj
 0001:00127ca0       exception_dump             0000000140128ca0 f   libifcoremt:for_main.obj
 0001:00127cb0       ADDRESSOF                  0000000140128cb0 f   ARAPlib_lib:C2Fortran.obj
 0001:00127cc0       ADDRESS_EFFECT             0000000140128cc0 f   ARAPlib_lib:C2Fortran.obj
 0001:00127cd0       ADDRESS_INTEGER            0000000140128cd0 f   ARAPlib_lib:C2Fortran.obj
 0001:00127ce0       ADDRESS_INTEGERARRAY       0000000140128ce0 f   ARAPlib_lib:C2Fortran.obj
 0001:00127cf0       ADDRESS_MESSAGE            0000000140128cf0 f   ARAPlib_lib:C2Fortran.obj
 0001:00127d00       ADDRESS_PROMPT2DCOMPOUT    0000000140128d00 f   ARAPlib_lib:C2Fortran.obj
 0001:00127d10       ADDRESS_PROMPT2DCOMPOUTARRAY 0000000140128d10 f   ARAPlib_lib:C2Fortran.obj
 0001:00127d20       ADDRESS_PROMPT2DINITOUT    0000000140128d20 f   ARAPlib_lib:C2Fortran.obj
 0001:00127d30       ADDRESS_PROMPTCOMPIN       0000000140128d30 f   ARAPlib_lib:C2Fortran.obj
 0001:00127d40       ADDRESS_PROMPTCOMPOUT      0000000140128d40 f   ARAPlib_lib:C2Fortran.obj
 0001:00127d50       ADDRESS_PROMPTCOMPOUTARRAY 0000000140128d50 f   ARAPlib_lib:C2Fortran.obj
 0001:00127d60       ADDRESS_PROMPTINITIN       0000000140128d60 f   ARAPlib_lib:C2Fortran.obj
 0001:00127d70       ADDRESS_PROMPTINITOUT      0000000140128d70 f   ARAPlib_lib:C2Fortran.obj
 0001:00127d80       ADDRESS_REAL               0000000140128d80 f   ARAPlib_lib:C2Fortran.obj
 0001:00127d90       ADDRESS_REALARRAY          0000000140128d90 f   ARAPlib_lib:C2Fortran.obj
 0001:00127dc0       ADDRESS_RELEASE            0000000140128dc0 f   ARAPlib_lib:C2Fortran.obj
 0001:00127e40       ADDRESS_STRING             0000000140128e40 f   ARAPlib_lib:C2Fortran.obj
 0001:00127e50       ADDRESS_UPDATE             0000000140128e50 f   ARAPlib_lib:C2Fortran.obj
 0001:00127e60       ADDRESS_UPDATEMC           0000000140128e60 f   ARAPlib_lib:C2Fortran.obj
 0001:00127e70       EFFECT_ADDRESS             0000000140128e70 f   ARAPlib_lib:C2Fortran.obj
 0001:00127e90       INTEGERARRAY_ADDRESS       0000000140128e90 f   ARAPlib_lib:C2Fortran.obj
 0001:00127ea0       INTEGER_ADDRESS            0000000140128ea0 f   ARAPlib_lib:C2Fortran.obj
 0001:00127eb0       MESSAGE_ADDRESS            0000000140128eb0 f   ARAPlib_lib:C2Fortran.obj
 0001:00127f50       PROMPT2DCOMPOUTARRAY_ADDRESS 0000000140128f50 f   ARAPlib_lib:C2Fortran.obj
 0001:00127f60       PROMPT2DCOMPOUT_ADDRESS    0000000140128f60 f   ARAPlib_lib:C2Fortran.obj
 0001:00127f70       PROMPT2DINITOUT_ADDRESS    0000000140128f70 f   ARAPlib_lib:C2Fortran.obj
 0001:00127f80       PROMPTCOMPIN_ADDRESS       0000000140128f80 f   ARAPlib_lib:C2Fortran.obj
 0001:00127f90       PROMPTCOMPOUTARRAY_ADDRESS 0000000140128f90 f   ARAPlib_lib:C2Fortran.obj
 0001:00127fa0       PROMPTCOMPOUT_ADDRESS      0000000140128fa0 f   ARAPlib_lib:C2Fortran.obj
 0001:00127fb0       PROMPTINITIN_ADDRESS       0000000140128fb0 f   ARAPlib_lib:C2Fortran.obj
 0001:00127fc0       PROMPTINITOUT_ADDRESS      0000000140128fc0 f   ARAPlib_lib:C2Fortran.obj
 0001:00127fd0       REALARRAY_ADDRESS          0000000140128fd0 f   ARAPlib_lib:C2Fortran.obj
 0001:00128000       REAL_ADDRESS               0000000140129000 f   ARAPlib_lib:C2Fortran.obj
 0001:00128010       RELEASE_ADDRESS            0000000140129010 f   ARAPlib_lib:C2Fortran.obj
 0001:00128090       UPDATEMC_ADDRESS           0000000140129090 f   ARAPlib_lib:C2Fortran.obj
 0001:001280a0       UPDATE_ADDRESS             00000001401290a0 f   ARAPlib_lib:C2Fortran.obj
 0001:001280b0       VALUE_REFERENCE            00000001401290b0 f   ARAPlib_lib:C2Fortran.obj
 0001:001280c0       address_effect_            00000001401290c0 f   ARAPlib_lib:C2Fortran.obj
 0001:001280e0       address_integer_           00000001401290e0 f   ARAPlib_lib:C2Fortran.obj
 0001:001280f0       address_integerarray_      00000001401290f0 f   ARAPlib_lib:C2Fortran.obj
 0001:00128120       address_message_           0000000140129120 f   ARAPlib_lib:C2Fortran.obj
 0001:001281c0       address_prompt2Dcompout    00000001401291c0 f   ARAPlib_lib:C2Fortran.obj
 0001:001281e0       address_prompt2Dcompoutarray 00000001401291e0 f   ARAPlib_lib:C2Fortran.obj
 0001:00128220       address_prompt2Dinitout    0000000140129220 f   ARAPlib_lib:C2Fortran.obj
 0001:00128230       address_promptcompin_      0000000140129230 f   ARAPlib_lib:C2Fortran.obj
 0001:00128240       address_promptcompout      0000000140129240 f   ARAPlib_lib:C2Fortran.obj
 0001:001282e0       address_promptcompoutarray 00000001401292e0 f   ARAPlib_lib:C2Fortran.obj
 0001:001283b0       address_promptinitin_      00000001401293b0 f   ARAPlib_lib:C2Fortran.obj
 0001:00128450       address_promptinitout      0000000140129450 f   ARAPlib_lib:C2Fortran.obj
 0001:00128490       address_string_            0000000140129490 f   ARAPlib_lib:C2Fortran.obj
 0001:001284c0       address_update_            00000001401294c0 f   ARAPlib_lib:C2Fortran.obj
 0001:00128540       address_updatemc_          0000000140129540 f   ARAPlib_lib:C2Fortran.obj
 0001:001285c0       addressof_                 00000001401295c0 f   ARAPlib_lib:C2Fortran.obj
 0001:001285d0       integerarray_address_      00000001401295d0 f   ARAPlib_lib:C2Fortran.obj
 0001:00128600       prompt2Dcompout_address    0000000140129600 f   ARAPlib_lib:C2Fortran.obj
 0001:00128620       prompt2Dcompoutarray_address_ 0000000140129620 f   ARAPlib_lib:C2Fortran.obj
 0001:00128660       prompt2Dinitout_address_   0000000140129660 f   ARAPlib_lib:C2Fortran.obj
 0001:00128670       prompt2dcompoutarray_address_ 0000000140129670 f   ARAPlib_lib:C2Fortran.obj
 0001:001286b0       prompt2dinitout_address_   00000001401296b0 f   ARAPlib_lib:C2Fortran.obj
 0001:001286c0       promptcompin_address       00000001401296c0 f   ARAPlib_lib:C2Fortran.obj
 0001:001286d0       promptcompout_address      00000001401296d0 f   ARAPlib_lib:C2Fortran.obj
 0001:00128770       promptcompoutarray_address_ 0000000140129770 f   ARAPlib_lib:C2Fortran.obj
 0001:00128840       promptinitin_address       0000000140129840 f   ARAPlib_lib:C2Fortran.obj
 0001:001288e0       promptinitout_address_     00000001401298e0 f   ARAPlib_lib:C2Fortran.obj
 0001:00128920       update_address_            0000000140129920 f   ARAPlib_lib:C2Fortran.obj
 0001:001289a0       updatemc_address_          00000001401299a0 f   ARAPlib_lib:C2Fortran.obj
 0001:00128a20       value_reference_           0000000140129a20 f   ARAPlib_lib:C2Fortran.obj
 0001:00128a24       SCIPINITERROR              0000000140129a24 f   SCIPtool:SCIPtool.dll
 0001:00128a2a       SCIPGETLASTERROR           0000000140129a2a f   SCIPtool:SCIPtool.dll
 0001:00128a30       SCIPINITTOOL               0000000140129a30 f   SCIPtool:SCIPtool.dll
 0001:00128a36       SCIPSIZEPROJECTMC          0000000140129a36 f   SCIPtool:SCIPtool.dll
 0001:00128a3c       SCIPEXITTOOL               0000000140129a3c f   SCIPtool:SCIPtool.dll
 0001:00128a42       SCIPDEFAULTINPF            0000000140129a42 f   SCIPtool:SCIPtool.dll
 0001:00128a48       SCIPLOADINPF               0000000140129a48 f   SCIPtool:SCIPtool.dll
 0001:00128a4e       SCIPDEFAULTWEATHERF        0000000140129a4e f   SCIPtool:SCIPtool.dll
 0001:00128a54       SCIPLOADWEATHERF           0000000140129a54 f   SCIPtool:SCIPtool.dll
 0001:00128a5a       SCIPNEWPROJECTMC           0000000140129a5a f   SCIPtool:SCIPtool.dll
 0001:00128a60       SCIPRUNPROJECT             0000000140129a60 f   SCIPtool:SCIPtool.dll
 0001:00128a66       SCIPLOADRELEASEMCF         0000000140129a66 f   SCIPtool:SCIPtool.dll
 0001:00128a6c       SCIPWRITERELEASEMCF        0000000140129a6c f   SCIPtool:SCIPtool.dll
 0001:00128a72       SCIPCHECKBUTTONS           0000000140129a72 f   SCIPtool:SCIPtool.dll
 0001:00128a78       SCIPNEWPROJECT             0000000140129a78 f   SCIPtool:SCIPtool.dll
 0001:00128a7e       SCIPDEFAULTMATERIALF       0000000140129a7e f   SCIPtool:SCIPtool.dll
 0001:00128a84       DtmsExtendedZone           0000000140129a84 f   SWIM:SWIM.dll
 0001:00128a8a       DtmsUTMfromLLAdomain       0000000140129a8a f   SWIM:SWIM.dll
 0001:00128a90       DtmsInitDatums             0000000140129a90 f   SWIM:SWIM.dll
 0001:00128a96       ADDNULL                    0000000140129a96 f   SYStool:SYStool.dll
 0001:00128a9c       SPLITNAME                  0000000140129a9c f   SYStool:SYStool.dll
 0001:00128aa2       ADDPATH                    0000000140129aa2 f   SYStool:SYStool.dll
 0001:00128aa8       STRIPNULL                  0000000140129aa8 f   SYStool:SYStool.dll
 0001:00128aae       SYSGETPROFILESTRING        0000000140129aae f   SYStool:SYStool.dll
 0001:00128ab4       SYSGETPROFILEINT           0000000140129ab4 f   SYStool:SYStool.dll
 0001:00128aba       SYSDELETEFILE              0000000140129aba f   SYStool:SYStool.dll
 0001:00128ac0       SYSNUMARGS                 0000000140129ac0 f   SYStool:SYStool.dll
 0001:00128ac6       SYSGETARG                  0000000140129ac6 f   SYStool:SYStool.dll
 0001:00128acc       SYSCHECKFILE               0000000140129acc f   SYStool:SYStool.dll
 0001:00128ad2       ADDEXTENSION               0000000140129ad2 f   SYStool:SYStool.dll
 0001:00128ad8       SYSCOPYFILE                0000000140129ad8 f   SYStool:SYStool.dll
 0001:00128ade       __kmpc_begin               0000000140129ade f   libiomp5md:libiomp5md.dll
 0001:00128ae4       kmp_aligned_malloc         0000000140129ae4 f   libiomp5md:libiomp5md.dll
 0001:00128aea       kmp_free                   0000000140129aea f   libiomp5md:libiomp5md.dll
 0001:00128af0       _fpmath                    0000000140129af0 f   LIBCMT:fpinit.obj
 0001:00128af8       __setfflag                 0000000140129af8 f   LIBCMT:fpinit.obj
 0001:00128b08       _cfltcvt_init              0000000140129b08 f   LIBCMT:fpinit.obj
 0001:00128ba0       _alloca_probe              0000000140129ba0 f   LIBCMT:chkstk.obj
 0001:00128ba0       __chkstk                   0000000140129ba0 f   LIBCMT:chkstk.obj
 0001:00128c00       memmove                    0000000140129c00 f   LIBCMT:memcpy.obj
 0001:00128c00       memcpy                     0000000140129c00 f   LIBCMT:memcpy.obj
 0001:00129360       mainCRTStartup             000000014012a360 f   LIBCMT:crt0.obj
 0001:00129390       __security_check_cookie    000000014012a390 f   LIBCMT:amdsecgs.obj
 0001:001293b0       __GSHandlerCheck           000000014012a3b0 f   LIBCMT:gshandler.obj
 0001:001293d0       __GSHandlerCheckCommon     000000014012a3d0 f   LIBCMT:gshandler.obj
 0001:00129434       strstr                     000000014012a434 f   LIBCMT:strstr.obj
 0001:00129614       ??0_LocaleUpdate@@QEAA@PEAUlocaleinfo_struct@@@Z 000000014012a614 f i LIBCMT:toupper.obj
 0001:001296bc       ??1_LocaleUpdate@@QEAA@XZ  000000014012a6bc f i LIBCMT:toupper.obj
 0001:001296d0       ?GetLocaleT@_LocaleUpdate@@QEAAPEAUlocaleinfo_struct@@XZ 000000014012a6d0 f i LIBCMT:toupper.obj
 0001:001296d4       _toupper                   000000014012a6d4 f   LIBCMT:toupper.obj
 0001:001296d8       _toupper_l                 000000014012a6d8 f   LIBCMT:toupper.obj
 0001:00129828       toupper                    000000014012a828 f   LIBCMT:toupper.obj
 0001:00129860       strncpy                    000000014012a860 f   LIBCMT:strncpy.obj
 0001:001299c4       _heap_alloc                000000014012a9c4 f i LIBCMT:malloc.obj
 0001:00129a14       malloc                     000000014012aa14 f   LIBCMT:malloc.obj
 0001:00129acc       realloc                    000000014012aacc f   LIBCMT:realloc.obj
 0001:00129ba0       free                       000000014012aba0 f   LIBCMT:free.obj
 0001:00129be0       _aligned_free              000000014012abe0 f   LIBCMT:align.obj
 0001:00129bfc       _aligned_malloc            000000014012abfc f   LIBCMT:align.obj
 0001:00129c70       _aligned_msize             000000014012ac70 f   LIBCMT:align.obj
 0001:00129cd8       _aligned_offset_malloc     000000014012acd8 f   LIBCMT:align.obj
 0001:00129d8c       _aligned_offset_realloc    000000014012ad8c f   LIBCMT:align.obj
 0001:00129f58       _aligned_offset_recalloc   000000014012af58 f   LIBCMT:align.obj
 0001:00129ffc       _aligned_realloc           000000014012affc f   LIBCMT:align.obj
 0001:0012a004       _aligned_recalloc          000000014012b004 f   LIBCMT:align.obj
 0001:0012a018       __fpecode                  000000014012b018 f   LIBCMT:winsig.obj
 0001:0012a02c       __get_sigabrt              000000014012b02c f   LIBCMT:winsig.obj
 0001:0012a03c       __pxcptinfoptrs            000000014012b03c f   LIBCMT:winsig.obj
 0001:0012a050       _initp_misc_winsig         000000014012b050 f   LIBCMT:winsig.obj
 0001:0012a104       raise                      000000014012b104 f   LIBCMT:winsig.obj
 0001:0012a374       signal                     000000014012b374 f   LIBCMT:winsig.obj
 0001:0012a600       __onexitinit               000000014012b600 f   LIBCMT:onexit.obj
 0001:0012a644       _onexit                    000000014012b644 f   LIBCMT:onexit.obj
 0001:0012a844       atexit                     000000014012b844 f   LIBCMT:onexit.obj
 0001:0012a85c       _beginthread               000000014012b85c f   LIBCMT:thread.obj
 0001:0012a97c       _endthread                 000000014012b97c f   LIBCMT:thread.obj
 0001:0012aa24       __inittime                 000000014012ba24 f   LIBCMT:clock.obj
 0001:0012aa50       clock                      000000014012ba50 f   LIBCMT:clock.obj
 0001:0012aa90       __copy_path_to_wide_string 000000014012ba90 f   LIBCMT:crt0dat.obj
 0001:0012ab90       __copy_to_char             000000014012bb90 f   LIBCMT:crt0dat.obj
 0001:0012aca8       __crtCorExitProcess        000000014012bca8 f   LIBCMT:crt0dat.obj
 0001:0012acec       __crtExitProcess           000000014012bcec f   LIBCMT:crt0dat.obj
 0001:0012ad04       __freeCrtMemory            000000014012bd04 f   LIBCMT:crt0dat.obj
 0001:0012ae4c       _amsg_exit                 000000014012be4c f   LIBCMT:crt0dat.obj
 0001:0012ae74       _c_exit                    000000014012be74 f   LIBCMT:crt0dat.obj
 0001:0012ae84       _cexit                     000000014012be84 f   LIBCMT:crt0dat.obj
 0001:0012ae94       _cinit                     000000014012be94 f   LIBCMT:crt0dat.obj
 0001:0012af2c       _exit                      000000014012bf2c f   LIBCMT:crt0dat.obj
 0001:0012af38       _exit_app                  000000014012bf38 f   LIBCMT:crt0dat.obj
 0001:0012af44       _get_pgmptr                000000014012bf44 f   LIBCMT:crt0dat.obj
 0001:0012af7c       _get_wpgmptr               000000014012bf7c f   LIBCMT:crt0dat.obj
 0001:0012afb4       _init_pointers             000000014012bfb4 f   LIBCMT:crt0dat.obj
 0001:0012b060       _initterm_e                000000014012c060 f   LIBCMT:crt0dat.obj
 0001:0012b09c       _lockexit                  000000014012c09c f   LIBCMT:crt0dat.obj
 0001:0012b0a8       _unlockexit                000000014012c0a8 f   LIBCMT:crt0dat.obj
 0001:0012b24c       exit                       000000014012c24c f   LIBCMT:crt0dat.obj
 0001:0012b258       _set_abort_behavior        000000014012c258 f   LIBCMT:abort.obj
 0001:0012b274       abort                      000000014012c274 f   LIBCMT:abort.obj
 0001:0012b2cc       _get_sys_err_msg           000000014012c2cc f i LIBCMT:strerror.obj
 0001:0012b300       _invoke_watson_if_error    000000014012c300 f i LIBCMT:strerror.obj
 0001:0012b334       strerror                   000000014012c334 f   LIBCMT:strerror.obj
 0001:0012b3d0       strerror_s                 000000014012c3d0 f   LIBCMT:strerror.obj
 0001:0012b460       _atoi64                    000000014012c460 f   LIBCMT:atox.obj
 0001:0012b46c       _atoi64_l                  000000014012c46c f   LIBCMT:atox.obj
 0001:0012b47c       _atoi_l                    000000014012c47c f   LIBCMT:atox.obj
 0001:0012b48c       _atol_l                    000000014012c48c f   LIBCMT:atox.obj
 0001:0012b49c       _atoll_l                   000000014012c49c f   LIBCMT:atox.obj
 0001:0012b4ac       atoi                       000000014012c4ac f   LIBCMT:atox.obj
 0001:0012b4b8       atol                       000000014012c4b8 f   LIBCMT:atox.obj
 0001:0012b4c4       atoll                      000000014012c4c4 f   LIBCMT:atox.obj
 0001:0012b4d0       __lock_fhandle             000000014012c4d0 f   LIBCMT:osfinfo.obj
 0001:0012b568       _alloc_osfhnd              000000014012c568 f   LIBCMT:osfinfo.obj
 0001:0012b760       _free_osfhnd               000000014012c760 f   LIBCMT:osfinfo.obj
 0001:0012b80c       _get_osfhandle             000000014012c80c f   LIBCMT:osfinfo.obj
 0001:0012b880       _open_osfhandle            000000014012c880 f   LIBCMT:osfinfo.obj
 0001:0012b97c       _set_osfhnd                000000014012c97c f   LIBCMT:osfinfo.obj
 0001:0012ba2c       _unlock_fhandle            000000014012ca2c f   LIBCMT:osfinfo.obj
 0001:0012ba58       _fileno                    000000014012ca58 f   LIBCMT:fileno.obj
 0001:0012ba80       _access                    000000014012ca80 f   LIBCMT:access.obj
 0001:0012ba94       _access_s                  000000014012ca94 f   LIBCMT:access.obj
 0001:0012baec       __doserrno                 000000014012caec f   LIBCMT:dosmap.obj
 0001:0012bb0c       _dosmaperr                 000000014012cb0c f   LIBCMT:dosmap.obj
 0001:0012bb5c       _errno                     000000014012cb5c f   LIBCMT:dosmap.obj
 0001:0012bb7c       _get_doserrno              000000014012cb7c f   LIBCMT:dosmap.obj
 0001:0012bbb8       _get_errno                 000000014012cbb8 f   LIBCMT:dosmap.obj
 0001:0012bbf4       _get_errno_from_oserr      000000014012cbf4 f   LIBCMT:dosmap.obj
 0001:0012bc44       _set_doserrno              000000014012cc44 f   LIBCMT:dosmap.obj
 0001:0012bc80       _set_errno                 000000014012cc80 f   LIBCMT:dosmap.obj
 0001:0012bcbc       _tolower                   000000014012ccbc f   LIBCMT:tolower.obj
 0001:0012bcc0       _tolower_l                 000000014012ccc0 f   LIBCMT:tolower.obj
 0001:0012be14       tolower                    000000014012ce14 f   LIBCMT:tolower.obj
 0001:0012be34       __isascii                  000000014012ce34 f i LIBCMT:_ctype.obj
 0001:0012be40       __iscsym                   000000014012ce40 f i LIBCMT:_ctype.obj
 0001:0012be68       __iscsymf                  000000014012ce68 f i LIBCMT:_ctype.obj
 0001:0012be90       __toascii                  000000014012ce90 f i LIBCMT:_ctype.obj
 0001:0012be98       _isalnum_l                 000000014012ce98 f i LIBCMT:_ctype.obj
 0001:0012befc       _isalpha_l                 000000014012cefc f i LIBCMT:_ctype.obj
 0001:0012bf60       _isblank_l                 000000014012cf60 f i LIBCMT:_ctype.obj
 0001:0012bfd0       _iscntrl_l                 000000014012cfd0 f i LIBCMT:_ctype.obj
 0001:0012c030       _iscsym_l                  000000014012d030 f i LIBCMT:_ctype.obj
 0001:0012c0a4       _iscsymf_l                 000000014012d0a4 f i LIBCMT:_ctype.obj
 0001:0012c118       _isdigit_l                 000000014012d118 f i LIBCMT:_ctype.obj
 0001:0012c178       _isgraph_l                 000000014012d178 f i LIBCMT:_ctype.obj
 0001:0012c1dc       _islower_l                 000000014012d1dc f i LIBCMT:_ctype.obj
 0001:0012c23c       _isprint_l                 000000014012d23c f i LIBCMT:_ctype.obj
 0001:0012c2a0       _ispunct_l                 000000014012d2a0 f i LIBCMT:_ctype.obj
 0001:0012c300       _isspace_l                 000000014012d300 f i LIBCMT:_ctype.obj
 0001:0012c360       _isupper_l                 000000014012d360 f i LIBCMT:_ctype.obj
 0001:0012c3c0       _isxdigit_l                000000014012d3c0 f i LIBCMT:_ctype.obj
 0001:0012c424       isalnum                    000000014012d424 f i LIBCMT:_ctype.obj
 0001:0012c4a4       isalpha                    000000014012d4a4 f i LIBCMT:_ctype.obj
 0001:0012c524       isblank                    000000014012d524 f i LIBCMT:_ctype.obj
 0001:0012c554       iscntrl                    000000014012d554 f i LIBCMT:_ctype.obj
 0001:0012c5d0       isdigit                    000000014012d5d0 f i LIBCMT:_ctype.obj
 0001:0012c64c       isgraph                    000000014012d64c f i LIBCMT:_ctype.obj
 0001:0012c6cc       islower                    000000014012d6cc f i LIBCMT:_ctype.obj
 0001:0012c748       isprint                    000000014012d748 f i LIBCMT:_ctype.obj
 0001:0012c7c8       ispunct                    000000014012d7c8 f i LIBCMT:_ctype.obj
 0001:0012c844       isspace                    000000014012d844 f i LIBCMT:_ctype.obj
 0001:0012c8c0       isupper                    000000014012d8c0 f i LIBCMT:_ctype.obj
 0001:0012c93c       isxdigit                   000000014012d93c f i LIBCMT:_ctype.obj
 0001:0012c9bc       rand                       000000014012d9bc f   LIBCMT:rand.obj
 0001:0012c9e8       srand                      000000014012d9e8 f   LIBCMT:rand.obj
 0001:0012ca00       _getpid                    000000014012da00 f   LIBCMT:getpid.obj
 0001:0012ca08       _write                     000000014012da08 f   LIBCMT:write.obj
 0001:0012caec       _write_nolock              000000014012daec f   LIBCMT:write.obj
 0001:0012d2e0       _controlfp_s               000000014012e2e0 f   LIBCMT:contrlfp.obj
 0001:0012d344       _dupenv_s                  000000014012e344 f   LIBCMT:getenv.obj
 0001:0012d51c       _getenv_helper_nolock      000000014012e51c f   LIBCMT:getenv.obj
 0001:0012d684       getenv                     000000014012e684 f   LIBCMT:getenv.obj
 0001:0012d6f0       getenv_s                   000000014012e6f0 f   LIBCMT:getenv.obj
 0001:0012d8c4       _clearfp                   000000014012e8c4 f   LIBCMT:ieee.obj
 0001:0012d914       _control87                 000000014012e914 f i LIBCMT:ieee.obj
 0001:0012dba4       _controlfp                 000000014012eba4 f   LIBCMT:ieee.obj
 0001:0012dbb0       _fpreset                   000000014012ebb0 f   LIBCMT:ieee.obj
 0001:0012dc58       _set_controlfp             000000014012ec58 f   LIBCMT:ieee.obj
 0001:0012dc8c       _statusfp                  000000014012ec8c f   LIBCMT:ieee.obj
 0001:0012dcd0       fputs                      000000014012ecd0 f   LIBCMT:fputs.obj
 0001:0012ddfc       ?strrchr@@YAPEADPEADH@Z    000000014012edfc f i LIBCMT:cvt.obj
 0001:0012de04       _cfltcvt                   000000014012ee04 f   LIBCMT:cvt.obj
 0001:0012de28       _cfltcvt_l                 000000014012ee28 f   LIBCMT:cvt.obj
 0001:0012dea8       _cftoa                     000000014012eea8 f   LIBCMT:cvt.obj
 0001:0012dec4       _cftoa_l                   000000014012eec4 f   LIBCMT:cvt.obj
 0001:0012e274       _cftoe                     000000014012f274 f   LIBCMT:cvt.obj
 0001:0012e48c       _cftoe_l                   000000014012f48c f   LIBCMT:cvt.obj
 0001:0012e584       _cftof                     000000014012f584 f   LIBCMT:cvt.obj
 0001:0012e6fc       _cftof_l                   000000014012f6fc f   LIBCMT:cvt.obj
 0001:0012e7d0       _cftog                     000000014012f7d0 f   LIBCMT:cvt.obj
 0001:0012e7ec       _cftog_l                   000000014012f7ec f   LIBCMT:cvt.obj
 0001:0012e920       _cropzeros                 000000014012f920 f   LIBCMT:cvt.obj
 0001:0012e928       _cropzeros_l               000000014012f928 f   LIBCMT:cvt.obj
 0001:0012e9c0       _fassign                   000000014012f9c0 f   LIBCMT:cvt.obj
 0001:0012e9c8       _fassign_l                 000000014012f9c8 f   LIBCMT:cvt.obj
 0001:0012ea08       _forcdecpt                 000000014012fa08 f   LIBCMT:cvt.obj
 0001:0012ea10       _forcdecpt_l               000000014012fa10 f   LIBCMT:cvt.obj
 0001:0012ea90       _positive                  000000014012fa90 f   LIBCMT:cvt.obj
 0001:0012ead8       _initp_misc_cfltcvt_tab    000000014012fad8 f   LIBCMT:cmiscdat.obj
 0001:0012eb14       __isa_available_init       000000014012fb14 f   LIBCMT:cpu_disp.obj
 0001:0012ecb8       ?__CxxUnhandledExceptionFilter@@YAJPEAU_EXCEPTION_POINTERS@@@Z 000000014012fcb8 f   LIBCMT:unhandld.obj
 0001:0012ecf0       __CxxSetUnhandledExceptionFilter 000000014012fcf0 f   LIBCMT:unhandld.obj
 0001:0012ed08       _XcptFilter                000000014012fd08 f   LIBCMT:winxfltr.obj
 0001:0012eed4       __CppXcptFilter            000000014012fed4 f   LIBCMT:winxfltr.obj
 0001:0012ef18       __get_flsindex             000000014012ff18 f   LIBCMT:tidtable.obj
 0001:0012ef20       __threadhandle             000000014012ff20 f   LIBCMT:tidtable.obj
 0001:0012ef28       __threadid                 000000014012ff28 f   LIBCMT:tidtable.obj
 0001:0012ef30       _freefls                   000000014012ff30 f   LIBCMT:tidtable.obj
 0001:0012f064       _freeptd                   0000000140130064 f   LIBCMT:tidtable.obj
 0001:0012f0a0       _getptd                    00000001401300a0 f   LIBCMT:tidtable.obj
 0001:0012f0c4       _getptd_noexit             00000001401300c4 f   LIBCMT:tidtable.obj
 0001:0012f148       _initptd                   0000000140130148 f   LIBCMT:tidtable.obj
 0001:0012f20c       _mtinit                    000000014013020c f   LIBCMT:tidtable.obj
 0001:0012f28c       _mtterm                    000000014013028c f   LIBCMT:tidtable.obj
 0001:0012f2b0       _get_heap_handle           00000001401302b0 f   LIBCMT:heapinit.obj
 0001:0012f2b8       _heap_init                 00000001401302b8 f   LIBCMT:heapinit.obj
 0001:0012f2d8       _heap_term                 00000001401302d8 f   LIBCMT:heapinit.obj
 0001:0012f2e4       _ioinit                    00000001401302e4 f   LIBCMT:ioinit.obj
 0001:0012f614       _ioterm                    0000000140130614 f   LIBCMT:ioinit.obj
 0001:0012f688       _set_pgmptr                0000000140130688 f i LIBCMT:stdargv.obj
 0001:0012f690       _setargv                   0000000140130690 f   LIBCMT:stdargv.obj
 0001:0012f94c       _setenvp                   000000014013094c f   LIBCMT:stdenvp.obj
 0001:0012fa80       _FF_MSGBANNER              0000000140130a80 f   LIBCMT:crt0msg.obj
 0001:0012fac4       _GET_RTERRMSG              0000000140130ac4 f   LIBCMT:crt0msg.obj
 0001:0012faf4       _NMSG_WRITE                0000000140130af4 f   LIBCMT:crt0msg.obj
 0001:0012fd64       __set_app_type             0000000140130d64 f   LIBCMT:errmode.obj
 0001:0012fd6c       _set_error_mode            0000000140130d6c f   LIBCMT:errmode.obj
 0001:0012fdac       __security_init_cookie     0000000140130dac f   LIBCMT:gs_support.obj
 0001:0012fe58       _RTC_Initialize            0000000140130e58 f   LIBCMT:initsect.obj
 0001:0012fe90       _RTC_Terminate             0000000140130e90 f   LIBCMT:initsect.obj
 0001:0012fec8       __crtGetEnvironmentStringsA 0000000140130ec8 f   LIBCMT:a_env.obj
 0001:0012ffbc       __C_specific_handler       0000000140130fbc f   LIBCMT:chandler.obj
 0001:001301a0       __raise_securityfailure    00000001401311a0 f   LIBCMT:gs_report.obj
 0001:001301ec       __report_gsfailure         00000001401311ec f   LIBCMT:gs_report.obj
 0001:001302c0       __report_rangecheckfailure 00000001401312c0 f   LIBCMT:gs_report.obj
 0001:001302d4       __report_securityfailure   00000001401312d4 f   LIBCMT:gs_report.obj
 0001:00130370       __report_securityfailureEx 0000000140131370 f   LIBCMT:gs_report.obj
 0001:00130480       __addlocaleref             0000000140131480 f   LIBCMT:localref.obj
 0001:0013050c       __freetlocinfo             000000014013150c f   LIBCMT:localref.obj
 0001:001306a4       __removelocaleref          00000001401316a4 f   LIBCMT:localref.obj
 0001:00130748       __updatetlocinfo           0000000140131748 f   LIBCMT:localref.obj
 0001:001307c0       _updatetlocinfoEx_nolock   00000001401317c0 f   LIBCMT:localref.obj
 0001:00130824       __initmbctable             0000000140131824 f   LIBCMT:mbctype.obj
 0001:00130b7c       __updatetmbcinfo           0000000140131b7c f   LIBCMT:mbctype.obj
 0001:00130c38       _getmbcp                   0000000140131c38 f   LIBCMT:mbctype.obj
 0001:00130c74       _setmbcp                   0000000140131c74 f   LIBCMT:mbctype.obj
 0001:00130eb8       _setmbcp_nolock            0000000140131eb8 f   LIBCMT:mbctype.obj
 0001:00131168       _isctype                   0000000140132168 f   LIBCMT:isctype.obj
 0001:0013118c       _isctype_l                 000000014013218c f   LIBCMT:isctype.obj
 0001:00131268       __iswcsym                  0000000140132268 f i LIBCMT:_wctype.obj
 0001:00131294       __iswcsymf                 0000000140132294 f i LIBCMT:_wctype.obj
 0001:001312c0       _isleadbyte_l              00000001401322c0 f i LIBCMT:_wctype.obj
 0001:00131304       _iswalnum_l                0000000140132304 f i LIBCMT:_wctype.obj
 0001:00131310       _iswalpha_l                0000000140132310 f i LIBCMT:_wctype.obj
 0001:0013131c       _iswblank_l                000000014013231c f i LIBCMT:_wctype.obj
 0001:00131334       _iswcntrl_l                0000000140132334 f i LIBCMT:_wctype.obj
 0001:00131340       _iswcsym_l                 0000000140132340 f i LIBCMT:_wctype.obj
 0001:0013136c       _iswcsymf_l                000000014013236c f i LIBCMT:_wctype.obj
 0001:00131398       _iswdigit_l                0000000140132398 f i LIBCMT:_wctype.obj
 0001:001313a4       _iswgraph_l                00000001401323a4 f i LIBCMT:_wctype.obj
 0001:001313b0       _iswlower_l                00000001401323b0 f i LIBCMT:_wctype.obj
 0001:001313bc       _iswprint_l                00000001401323bc f i LIBCMT:_wctype.obj
 0001:001313c8       _iswpunct_l                00000001401323c8 f i LIBCMT:_wctype.obj
 0001:001313d4       _iswspace_l                00000001401323d4 f i LIBCMT:_wctype.obj
 0001:001313e0       _iswupper_l                00000001401323e0 f i LIBCMT:_wctype.obj
 0001:001313ec       _iswxdigit_l               00000001401323ec f i LIBCMT:_wctype.obj
 0001:001313f8       isleadbyte                 00000001401323f8 f i LIBCMT:_wctype.obj
 0001:00131440       iswalnum                   0000000140132440 f i LIBCMT:_wctype.obj
 0001:0013144c       iswalpha                   000000014013244c f i LIBCMT:_wctype.obj
 0001:00131458       iswascii                   0000000140132458 f i LIBCMT:_wctype.obj
 0001:00131468       iswblank                   0000000140132468 f i LIBCMT:_wctype.obj
 0001:00131480       iswcntrl                   0000000140132480 f i LIBCMT:_wctype.obj
 0001:0013148c       iswdigit                   000000014013248c f i LIBCMT:_wctype.obj
 0001:00131498       iswgraph                   0000000140132498 f i LIBCMT:_wctype.obj
 0001:001314a4       iswlower                   00000001401324a4 f i LIBCMT:_wctype.obj
 0001:001314b0       iswprint                   00000001401324b0 f i LIBCMT:_wctype.obj
 0001:001314bc       iswpunct                   00000001401324bc f i LIBCMT:_wctype.obj
 0001:001314c8       iswspace                   00000001401324c8 f i LIBCMT:_wctype.obj
 0001:001314d4       iswupper                   00000001401324d4 f i LIBCMT:_wctype.obj
 0001:001314e0       iswxdigit                  00000001401324e0 f i LIBCMT:_wctype.obj
 0001:001317f4       _MallocaIsSizeInRange      00000001401327f4 f i LIBCMT:a_map.obj
 0001:00131804       _MarkAllocaS               0000000140132804 f i LIBCMT:a_map.obj
 0001:00131814       __crtLCMapStringA          0000000140132814 f   LIBCMT:a_map.obj
 0001:001318ac       _freea                     00000001401328ac f i LIBCMT:a_map.obj
 0001:001318cc       __init_dummy               00000001401328cc f   LIBCMT:wsetloca.obj
 0001:001318d0       _locterm                   00000001401328d0 f   LIBCMT:wsetloca.obj
 0001:00131918       ___setlc_active_func       0000000140132918 f   LIBCMT:wsetloca.obj
 0001:00131920       ___unguarded_readlc_active_add_func 0000000140132920 f   LIBCMT:wsetloca.obj
 0001:00131928       __copy_locale_name         0000000140132928 f   LIBCMT:wsetloca.obj
 0001:001319ac       __create_locale            00000001401329ac f   LIBCMT:wsetloca.obj
 0001:001319b4       __free_locale              00000001401329b4 f   LIBCMT:wsetloca.obj
 0001:001319bc       __get_current_locale       00000001401329bc f   LIBCMT:wsetloca.obj
 0001:001319c4       __lc_lctowcs               00000001401329c4 f   LIBCMT:wsetloca.obj
 0001:00131a68       __lc_wcstolc               0000000140132a68 f   LIBCMT:wsetloca.obj
 0001:00131c20       _configthreadlocale        0000000140132c20 f   LIBCMT:wsetloca.obj
 0001:00131d48       _create_locale             0000000140132d48 f   LIBCMT:wsetloca.obj
 0001:00131dc0       _expandlocale              0000000140132dc0 f   LIBCMT:wsetloca.obj
 0001:00132194       _free_locale               0000000140133194 f   LIBCMT:wsetloca.obj
 0001:00132230       _get_current_locale        0000000140133230 f   LIBCMT:wsetloca.obj
 0001:001322cc       _wcreate_locale            00000001401332cc f   LIBCMT:wsetloca.obj
 0001:001323cc       _wcscats                   00000001401333cc f   LIBCMT:wsetloca.obj
 0001:00132434       _wsetlocale                0000000140133434 f   LIBCMT:wsetloca.obj
 0001:00132d50       ?_query_new_handler@@YAP6AH_K@ZXZ 0000000140133d50 f   LIBCMT:handler.obj
 0001:00132d60       ?_set_new_handler@@YAP6AH_K@ZH@Z 0000000140133d60 f   LIBCMT:handler.obj
 0001:00132d68       ?_set_new_handler@@YAP6AH_K@ZP6AH0@Z@Z 0000000140133d68 f   LIBCMT:handler.obj
 0001:00132db8       _callnewh                  0000000140133db8 f   LIBCMT:handler.obj
 0001:00132dec       _initp_heap_handler        0000000140133dec f   LIBCMT:handler.obj
 0001:00132df4       ?_invalid_parameter@@YAXPEBG00I_K@Z 0000000140133df4 f   LIBCMT:invarg.obj
 0001:00132dfc       ?_invoke_watson@@YAXPEBG00I_K@Z 0000000140133dfc f   LIBCMT:invarg.obj
 0001:00132e10       _call_reportfault          0000000140133e10 f   LIBCMT:invarg.obj
 0001:00132f04       _get_invalid_parameter_handler 0000000140133f04 f   LIBCMT:invarg.obj
 0001:00132f14       _initp_misc_invarg         0000000140133f14 f   LIBCMT:invarg.obj
 0001:00132f1c       _invalid_parameter         0000000140133f1c f   LIBCMT:invarg.obj
 0001:00132f84       _invalid_parameter_noinfo  0000000140133f84 f   LIBCMT:invarg.obj
 0001:00132fa4       _invalid_parameter_noinfo_noreturn 0000000140133fa4 f   LIBCMT:invarg.obj
 0001:00132fd4       _invoke_watson             0000000140133fd4 f   LIBCMT:invarg.obj
 0001:00133010       _set_invalid_parameter_handler 0000000140134010 f   LIBCMT:invarg.obj
 0001:00133060       memset                     0000000140134060 f   LIBCMT:memset.obj
 0001:0013328c       _expand                    000000014013428c f   LIBCMT:expand.obj
 0001:001333cc       _msize                     00000001401343cc f   LIBCMT:msize.obj
 0001:00133408       _lock                      0000000140134408 f   LIBCMT:mlock.obj
 0001:0013344c       _lockerr_exit              000000014013444c f   LIBCMT:mlock.obj
 0001:00133478       _mtdeletelocks             0000000140134478 f   LIBCMT:mlock.obj
 0001:00133500       _mtinitlocknum             0000000140134500 f   LIBCMT:mlock.obj
 0001:001335c0       _mtinitlocks               00000001401345c0 f   LIBCMT:mlock.obj
 0001:00133624       _unlock                    0000000140134624 f   LIBCMT:mlock.obj
 0001:0013363c       _calloc_crt                000000014013463c f   LIBCMT:crtheap.obj
 0001:001336bc       _malloc_crt                00000001401346bc f   LIBCMT:crtheap.obj
 0001:00133738       _realloc_crt               0000000140134738 f   LIBCMT:crtheap.obj
 0001:001337bc       _recalloc_crt              00000001401347bc f   LIBCMT:crtheap.obj
 0001:00133840       _set_malloc_crt_max_wait   0000000140134840 f   LIBCMT:crtheap.obj
 0001:00133850       wait_a_bit                 0000000140134850 f i LIBCMT:crtheap.obj
 0001:001338b0       __crtCaptureCurrentContext 00000001401348b0 f   LIBCMT:winapisupp.obj
 0001:00133920       __crtCapturePreviousContext 0000000140134920 f   LIBCMT:winapisupp.obj
 0001:00133994       __crtCloseThreadpoolTimer  0000000140134994 f   LIBCMT:winapisupp.obj
 0001:001339b0       __crtCloseThreadpoolWait   00000001401349b0 f   LIBCMT:winapisupp.obj
 0001:001339cc       __crtCreateEventExW        00000001401349cc f   LIBCMT:winapisupp.obj
 0001:001339f8       __crtCreateSemaphoreExW    00000001401349f8 f   LIBCMT:winapisupp.obj
 0001:00133a14       __crtCreateSymbolicLinkW   0000000140134a14 f   LIBCMT:winapisupp.obj
 0001:00133a44       __crtCreateThreadpoolTimer 0000000140134a44 f   LIBCMT:winapisupp.obj
 0001:00133a5c       __crtCreateThreadpoolWait  0000000140134a5c f   LIBCMT:winapisupp.obj
 0001:00133a74       __crtFlsAlloc              0000000140134a74 f   LIBCMT:winapisupp.obj
 0001:00133a90       __crtFlsFree               0000000140134a90 f   LIBCMT:winapisupp.obj
 0001:00133aac       __crtFlsGetValue           0000000140134aac f   LIBCMT:winapisupp.obj
 0001:00133ac8       __crtFlsSetValue           0000000140134ac8 f   LIBCMT:winapisupp.obj
 0001:00133ae4       __crtFlushProcessWriteBuffers 0000000140134ae4 f   LIBCMT:winapisupp.obj
 0001:00133b00       __crtFreeLibraryWhenCallbackReturns 0000000140134b00 f   LIBCMT:winapisupp.obj
 0001:00133b1c       __crtGetCurrentProcessorNumber 0000000140134b1c f   LIBCMT:winapisupp.obj
 0001:00133b34       __crtGetFileInformationByHandleEx 0000000140134b34 f   LIBCMT:winapisupp.obj
 0001:00133b64       __crtGetLogicalProcessorInformation 0000000140134b64 f   LIBCMT:winapisupp.obj
 0001:00133b94       __crtGetShowWindowMode     0000000140134b94 f   LIBCMT:winapisupp.obj
 0001:00133bc0       __crtGetTickCount64        0000000140134bc0 f   LIBCMT:winapisupp.obj
 0001:00133be8       __crtInitializeCriticalSectionEx 0000000140134be8 f   LIBCMT:winapisupp.obj
 0001:00133c14       __crtIsPackagedApp         0000000140134c14 f   LIBCMT:winapisupp.obj
 0001:00133c60       __crtLoadWinApiPointers    0000000140134c60 f   LIBCMT:winapisupp.obj
 0001:0013405c       __crtSetFileInformationByHandle 000000014013505c f   LIBCMT:winapisupp.obj
 0001:0013408c       __crtSetThreadStackGuarantee 000000014013508c f   LIBCMT:winapisupp.obj
 0001:001340a4       __crtSetThreadpoolTimer    00000001401350a4 f   LIBCMT:winapisupp.obj
 0001:001340c0       __crtSetThreadpoolWait     00000001401350c0 f   LIBCMT:winapisupp.obj
 0001:001340dc       __crtSetUnhandledExceptionFilter 00000001401350dc f   LIBCMT:winapisupp.obj
 0001:001340e4       __crtSleep                 00000001401350e4 f   LIBCMT:winapisupp.obj
 0001:001340ec       __crtTerminateProcess      00000001401350ec f   LIBCMT:winapisupp.obj
 0001:0013410c       __crtUnhandledException    000000014013510c f   LIBCMT:winapisupp.obj
 0001:0013412c       __crtWaitForThreadpoolTimerCallbacks 000000014013512c f   LIBCMT:winapisupp.obj
 0001:00134150       _FindPESection             0000000140135150 f   LIBCMT:pesect.obj
 0001:001341a0       _IsNonwritableInCurrentImage 00000001401351a0 f   LIBCMT:pesect.obj
 0001:001341f0       _ValidateImageBase         00000001401351f0 f   LIBCMT:pesect.obj
 0001:00134220       ?_inconsistency@@YAXXZ     0000000140135220 f   LIBCMT:hooks.obj
 0001:00134240       ?terminate@@YAXXZ          0000000140135240 f   LIBCMT:hooks.obj
 0001:00134260       ?unexpected@@YAXXZ         0000000140135260 f   LIBCMT:hooks.obj
 0001:00134280       _initp_eh_hooks            0000000140135280 f   LIBCMT:hooks.obj
 0001:001342a0       __getlocaleinfo            00000001401352a0 f   LIBCMT:inithelp.obj
 0001:00134488       _initp_misc_purevirt       0000000140135488 f   LIBCMT:inithelp.obj
 0001:00134490       _initp_misc_rand_s         0000000140135490 f   LIBCMT:rand_s.obj
 0001:00134498       rand_s                     0000000140135498 f   LIBCMT:rand_s.obj
 0001:001345d4       _ftbuf                     00000001401355d4 f   LIBCMT:_sftbuf.obj
 0001:0013460c       _stbuf                     000000014013560c f   LIBCMT:_sftbuf.obj
 0001:001346dc       __sys_errlist              00000001401356dc f   LIBCMT:syserr.obj
 0001:001346e4       __sys_nerr                 00000001401356e4 f   LIBCMT:syserr.obj
 0001:001346ec       strcpy_s                   00000001401356ec f   LIBCMT:strcpy_s.obj
 0001:00134750       strncpy_s                  0000000140135750 f   LIBCMT:strncpy_s.obj
 0001:00134a5c       _strtof_l                  0000000140135a5c f   LIBCMT:strtoq.obj
 0001:00134a7c       _strtoi64                  0000000140135a7c f   LIBCMT:strtoq.obj
 0001:00134aac       _strtoi64_l                0000000140135aac f   LIBCMT:strtoq.obj
 0001:00134ad0       _strtoimax_l               0000000140135ad0 f   LIBCMT:strtoq.obj
 0001:00134af4       _strtold_l                 0000000140135af4 f   LIBCMT:strtoq.obj
 0001:00134afc       _strtoll_l                 0000000140135afc f   LIBCMT:strtoq.obj
 0001:00134b20       _strtoui64                 0000000140135b20 f   LIBCMT:strtoq.obj
 0001:00134b54       _strtoui64_l               0000000140135b54 f   LIBCMT:strtoq.obj
 0001:00134b7c       _strtoull_l                0000000140135b7c f   LIBCMT:strtoq.obj
 0001:00134ba4       _strtoumax_l               0000000140135ba4 f   LIBCMT:strtoq.obj
 0001:00134bcc       strtof                     0000000140135bcc f   LIBCMT:strtoq.obj
 0001:00134bf0       strtoimax                  0000000140135bf0 f   LIBCMT:strtoq.obj
 0001:00134bf8       strtold                    0000000140135bf8 f   LIBCMT:strtoq.obj
 0001:00134c00       strtoll                    0000000140135c00 f   LIBCMT:strtoq.obj
 0001:00134c08       strtoull                   0000000140135c08 f   LIBCMT:strtoq.obj
 0001:00134c10       strtoumax                  0000000140135c10 f   LIBCMT:strtoq.obj
 0001:00134e54       _strtol_l                  0000000140135e54 f   LIBCMT:strtol.obj
 0001:00134e78       _strtoul_l                 0000000140135e78 f   LIBCMT:strtol.obj
 0001:00134ea0       strtol                     0000000140135ea0 f   LIBCMT:strtol.obj
 0001:00134ed0       strtoul                    0000000140135ed0 f   LIBCMT:strtol.obj
 0001:00134f04       _waccess                   0000000140135f04 f   LIBCMT:waccess.obj
 0001:00134f18       _waccess_s                 0000000140135f18 f   LIBCMT:waccess.obj
 0001:00134fc0       _isatty                    0000000140135fc0 f   LIBCMT:isatty.obj
 0001:00135020       _lseeki64                  0000000140136020 f   LIBCMT:lseeki64.obj
 0001:00135108       _lseeki64_nolock           0000000140136108 f   LIBCMT:lseeki64.obj
 0001:0013519c       _mbtowc_l                  000000014013619c f   LIBCMT:mbtowc.obj
 0001:001352f0       mbtowc                     00000001401362f0 f   LIBCMT:mbtowc.obj
 0001:001352f8       _putwch                    00000001401362f8 f   LIBCMT:putwch.obj
 0001:0013532c       _putwch_nolock             000000014013632c f   LIBCMT:putwch.obj
 0001:001353a0       strlen                     00000001401363a0 f   LIBCMT:strlen.obj
 0001:00135448       strnlen                    0000000140136448 f   LIBCMT:strlen_s.obj
 0001:00135460       __wtomb_environ            0000000140136460 f   LIBCMT:wtombenv.obj
 0001:00135554       calloc                     0000000140136554 f   LIBCMT:calloc.obj
 0001:00135598       _mbsnbicoll                0000000140136598 f   LIBCMT:mbsnbico.obj
 0001:001355a0       _mbsnbicoll_l              00000001401365a0 f   LIBCMT:mbsnbico.obj
 0001:001356b0       _get_fpsr                  00000001401366b0 f   LIBCMT:fpsr.obj
 0001:001356c0       _set_fpsr                  00000001401366c0 f   LIBCMT:fpsr.obj
 0001:001356ca       _fclrf                     00000001401366ca f   LIBCMT:fpsr.obj
 0001:001356de       _frnd                      00000001401366de f   LIBCMT:fpsr.obj
 0001:00135700       __initstdio                0000000140136700 f   LIBCMT:_file.obj
 0001:00135798       __endstdio                 0000000140136798 f   LIBCMT:_file.obj
 0001:001357c8       __iob_func                 00000001401367c8 f   LIBCMT:_file.obj
 0001:001357d0       _lock_file                 00000001401367d0 f   LIBCMT:_file.obj
 0001:00135838       _lock_file2                0000000140136838 f   LIBCMT:_file.obj
 0001:0013586c       _unlock_file               000000014013686c f   LIBCMT:_file.obj
 0001:001358bc       _unlock_file2              00000001401368bc f   LIBCMT:_file.obj
 0001:001358dc       _fwrite_nolock             00000001401368dc f   LIBCMT:fwrite.obj
 0001:00135a6c       fwrite                     0000000140136a6c f   LIBCMT:fwrite.obj
 0001:00135afc       strrchr                    0000000140136afc f   LIBCMT:strrchr.obj
 0001:00135c40       _fptostr                   0000000140136c40 f   LIBCMT:_fptostr.obj
 0001:00135d0c       __crt_atoflt_l             0000000140136d0c f   LIBCMT:atodbl.obj
 0001:00135ddc       _atodbl                    0000000140136ddc f   LIBCMT:atodbl.obj
 0001:00135de4       _atodbl_l                  0000000140136de4 f   LIBCMT:atodbl.obj
 0001:00135eac       _atoflt                    0000000140136eac f   LIBCMT:atodbl.obj
 0001:00135eb8       _atoflt_l                  0000000140136eb8 f   LIBCMT:atodbl.obj
 0001:00135ec0       _atoldbl                   0000000140136ec0 f   LIBCMT:atodbl.obj
 0001:00135ec8       _atoldbl_l                 0000000140136ec8 f   LIBCMT:atodbl.obj
 0001:00135f94       __dtold                    0000000140136f94 f   LIBCMT:cfout.obj
 0001:00136064       _fltout2                   0000000140137064 f   LIBCMT:cfout.obj
 0001:0013611c       _get_output_format         000000014013711c f   LIBCMT:outputformat.obj
 0001:00136124       _set_output_format         0000000140137124 f   LIBCMT:outputformat.obj
 0001:00136158       _fptrap                    0000000140137158 f   LIBCMT:crt0fp.obj
 0001:00136180       _local_unwind              0000000140137180 f   LIBCMT:jmpuwind.obj
 0001:001361b0       _NLG_Notify                00000001401371b0 f   LIBCMT:jmpuwind.obj
 0001:001361d0       __NLG_Dispatch2            00000001401371d0 f   LIBCMT:jmpuwind.obj
 0001:001361e0       __NLG_Return2              00000001401371e0 f   LIBCMT:jmpuwind.obj
 0001:00136260       _ismbbalnum                0000000140137260 f   LIBCMT:ismbbyte.obj
 0001:00136278       _ismbbalnum_l              0000000140137278 f   LIBCMT:ismbbyte.obj
 0001:00136294       _ismbbalpha                0000000140137294 f   LIBCMT:ismbbyte.obj
 0001:001362ac       _ismbbalpha_l              00000001401372ac f   LIBCMT:ismbbyte.obj
 0001:001362c8       _ismbbblank                00000001401372c8 f   LIBCMT:ismbbyte.obj
 0001:001362e4       _ismbbblank_l              00000001401372e4 f   LIBCMT:ismbbyte.obj
 0001:00136304       _ismbbgraph                0000000140137304 f   LIBCMT:ismbbyte.obj
 0001:0013631c       _ismbbgraph_l              000000014013731c f   LIBCMT:ismbbyte.obj
 0001:00136338       _ismbbkalnum               0000000140137338 f   LIBCMT:ismbbyte.obj
 0001:0013634c       _ismbbkalnum_l             000000014013734c f   LIBCMT:ismbbyte.obj
 0001:00136364       _ismbbkana                 0000000140137364 f   LIBCMT:ismbbyte.obj
 0001:0013636c       _ismbbkana_l               000000014013736c f   LIBCMT:ismbbyte.obj
 0001:001363d4       _ismbbkprint               00000001401373d4 f   LIBCMT:ismbbyte.obj
 0001:001363e8       _ismbbkprint_l             00000001401373e8 f   LIBCMT:ismbbyte.obj
 0001:00136400       _ismbbkpunct               0000000140137400 f   LIBCMT:ismbbyte.obj
 0001:00136414       _ismbbkpunct_l             0000000140137414 f   LIBCMT:ismbbyte.obj
 0001:0013642c       _ismbblead                 000000014013742c f   LIBCMT:ismbbyte.obj
 0001:00136440       _ismbblead_l               0000000140137440 f   LIBCMT:ismbbyte.obj
 0001:00136458       _ismbbprint                0000000140137458 f   LIBCMT:ismbbyte.obj
 0001:00136470       _ismbbprint_l              0000000140137470 f   LIBCMT:ismbbyte.obj
 0001:0013648c       _ismbbpunct                000000014013748c f   LIBCMT:ismbbyte.obj
 0001:001364a0       _ismbbpunct_l              00000001401374a0 f   LIBCMT:ismbbyte.obj
 0001:001364b8       _ismbbtrail                00000001401374b8 f   LIBCMT:ismbbyte.obj
 0001:001364cc       _ismbbtrail_l              00000001401374cc f   LIBCMT:ismbbyte.obj
 0001:001364e4       wcscat_s                   00000001401374e4 f   LIBCMT:wcscat_s.obj
 0001:0013656c       wcscpy_s                   000000014013756c f   LIBCMT:wcscpy_s.obj
 0001:001365d8       wcslen                     00000001401375d8 f   LIBCMT:wcslen.obj
 0001:001365f4       wcsncpy_s                  00000001401375f4 f   LIBCMT:wcsncpy_s.obj
 0001:001366c0       __crtMessageBoxW           00000001401376c0 f   LIBCMT:crtmboxw.obj
 0001:00136934       __crtMessageBoxWaitThreadW 0000000140137934 f   LIBCMT:crtmboxw.obj
 0001:00136958       __crt_debugger_hook        0000000140137958 f   LIBCMT:dbghook.obj
 0001:00136960       __free_lconv_mon           0000000140137960 f   LIBCMT:initmon.obj
 0001:00136a6c       __init_monetary            0000000140137a6c f   LIBCMT:initmon.obj
 0001:00136fa8       __free_lconv_num           0000000140137fa8 f   LIBCMT:initnum.obj
 0001:00137014       __init_numeric             0000000140138014 f   LIBCMT:initnum.obj
 0001:00137318       __free_lc_time             0000000140138318 f   LIBCMT:inittime.obj
 0001:00137714       __init_time                0000000140138714 f   LIBCMT:inittime.obj
 0001:00138330       localeconv                 0000000140139330 f   LIBCMT:lconv.obj
 0001:001384e0       __crtGetStringTypeA        00000001401394e0 f   LIBCMT:a_str.obj
 0001:0013855c       _iswctype_l                000000014013955c f   LIBCMT:iswctype.obj
 0001:00138564       is_wctype                  0000000140139564 f   LIBCMT:iswctype.obj
 0001:0013856c       iswctype                   000000014013956c f   LIBCMT:iswctype.obj
 0001:001385d4       GetTableIndexFromLcid      00000001401395d4 f   LIBCMT:winapinls.obj
 0001:00138618       GetTableIndexFromLocaleName 0000000140139618 f   LIBCMT:winapinls.obj
 0001:001386a4       __crtCompareStringEx       00000001401396a4 f   LIBCMT:winapinls.obj
 0001:00138734       __crtDownlevelLCIDToLocaleName 0000000140139734 f   LIBCMT:winapinls.obj
 0001:001387e4       __crtDownlevelLocaleNameToLCID 00000001401397e4 f   LIBCMT:winapinls.obj
 0001:00138824       __crtEnumSystemLocalesEx   0000000140139824 f   LIBCMT:winapinls.obj
 0001:00138868       __crtGetDateFormatEx       0000000140139868 f   LIBCMT:winapinls.obj
 0001:001388e4       __crtGetLocaleInfoEx       00000001401398e4 f   LIBCMT:winapinls.obj
 0001:00138934       __crtGetTimeFormatEx       0000000140139934 f   LIBCMT:winapinls.obj
 0001:001389ac       __crtGetUserDefaultLocaleName 00000001401399ac f   LIBCMT:winapinls.obj
 0001:001389f0       __crtIsValidLocaleName     00000001401399f0 f   LIBCMT:winapinls.obj
 0001:00138a24       __crtLCMapStringEx         0000000140139a24 f   LIBCMT:winapinls.obj
 0001:00138ab4       __wcsnicmp_ascii           0000000140139ab4 f   LIBCMT:winapinls.obj
 0001:00138b0c       __pctype_func              0000000140139b0c f   LIBCMT:ctype.obj
 0001:00138b48       __pwctype_func             0000000140139b48 f   LIBCMT:ctype.obj
 0001:00138b50       __init_collate             0000000140139b50 f   LIBCMT:initcoll.obj
 0001:00138b54       ___lc_codepage_func        0000000140139b54 f   LIBCMT:initctyp.obj
 0001:00138b8c       ___lc_collate_cp_func      0000000140139b8c f   LIBCMT:initctyp.obj
 0001:00138bc4       ___lc_locale_name_func     0000000140139bc4 f   LIBCMT:initctyp.obj
 0001:00138c00       ___mb_cur_max_func         0000000140139c00 f   LIBCMT:initctyp.obj
 0001:00138c3c       ___mb_cur_max_l_func       0000000140139c3c f   LIBCMT:initctyp.obj
 0001:00138c50       __init_ctype               0000000140139c50 f   LIBCMT:initctyp.obj
 0001:00139090       memcmp                     000000014013a090 f   LIBCMT:memcmp.obj
 0001:00139158       wcscmp                     000000014013a158 f   LIBCMT:wcscmp.obj
 0001:00139194       wcscspn                    000000014013a194 f   LIBCMT:wcscspn.obj
 0001:001391d4       wcsnlen                    000000014013a1d4 f   LIBCMT:wcslen_s.obj
 0001:001391f4       wcsncmp                    000000014013a1f4 f   LIBCMT:wcsncmp.obj
 0001:00139220       wcspbrk                    000000014013a220 f   LIBCMT:wcspbrk.obj
 0001:00139ae4       __get_qualified_locale     000000014013aae4 f   LIBCMT:getqloc.obj
 0001:0013a5e0       __get_qualified_locale_downlevel 000000014013b5e0 f   LIBCMT:getqloc_downlevel.obj
 0001:0013a878       _recalloc                  000000014013b878 f   LIBCMT:recalloc.obj
 0001:0013a900       _calloc_impl               000000014013b900 f   LIBCMT:calloc_impl.obj
 0001:0013ab08       __crtGetLocaleInfoA        000000014013bb08 f   LIBCMT:a_loc.obj
 0001:0013ab70       _fflush_nolock             000000014013bb70 f   LIBCMT:fflush.obj
 0001:0013abbc       _flush                     000000014013bbbc f   LIBCMT:fflush.obj
 0001:0013ac38       _flushall                  000000014013bc38 f   LIBCMT:fflush.obj
 0001:0013ac44       fflush                     000000014013bc44 f   LIBCMT:fflush.obj
 0001:0013ad70       _strtod_l                  000000014013bd70 f   LIBCMT:strtod.obj
 0001:0013aec4       strtod                     000000014013bec4 f   LIBCMT:strtod.obj
 0001:0013aecc       __termconout               000000014013becc f   LIBCMT:initcon.obj
 0001:0013aeec       __initconout               000000014013beec f   LIBCMT:initcon.obj
 0001:0013af28       __crtsetenv                000000014013bf28 f   LIBCMT:setenv.obj
 0001:0013b3e8       _strnicoll                 000000014013c3e8 f   LIBCMT:strnicol.obj
 0001:0013b400       _strnicoll_l               000000014013c400 f   LIBCMT:strnicol.obj
 0001:0013b884       __crtCompareStringA        000000014013c884 f   LIBCMT:a_cmp.obj
 0001:0013b910       _fcloseall                 000000014013c910 f   LIBCMT:closeall.obj
 0001:0013b9b8       _flsbuf                    000000014013c9b8 f   LIBCMT:_flsbuf.obj
 0001:0013bb44       _CopyMan                   000000014013cb44 f i LIBCMT:intrncvt.obj
 0001:0013bb5c       _FillZeroMan               000000014013cb5c f i LIBCMT:intrncvt.obj
 0001:0013bb68       _IncMan                    000000014013cb68 f i LIBCMT:intrncvt.obj
 0001:0013bbe4       _IsZeroMan                 000000014013cbe4 f i LIBCMT:intrncvt.obj
 0001:0013bc00       _RoundMan                  000000014013cc00 f i LIBCMT:intrncvt.obj
 0001:0013bd38       _ShrMan                    000000014013cd38 f i LIBCMT:intrncvt.obj
 0001:0013bde4       _ZeroTail                  000000014013cde4 f i LIBCMT:intrncvt.obj
 0001:0013be34       __addl                     000000014013ce34 f i LIBCMT:intrncvt.obj
 0001:0013be50       _ld12cvt                   000000014013ce50 f i LIBCMT:intrncvt.obj
 0001:0013c3f4       _ld12tod                   000000014013d3f4 f   LIBCMT:intrncvt.obj
 0001:0013c9ac       _ld12tof                   000000014013d9ac f   LIBCMT:intrncvt.obj
 0001:0013cf64       _ld12told                  000000014013df64 f   LIBCMT:intrncvt.obj
 0001:0013d050       __STRINGTOLD_L             000000014013e050 f   LIBCMT:strgtold.obj
 0001:0013d0c8       __ld12mul                  000000014013e0c8 f i LIBCMT:strgtold.obj
 0001:0013d3f8       __multtenpow12             000000014013e3f8 f i LIBCMT:strgtold.obj
 0001:0013d7ac       __shl_12                   000000014013e7ac f i LIBCMT:strgtold.obj
 0001:0013d7d8       __shr_12                   000000014013e7d8 f i LIBCMT:strgtold.obj
 0001:0013d804       __strgtold12_l             000000014013e804 f   LIBCMT:strgtold.obj
 0001:0013e068       $I10_OUTPUT                000000014013f068 f   LIBCMT:x10fout.obj
 0001:0013eb40       __add_12                   000000014013fb40 f i LIBCMT:x10fout.obj
 0001:0013ebbc       _i64tow_s                  000000014013fbbc f   LIBCMT:xtows.obj
 0001:0013ebe0       _itow_s                    000000014013fbe0 f   LIBCMT:xtows.obj
 0001:0013ec08       _ltow_s                    000000014013fc08 f   LIBCMT:xtows.obj
 0001:0013ec2c       _ui64tow_s                 000000014013fc2c f   LIBCMT:xtows.obj
 0001:0013ec40       _ultow_s                   000000014013fc40 f   LIBCMT:xtows.obj
 0001:0013ee78       _wtoi                      000000014013fe78 f   LIBCMT:wtox.obj
 0001:0013ee84       _wtoi64                    000000014013fe84 f   LIBCMT:wtox.obj
 0001:0013ee90       _wtoi64_l                  000000014013fe90 f   LIBCMT:wtox.obj
 0001:0013eea0       _wtoi_l                    000000014013fea0 f   LIBCMT:wtox.obj
 0001:0013eeb0       _wtol                      000000014013feb0 f   LIBCMT:wtox.obj
 0001:0013eebc       _wtol_l                    000000014013febc f   LIBCMT:wtox.obj
 0001:0013eecc       _wtoll                     000000014013fecc f   LIBCMT:wtox.obj
 0001:0013eed8       _wtoll_l                   000000014013fed8 f   LIBCMT:wtox.obj
 0001:0013eee8       wcschr                     000000014013fee8 f   LIBCMT:wcschr.obj
 0001:0013ef74       _wcsicmp                   000000014013ff74 f   LIBCMT:wcsicmp.obj
 0001:0013eff8       _wcsicmp_l                 000000014013fff8 f   LIBCMT:wcsicmp.obj
 0001:0013f0e8       _wcsnicmp                  00000001401400e8 f   LIBCMT:wcsnicmp.obj
 0001:0013f180       _wcsnicmp_l                0000000140140180 f   LIBCMT:wcsnicmp.obj
 0001:0013f298       _commit                    0000000140140298 f   LIBCMT:commit.obj
 0001:0013f370       _fltin2                    0000000140140370 f   LIBCMT:cfin.obj
 0001:0013f440       _strdup                    0000000140140440 f   LIBCMT:strdup.obj
 0001:0013f4b0       _mbschr                    00000001401404b0 f   LIBCMT:mbschr.obj
 0001:0013f4b8       _mbschr_l                  00000001401404b8 f   LIBCMT:mbschr.obj
 0001:0013f578       __ascii_strnicmp           0000000140140578 f   LIBCMT:strnicmp.obj
 0001:0013f5c0       _strnicmp                  00000001401405c0 f   LIBCMT:strnicmp.obj
 0001:0013f610       _strnicmp_l                0000000140140610 f   LIBCMT:strnicmp.obj
 0001:0013f6ec       _fclose_nolock             00000001401406ec f   LIBCMT:fclose.obj
 0001:0013f768       fclose                     0000000140140768 f   LIBCMT:fclose.obj
 0001:0013f7d0       _getbuf                    00000001401407d0 f   LIBCMT:_getbuf.obj
 0001:0013f824       __mtold12                  0000000140140824 f   LIBCMT:mantold.obj
 0001:0013fc30       _wcstol_l                  0000000140140c30 f   LIBCMT:wcstol.obj
 0001:0013fc38       _wcstoul_l                 0000000140140c38 f   LIBCMT:wcstol.obj
 0001:0013fc44       wcstol                     0000000140140c44 f   LIBCMT:wcstol.obj
 0001:0013fc4c       wcstoul                    0000000140140c4c f   LIBCMT:wcstol.obj
 0001:0013fec0       _wcstof_l                  0000000140140ec0 f   LIBCMT:wcstoq.obj
 0001:0013ffd0       _wcstoi64                  0000000140140fd0 f   LIBCMT:wcstoq.obj
 0001:00140000       _wcstoi64_l                0000000140141000 f   LIBCMT:wcstoq.obj
 0001:00140024       _wcstoimax_l               0000000140141024 f   LIBCMT:wcstoq.obj
 0001:00140048       _wcstold_l                 0000000140141048 f   LIBCMT:wcstoq.obj
 0001:00140050       _wcstoll_l                 0000000140141050 f   LIBCMT:wcstoq.obj
 0001:00140074       _wcstoui64                 0000000140141074 f   LIBCMT:wcstoq.obj
 0001:001400a8       _wcstoui64_l               00000001401410a8 f   LIBCMT:wcstoq.obj
 0001:001400d0       _wcstoull_l                00000001401410d0 f   LIBCMT:wcstoq.obj
 0001:001400f8       _wcstoumax_l               00000001401410f8 f   LIBCMT:wcstoq.obj
 0001:00140120       wcstof                     0000000140141120 f   LIBCMT:wcstoq.obj
 0001:00140128       wcstoimax                  0000000140141128 f   LIBCMT:wcstoq.obj
 0001:00140130       wcstold                    0000000140141130 f   LIBCMT:wcstoq.obj
 0001:00140138       wcstoll                    0000000140141138 f   LIBCMT:wcstoq.obj
 0001:00140140       wcstoull                   0000000140141140 f   LIBCMT:wcstoq.obj
 0001:00140148       wcstoumax                  0000000140141148 f   LIBCMT:wcstoq.obj
 0001:00140150       _towlower_l                0000000140141150 f   LIBCMT:towlower.obj
 0001:0014021c       towlower                   000000014014121c f   LIBCMT:towlower.obj
 0001:00140224       strchr                     0000000140141224 f   LIBCMT:strchr.obj
 0001:001402b0       _close                     00000001401412b0 f   LIBCMT:close.obj
 0001:00140374       _close_nolock              0000000140141374 f   LIBCMT:close.obj
 0001:00140430       _freebuf                   0000000140141430 f   LIBCMT:_freebuf.obj
 0001:00140468       _wchartodigit              0000000140141468 f   LIBCMT:wchtodig.obj
 0001:00140600       _wcstod_l                  0000000140141600 f   LIBCMT:wcstod.obj
 0001:00140730       wcstod                     0000000140141730 f   LIBCMT:wcstod.obj
 0001:00140738       __crtLCMapStringW          0000000140141738 f   LIBCMT:w_map.obj
 0001:00140784       _wfltin2                   0000000140141784 f   LIBCMT:wcfin.obj
 0001:0014084c       __WSTRINGTOLD_L            000000014014184c f   LIBCMT:wstrgtold.obj
 0001:001408c4       __wstrgtold12_l            00000001401418c4 f   LIBCMT:wstrgtold.obj
 0001:0014123e       GetModuleFileNameA         000000014014223e f   KERNEL32:KERNEL32.dll
 0001:00141244       GetWindowsDirectoryA       0000000140142244 f   KERNEL32:KERNEL32.dll
 0001:0014124a       GetEnvironmentVariableA    000000014014224a f   KERNEL32:KERNEL32.dll
 0001:00141250       GetLastError               0000000140142250 f   KERNEL32:KERNEL32.dll
 0001:00141256       SetFilePointer             0000000140142256 f   KERNEL32:KERNEL32.dll
 0001:0014125c       WriteFile                  000000014014225c f   KERNEL32:KERNEL32.dll
 0001:00141262       VirtualAlloc               0000000140142262 f   KERNEL32:KERNEL32.dll
 0001:00141268       GetSystemInfo              0000000140142268 f   KERNEL32:KERNEL32.dll
 0001:0014126e       VirtualFree                000000014014226e f   KERNEL32:KERNEL32.dll
 0001:00141274       Sleep                      0000000140142274 f   KERNEL32:KERNEL32.dll
 0001:0014127a       TlsSetValue                000000014014227a f   KERNEL32:KERNEL32.dll
 0001:00141280       TlsGetValue                0000000140142280 f   KERNEL32:KERNEL32.dll
 0001:00141286       TlsFree                    0000000140142286 f   KERNEL32:KERNEL32.dll
 0001:0014128c       SetLastError               000000014014228c f   KERNEL32:KERNEL32.dll
 0001:00141292       TlsAlloc                   0000000140142292 f   KERNEL32:KERNEL32.dll
 0001:00141298       ReleaseMutex               0000000140142298 f   KERNEL32:KERNEL32.dll
 0001:0014129e       CloseHandle                000000014014229e f   KERNEL32:KERNEL32.dll
 0001:001412a4       WaitForSingleObject        00000001401422a4 f   KERNEL32:KERNEL32.dll
 0001:001412aa       GetFileType                00000001401422aa f   KERNEL32:KERNEL32.dll
 0001:001412b0       GetSystemTimeAsFileTime    00000001401422b0 f   KERNEL32:KERNEL32.dll
 0001:001412b6       GetLocalTime               00000001401422b6 f   KERNEL32:KERNEL32.dll
 0001:001412bc       GetProcessTimes            00000001401422bc f   KERNEL32:KERNEL32.dll
 0001:001412c2       GetCurrentProcess          00000001401422c2 f   KERNEL32:KERNEL32.dll
 0001:001412c8       GetFileAttributesA         00000001401422c8 f   KERNEL32:KERNEL32.dll
 0001:001412ce       GetFileSize                00000001401422ce f   KERNEL32:KERNEL32.dll
 0001:001412d4       GetFileAttributesExA       00000001401422d4 f   KERNEL32:KERNEL32.dll
 0001:001412da       LeaveCriticalSection       00000001401422da f   KERNEL32:KERNEL32.dll
 0001:001412e0       EnterCriticalSection       00000001401422e0 f   KERNEL32:KERNEL32.dll
 0001:001412e6       ReadFile                   00000001401422e6 f   KERNEL32:KERNEL32.dll
 0001:001412ec       FormatMessageA             00000001401422ec f   KERNEL32:KERNEL32.dll
 0001:001412f2       LoadLibraryA               00000001401422f2 f   KERNEL32:KERNEL32.dll
 0001:001412f8       GetThreadLocale            00000001401422f8 f   KERNEL32:KERNEL32.dll
 0001:001412fe       GetStdHandle               00000001401422fe f   KERNEL32:KERNEL32.dll
 0001:00141304       IsDebuggerPresent          0000000140142304 f   KERNEL32:KERNEL32.dll
 0001:0014130a       GetProcAddress             000000014014230a f   KERNEL32:KERNEL32.dll
 0001:00141310       GetModuleHandleA           0000000140142310 f   KERNEL32:KERNEL32.dll
 0001:00141316       FreeLibrary                0000000140142316 f   KERNEL32:KERNEL32.dll
 0001:0014131c       CreateFileA                000000014014231c f   KERNEL32:KERNEL32.dll
 0001:00141322       GetCurrentThreadId         0000000140142322 f   KERNEL32:KERNEL32.dll
 0001:00141328       DeleteCriticalSection      0000000140142328 f   KERNEL32:KERNEL32.dll
 0001:0014132e       ExitThread                 000000014014232e f   KERNEL32:KERNEL32.dll
 0001:00141334       InitializeCriticalSection  0000000140142334 f   KERNEL32:KERNEL32.dll
 0001:0014133a       CreateEventA               000000014014233a f   KERNEL32:KERNEL32.dll
 0001:00141340       SetEvent                   0000000140142340 f   KERNEL32:KERNEL32.dll
 0001:00141346       TerminateThread            0000000140142346 f   KERNEL32:KERNEL32.dll
 0001:0014134c       CreateThread               000000014014234c f   KERNEL32:KERNEL32.dll
 0001:00141352       GetTempPathA               0000000140142352 f   KERNEL32:KERNEL32.dll
 0001:00141358       GetTempFileNameA           0000000140142358 f   KERNEL32:KERNEL32.dll
 0001:0014135e       GetFullPathNameA           000000014014235e f   KERNEL32:KERNEL32.dll
 0001:00141364       GetFullPathNameW           0000000140142364 f   KERNEL32:KERNEL32.dll
 0001:0014136a       GetSystemDefaultLangID     000000014014236a f   KERNEL32:KERNEL32.dll
 0001:00141370       GetUserDefaultLangID       0000000140142370 f   KERNEL32:KERNEL32.dll
 0001:00141376       SetEndOfFile               0000000140142376 f   KERNEL32:KERNEL32.dll
 0001:0014137c       GetFileInformationByHandle 000000014014237c f   KERNEL32:KERNEL32.dll
 0001:00141382       MapViewOfFile              0000000140142382 f   KERNEL32:KERNEL32.dll
 0001:00141388       CreateFileMappingA         0000000140142388 f   KERNEL32:KERNEL32.dll
 0001:0014138e       OpenFileMappingA           000000014014238e f   KERNEL32:KERNEL32.dll
 0001:00141394       UnmapViewOfFile            0000000140142394 f   KERNEL32:KERNEL32.dll
 0001:0014139a       GetHandleInformation       000000014014239a f   KERNEL32:KERNEL32.dll
 0001:001413a0       IsBadReadPtr               00000001401423a0 f   KERNEL32:KERNEL32.dll
 0001:001413a6       SetErrorMode               00000001401423a6 f   KERNEL32:KERNEL32.dll
 0001:001413ac       GetCommandLineA            00000001401423ac f   KERNEL32:KERNEL32.dll
 0001:001413b2       GetACP                     00000001401423b2 f   KERNEL32:KERNEL32.dll
 0001:001413b8       SetConsoleCtrlHandler      00000001401423b8 f   KERNEL32:KERNEL32.dll
 0001:001413be       DeleteFileA                00000001401423be f   KERNEL32:KERNEL32.dll
 0001:001413c4       GetVersionExA              00000001401423c4 f   KERNEL32:KERNEL32.dll
 0001:001413ca       SetThreadPriority          00000001401423ca f   KERNEL32:KERNEL32.dll
 0001:001413d0       CreateProcessA             00000001401423d0 f   KERNEL32:KERNEL32.dll
 0001:001413d6       FlushFileBuffers           00000001401423d6 f   KERNEL32:KERNEL32.dll
 0001:001413dc       HeapAlloc                  00000001401423dc f   KERNEL32:KERNEL32.dll
 0001:001413e2       HeapReAlloc                00000001401423e2 f   KERNEL32:KERNEL32.dll
 0001:001413e8       HeapFree                   00000001401423e8 f   KERNEL32:KERNEL32.dll
 0001:001413ee       EncodePointer              00000001401423ee f   KERNEL32:KERNEL32.dll
 0001:001413f4       DecodePointer              00000001401423f4 f   KERNEL32:KERNEL32.dll
 0001:001413fa       ResumeThread               00000001401423fa f   KERNEL32:KERNEL32.dll
 0001:00141400       ExitProcess                0000000140142400 f   KERNEL32:KERNEL32.dll
 0001:00141406       GetModuleHandleExW         0000000140142406 f   KERNEL32:KERNEL32.dll
 0001:0014140c       AreFileApisANSI            000000014014240c f   KERNEL32:KERNEL32.dll
 0001:00141412       MultiByteToWideChar        0000000140142412 f   KERNEL32:KERNEL32.dll
 0001:00141418       WideCharToMultiByte        0000000140142418 f   KERNEL32:KERNEL32.dll
 0001:0014141e       IsProcessorFeaturePresent  000000014014241e f   KERNEL32:KERNEL32.dll
 0001:00141424       SetStdHandle               0000000140142424 f   KERNEL32:KERNEL32.dll
 0001:0014142a       GetCurrentProcessId        000000014014242a f   KERNEL32:KERNEL32.dll
 0001:00141430       GetConsoleCP               0000000140142430 f   KERNEL32:KERNEL32.dll
 0001:00141436       GetConsoleMode             0000000140142436 f   KERNEL32:KERNEL32.dll
 0001:0014143c       GetCurrentThread           000000014014243c f   KERNEL32:KERNEL32.dll
 0001:00141442       GetProcessHeap             0000000140142442 f   KERNEL32:KERNEL32.dll
 0001:00141448       GetStartupInfoW            0000000140142448 f   KERNEL32:KERNEL32.dll
 0001:0014144e       GetModuleFileNameW         000000014014244e f   KERNEL32:KERNEL32.dll
 0001:00141454       QueryPerformanceCounter    0000000140142454 f   KERNEL32:KERNEL32.dll
 0001:0014145a       GetEnvironmentStringsW     000000014014245a f   KERNEL32:KERNEL32.dll
 0001:00141460       FreeEnvironmentStringsW    0000000140142460 f   KERNEL32:KERNEL32.dll
 0001:00141466       RtlUnwindEx                0000000140142466 f   KERNEL32:KERNEL32.dll
 0001:0014146c       IsValidCodePage            000000014014246c f   KERNEL32:KERNEL32.dll
 0001:00141472       GetOEMCP                   0000000140142472 f   KERNEL32:KERNEL32.dll
 0001:00141478       GetCPInfo                  0000000140142478 f   KERNEL32:KERNEL32.dll
 0001:0014147e       HeapSize                   000000014014247e f   KERNEL32:KERNEL32.dll
 0001:00141484       HeapQueryInformation       0000000140142484 f   KERNEL32:KERNEL32.dll
 0001:0014148a       FatalAppExitA              000000014014248a f   KERNEL32:KERNEL32.dll
 0001:00141490       RtlCaptureContext          0000000140142490 f   KERNEL32:KERNEL32.dll
 0001:00141496       RtlLookupFunctionEntry     0000000140142496 f   KERNEL32:KERNEL32.dll
 0001:0014149c       RtlVirtualUnwind           000000014014249c f   KERNEL32:KERNEL32.dll
 0001:001414a2       UnhandledExceptionFilter   00000001401424a2 f   KERNEL32:KERNEL32.dll
 0001:001414a8       SetUnhandledExceptionFilter 00000001401424a8 f   KERNEL32:KERNEL32.dll
 0001:001414ae       InitializeCriticalSectionAndSpinCount 00000001401424ae f   KERNEL32:KERNEL32.dll
 0001:001414b4       CreateEventW               00000001401424b4 f   KERNEL32:KERNEL32.dll
 0001:001414ba       TerminateProcess           00000001401424ba f   KERNEL32:KERNEL32.dll
 0001:001414c0       GetTickCount               00000001401424c0 f   KERNEL32:KERNEL32.dll
 0001:001414c6       GetModuleHandleW           00000001401424c6 f   KERNEL32:KERNEL32.dll
 0001:001414cc       CreateSemaphoreW           00000001401424cc f   KERNEL32:KERNEL32.dll
 0001:001414d2       LoadLibraryExW             00000001401424d2 f   KERNEL32:KERNEL32.dll
 0001:001414d8       GetFileAttributesExW       00000001401424d8 f   KERNEL32:KERNEL32.dll
 0001:001414de       SetFilePointerEx           00000001401424de f   KERNEL32:KERNEL32.dll
 0001:001414e4       WriteConsoleW              00000001401424e4 f   KERNEL32:KERNEL32.dll
 0001:001414ea       OutputDebugStringW         00000001401424ea f   KERNEL32:KERNEL32.dll
 0001:001414f0       GetStringTypeW             00000001401424f0 f   KERNEL32:KERNEL32.dll
 0001:001414f6       GetDateFormatW             00000001401424f6 f   KERNEL32:KERNEL32.dll
 0001:001414fc       GetTimeFormatW             00000001401424fc f   KERNEL32:KERNEL32.dll
 0001:00141502       CompareStringW             0000000140142502 f   KERNEL32:KERNEL32.dll
 0001:00141508       LCMapStringW               0000000140142508 f   KERNEL32:KERNEL32.dll
 0001:0014150e       GetLocaleInfoW             000000014014250e f   KERNEL32:KERNEL32.dll
 0001:00141514       IsValidLocale              0000000140142514 f   KERNEL32:KERNEL32.dll
 0001:0014151a       GetUserDefaultLCID         000000014014251a f   KERNEL32:KERNEL32.dll
 0001:00141520       EnumSystemLocalesW         0000000140142520 f   KERNEL32:KERNEL32.dll
 0001:00141526       CreateFileW                0000000140142526 f   KERNEL32:KERNEL32.dll
 0001:0014152c       SetEnvironmentVariableA    000000014014252c f   KERNEL32:KERNEL32.dll
 0001:00141532       LoadLibraryExA             0000000140142532 f   KERNEL32:KERNEL32.dll
 0001:00141538       GetModuleHandleExA         0000000140142538 f   KERNEL32:KERNEL32.dll
 0001:0014153e       VirtualQuery               000000014014253e f   KERNEL32:KERNEL32.dll
 0001:00141544       StackWalk64                0000000140142544 f   ImageHlp:imagehlp.dll
 0001:0014154a       SymCleanup                 000000014014254a f   ImageHlp:imagehlp.dll
 0001:00141550       SymInitialize              0000000140142550 f   ImageHlp:imagehlp.dll
 0001:00141570       strncat                    0000000140142570 f   LIBCMT:strncat.obj
 0001:00141708       strcat_s                   0000000140142708 f   LIBCMT:strcat_s.obj
 0001:00141784       strtok                     0000000140142784 f   LIBCMT:strtok.obj
 0001:00141890       strcat                     0000000140142890 f   LIBCMT:strcat.obj
 0001:00141930       strcpy                     0000000140142930 f   LIBCMT:strcat.obj
 0001:00141933       ___entry_from_strcat_in_strcpy 0000000140142933     LIBCMT:strcat.obj
 0001:001419e8       _splitpath                 00000001401429e8 f   LIBCMT:splitpat.obj
 0001:00141d00       _fpieee_flt                0000000140142d00 f   LIBCMT:filter.obj
 0001:00141d1c       _mbsnbcpy_s                0000000140142d1c f   LIBCMT:mbsnbcpy_s.obj
 0001:00143224       _fpieee_flt_simd           0000000140144224 f   LIBCMT:filter_simd.obj
 0001:00144570       _mbsnbcpy_s_l              0000000140145570 f   LIBCMT:mbsnbcpy_s_l.obj
 0001:00144948       _XMMI_FP_Emulation         0000000140145948 f   LIBCMT:xmmi_fp_emul.obj
 0001:00145c28       fp32_is_inf                0000000140146c28 f   LIBCMT:xmmi_fp_emul.obj
 0001:00145c88       fp32_is_zero               0000000140146c88 f   LIBCMT:xmmi_fp_emul.obj
 0001:00145ca4       RoundDoubleToIntegral      0000000140146ca4 f   LIBCMT:xmmi2_fp_emul.obj
 0001:00145f18       _XMMI2_FP_Emulation        0000000140146f18 f   LIBCMT:xmmi2_fp_emul.obj
 0001:00147874       fp64_is_denormal           0000000140148874 f   LIBCMT:xmmi2_fp_emul.obj
 0001:00147898       fp64_is_inf                0000000140148898 f   LIBCMT:xmmi2_fp_emul.obj
 0001:001478c4       fp64_is_qnan               00000001401488c4 f   LIBCMT:xmmi2_fp_emul.obj
 0001:001478e4       fp64_is_snan               00000001401488e4 f   LIBCMT:xmmi2_fp_emul.obj
 0001:00147918       fp64_is_zero               0000000140148918 f   LIBCMT:xmmi2_fp_emul.obj
 0001:00147938       __GSHandlerCheck_SEH       0000000140148938 f   LIBCMT:gshandlerseh.obj
 0001:001479d0       __read_mxcsr               00000001401489d0 f   LIBCMT:sse_funcs.obj
 0001:001479e0       __write_mxcsr              00000001401489e0 f   LIBCMT:sse_funcs.obj
 0001:001479f0       __int_addss                00000001401489f0 f   LIBCMT:sse_funcs.obj
 0001:00147a01       __int_subss                0000000140148a01 f   LIBCMT:sse_funcs.obj
 0001:00147a12       __int_mulss                0000000140148a12 f   LIBCMT:sse_funcs.obj
 0001:00147a23       __int_divss                0000000140148a23 f   LIBCMT:sse_funcs.obj
 0001:00147a34       __int_cvtsi2ss             0000000140148a34 f   LIBCMT:sse_funcs.obj
 0001:00147a3d       __int64_cvtsi2ss           0000000140148a3d f   LIBCMT:sse_funcs.obj
 0001:00147a47       __int_cvtss2si             0000000140148a47 f   LIBCMT:sse_funcs.obj
 0001:00147a50       __int64_cvtss2si           0000000140148a50 f   LIBCMT:sse_funcs.obj
 0001:00147a5a       __int_cvttss2si            0000000140148a5a f   LIBCMT:sse_funcs.obj
 0001:00147a63       __int64_cvttss2si          0000000140148a63 f   LIBCMT:sse_funcs.obj
 0001:00147a6d       __int_cmpss                0000000140148a6d f   LIBCMT:sse_funcs.obj
 0001:00147af6       __int_comiss               0000000140148af6 f   LIBCMT:sse_funcs.obj
 0001:00147b02       __int_ucomiss              0000000140148b02 f   LIBCMT:sse_funcs.obj
 0001:00147b0e       __int_maxss                0000000140148b0e f   LIBCMT:sse_funcs.obj
 0001:00147b1f       __int_minss                0000000140148b1f f   LIBCMT:sse_funcs.obj
 0001:00147b30       __int_sqrtss               0000000140148b30 f   LIBCMT:sse_funcs.obj
 0001:00147b3d       __int_addsd                0000000140148b3d f   LIBCMT:sse_funcs.obj
 0001:00147b65       __int_subsd                0000000140148b65 f   LIBCMT:sse_funcs.obj
 0001:00147b8d       __int_mulsd                0000000140148b8d f   LIBCMT:sse_funcs.obj
 0001:00147bb5       __int_divsd                0000000140148bb5 f   LIBCMT:sse_funcs.obj
 0001:00147bdd       __int_cmpsd                0000000140148bdd f   LIBCMT:sse_funcs.obj
 0001:00147cc0       __int_comisd               0000000140148cc0 f   LIBCMT:sse_funcs.obj
 0001:00147cdf       __int_ucomisd              0000000140148cdf f   LIBCMT:sse_funcs.obj
 0001:00147cfe       __int_cvtsd2si             0000000140148cfe f   LIBCMT:sse_funcs.obj
 0001:00147d14       __int64_cvtsd2si           0000000140148d14 f   LIBCMT:sse_funcs.obj
 0001:00147d2b       __int_cvttsd2si            0000000140148d2b f   LIBCMT:sse_funcs.obj
 0001:00147d41       __int64_cvttsd2si          0000000140148d41 f   LIBCMT:sse_funcs.obj
 0001:00147d58       __int_cvtss2sd             0000000140148d58 f   LIBCMT:sse_funcs.obj
 0001:00147d72       __int_cvtsd2ss             0000000140148d72 f   LIBCMT:sse_funcs.obj
 0001:00147d8c       __int_maxsd                0000000140148d8c f   LIBCMT:sse_funcs.obj
 0001:00147db4       __int_minsd                0000000140148db4 f   LIBCMT:sse_funcs.obj
 0001:00147ddc       __int_sqrtsd               0000000140148ddc f   LIBCMT:sse_funcs.obj
 0002:00000000       __imp_GetFullPathNameA     000000014014a000     KERNEL32:KERNEL32.dll
 0002:00000008       __imp_GetTickCount         000000014014a008     KERNEL32:KERNEL32.dll
 0002:00000010       __imp_TerminateProcess     000000014014a010     KERNEL32:KERNEL32.dll
 0002:00000018       __imp_CreateEventW         000000014014a018     KERNEL32:KERNEL32.dll
 0002:00000020       __imp_InitializeCriticalSectionAndSpinCount 000000014014a020     KERNEL32:KERNEL32.dll
 0002:00000028       __imp_SetUnhandledExceptionFilter 000000014014a028     KERNEL32:KERNEL32.dll
 0002:00000030       __imp_UnhandledExceptionFilter 000000014014a030     KERNEL32:KERNEL32.dll
 0002:00000038       __imp_RtlVirtualUnwind     000000014014a038     KERNEL32:KERNEL32.dll
 0002:00000040       __imp_RtlLookupFunctionEntry 000000014014a040     KERNEL32:KERNEL32.dll
 0002:00000048       __imp_RtlCaptureContext    000000014014a048     KERNEL32:KERNEL32.dll
 0002:00000050       __imp_FatalAppExitA        000000014014a050     KERNEL32:KERNEL32.dll
 0002:00000058       __imp_HeapQueryInformation 000000014014a058     KERNEL32:KERNEL32.dll
 0002:00000060       __imp_HeapSize             000000014014a060     KERNEL32:KERNEL32.dll
 0002:00000068       __imp_GetCPInfo            000000014014a068     KERNEL32:KERNEL32.dll
 0002:00000070       __imp_GetOEMCP             000000014014a070     KERNEL32:KERNEL32.dll
 0002:00000078       __imp_IsValidCodePage      000000014014a078     KERNEL32:KERNEL32.dll
 0002:00000080       __imp_RtlUnwindEx          000000014014a080     KERNEL32:KERNEL32.dll
 0002:00000088       __imp_VirtualQuery         000000014014a088     KERNEL32:KERNEL32.dll
 0002:00000090       __imp_GetModuleHandleExA   000000014014a090     KERNEL32:KERNEL32.dll
 0002:00000098       __imp_LoadLibraryExA       000000014014a098     KERNEL32:KERNEL32.dll
 0002:000000a0       __imp_SetEnvironmentVariableA 000000014014a0a0     KERNEL32:KERNEL32.dll
 0002:000000a8       __imp_CreateFileW          000000014014a0a8     KERNEL32:KERNEL32.dll
 0002:000000b0       __imp_EnumSystemLocalesW   000000014014a0b0     KERNEL32:KERNEL32.dll
 0002:000000b8       __imp_GetUserDefaultLCID   000000014014a0b8     KERNEL32:KERNEL32.dll
 0002:000000c0       __imp_IsValidLocale        000000014014a0c0     KERNEL32:KERNEL32.dll
 0002:000000c8       __imp_GetLocaleInfoW       000000014014a0c8     KERNEL32:KERNEL32.dll
 0002:000000d0       __imp_LCMapStringW         000000014014a0d0     KERNEL32:KERNEL32.dll
 0002:000000d8       __imp_CompareStringW       000000014014a0d8     KERNEL32:KERNEL32.dll
 0002:000000e0       __imp_GetTimeFormatW       000000014014a0e0     KERNEL32:KERNEL32.dll
 0002:000000e8       __imp_GetDateFormatW       000000014014a0e8     KERNEL32:KERNEL32.dll
 0002:000000f0       __imp_GetStringTypeW       000000014014a0f0     KERNEL32:KERNEL32.dll
 0002:000000f8       __imp_OutputDebugStringW   000000014014a0f8     KERNEL32:KERNEL32.dll
 0002:00000100       __imp_WriteConsoleW        000000014014a100     KERNEL32:KERNEL32.dll
 0002:00000108       __imp_SetFilePointerEx     000000014014a108     KERNEL32:KERNEL32.dll
 0002:00000110       __imp_GetFileAttributesExW 000000014014a110     KERNEL32:KERNEL32.dll
 0002:00000118       __imp_LoadLibraryExW       000000014014a118     KERNEL32:KERNEL32.dll
 0002:00000120       __imp_CreateSemaphoreW     000000014014a120     KERNEL32:KERNEL32.dll
 0002:00000128       __imp_GetModuleFileNameA   000000014014a128     KERNEL32:KERNEL32.dll
 0002:00000130       __imp_GetWindowsDirectoryA 000000014014a130     KERNEL32:KERNEL32.dll
 0002:00000138       __imp_GetEnvironmentVariableA 000000014014a138     KERNEL32:KERNEL32.dll
 0002:00000140       __imp_GetLastError         000000014014a140     KERNEL32:KERNEL32.dll
 0002:00000148       __imp_SetFilePointer       000000014014a148     KERNEL32:KERNEL32.dll
 0002:00000150       __imp_WriteFile            000000014014a150     KERNEL32:KERNEL32.dll
 0002:00000158       __imp_VirtualAlloc         000000014014a158     KERNEL32:KERNEL32.dll
 0002:00000160       __imp_GetSystemInfo        000000014014a160     KERNEL32:KERNEL32.dll
 0002:00000168       __imp_VirtualFree          000000014014a168     KERNEL32:KERNEL32.dll
 0002:00000170       __imp_Sleep                000000014014a170     KERNEL32:KERNEL32.dll
 0002:00000178       __imp_TlsSetValue          000000014014a178     KERNEL32:KERNEL32.dll
 0002:00000180       __imp_TlsGetValue          000000014014a180     KERNEL32:KERNEL32.dll
 0002:00000188       __imp_TlsFree              000000014014a188     KERNEL32:KERNEL32.dll
 0002:00000190       __imp_SetLastError         000000014014a190     KERNEL32:KERNEL32.dll
 0002:00000198       __imp_TlsAlloc             000000014014a198     KERNEL32:KERNEL32.dll
 0002:000001a0       __imp_ReleaseMutex         000000014014a1a0     KERNEL32:KERNEL32.dll
 0002:000001a8       __imp_CloseHandle          000000014014a1a8     KERNEL32:KERNEL32.dll
 0002:000001b0       __imp_WaitForSingleObject  000000014014a1b0     KERNEL32:KERNEL32.dll
 0002:000001b8       __imp_GetFileType          000000014014a1b8     KERNEL32:KERNEL32.dll
 0002:000001c0       __imp_GetSystemTimeAsFileTime 000000014014a1c0     KERNEL32:KERNEL32.dll
 0002:000001c8       __imp_GetLocalTime         000000014014a1c8     KERNEL32:KERNEL32.dll
 0002:000001d0       __imp_GetProcessTimes      000000014014a1d0     KERNEL32:KERNEL32.dll
 0002:000001d8       __imp_GetCurrentProcess    000000014014a1d8     KERNEL32:KERNEL32.dll
 0002:000001e0       __imp_GetFileAttributesA   000000014014a1e0     KERNEL32:KERNEL32.dll
 0002:000001e8       __imp_GetFileSize          000000014014a1e8     KERNEL32:KERNEL32.dll
 0002:000001f0       __imp_GetFileAttributesExA 000000014014a1f0     KERNEL32:KERNEL32.dll
 0002:000001f8       __imp_LeaveCriticalSection 000000014014a1f8     KERNEL32:KERNEL32.dll
 0002:00000200       __imp_EnterCriticalSection 000000014014a200     KERNEL32:KERNEL32.dll
 0002:00000208       __imp_ReadFile             000000014014a208     KERNEL32:KERNEL32.dll
 0002:00000210       __imp_FormatMessageA       000000014014a210     KERNEL32:KERNEL32.dll
 0002:00000218       __imp_LoadLibraryA         000000014014a218     KERNEL32:KERNEL32.dll
 0002:00000220       __imp_GetThreadLocale      000000014014a220     KERNEL32:KERNEL32.dll
 0002:00000228       __imp_GetStdHandle         000000014014a228     KERNEL32:KERNEL32.dll
 0002:00000230       __imp_IsDebuggerPresent    000000014014a230     KERNEL32:KERNEL32.dll
 0002:00000238       __imp_GetProcAddress       000000014014a238     KERNEL32:KERNEL32.dll
 0002:00000240       __imp_GetModuleHandleA     000000014014a240     KERNEL32:KERNEL32.dll
 0002:00000248       __imp_FreeLibrary          000000014014a248     KERNEL32:KERNEL32.dll
 0002:00000250       __imp_CreateFileA          000000014014a250     KERNEL32:KERNEL32.dll
 0002:00000258       __imp_GetCurrentThreadId   000000014014a258     KERNEL32:KERNEL32.dll
 0002:00000260       __imp_DeleteCriticalSection 000000014014a260     KERNEL32:KERNEL32.dll
 0002:00000268       __imp_ExitThread           000000014014a268     KERNEL32:KERNEL32.dll
 0002:00000270       __imp_InitializeCriticalSection 000000014014a270     KERNEL32:KERNEL32.dll
 0002:00000278       __imp_CreateEventA         000000014014a278     KERNEL32:KERNEL32.dll
 0002:00000280       __imp_SetEvent             000000014014a280     KERNEL32:KERNEL32.dll
 0002:00000288       __imp_TerminateThread      000000014014a288     KERNEL32:KERNEL32.dll
 0002:00000290       __imp_CreateThread         000000014014a290     KERNEL32:KERNEL32.dll
 0002:00000298       __imp_GetTempPathA         000000014014a298     KERNEL32:KERNEL32.dll
 0002:000002a0       __imp_GetTempFileNameA     000000014014a2a0     KERNEL32:KERNEL32.dll
 0002:000002a8       __imp_FreeEnvironmentStringsW 000000014014a2a8     KERNEL32:KERNEL32.dll
 0002:000002b0       __imp_GetFullPathNameW     000000014014a2b0     KERNEL32:KERNEL32.dll
 0002:000002b8       __imp_GetSystemDefaultLangID 000000014014a2b8     KERNEL32:KERNEL32.dll
 0002:000002c0       __imp_GetUserDefaultLangID 000000014014a2c0     KERNEL32:KERNEL32.dll
 0002:000002c8       __imp_SetEndOfFile         000000014014a2c8     KERNEL32:KERNEL32.dll
 0002:000002d0       __imp_GetFileInformationByHandle 000000014014a2d0     KERNEL32:KERNEL32.dll
 0002:000002d8       __imp_MapViewOfFile        000000014014a2d8     KERNEL32:KERNEL32.dll
 0002:000002e0       __imp_CreateFileMappingA   000000014014a2e0     KERNEL32:KERNEL32.dll
 0002:000002e8       __imp_OpenFileMappingA     000000014014a2e8     KERNEL32:KERNEL32.dll
 0002:000002f0       __imp_UnmapViewOfFile      000000014014a2f0     KERNEL32:KERNEL32.dll
 0002:000002f8       __imp_GetHandleInformation 000000014014a2f8     KERNEL32:KERNEL32.dll
 0002:00000300       __imp_IsBadReadPtr         000000014014a300     KERNEL32:KERNEL32.dll
 0002:00000308       __imp_SetErrorMode         000000014014a308     KERNEL32:KERNEL32.dll
 0002:00000310       __imp_GetCommandLineA      000000014014a310     KERNEL32:KERNEL32.dll
 0002:00000318       __imp_GetACP               000000014014a318     KERNEL32:KERNEL32.dll
 0002:00000320       __imp_SetConsoleCtrlHandler 000000014014a320     KERNEL32:KERNEL32.dll
 0002:00000328       __imp_DeleteFileA          000000014014a328     KERNEL32:KERNEL32.dll
 0002:00000330       __imp_GetVersionExA        000000014014a330     KERNEL32:KERNEL32.dll
 0002:00000338       __imp_SetThreadPriority    000000014014a338     KERNEL32:KERNEL32.dll
 0002:00000340       __imp_CreateProcessA       000000014014a340     KERNEL32:KERNEL32.dll
 0002:00000348       __imp_FlushFileBuffers     000000014014a348     KERNEL32:KERNEL32.dll
 0002:00000350       __imp_HeapAlloc            000000014014a350     KERNEL32:KERNEL32.dll
 0002:00000358       __imp_HeapReAlloc          000000014014a358     KERNEL32:KERNEL32.dll
 0002:00000360       __imp_HeapFree             000000014014a360     KERNEL32:KERNEL32.dll
 0002:00000368       __imp_EncodePointer        000000014014a368     KERNEL32:KERNEL32.dll
 0002:00000370       __imp_DecodePointer        000000014014a370     KERNEL32:KERNEL32.dll
 0002:00000378       __imp_ResumeThread         000000014014a378     KERNEL32:KERNEL32.dll
 0002:00000380       __imp_ExitProcess          000000014014a380     KERNEL32:KERNEL32.dll
 0002:00000388       __imp_GetModuleHandleExW   000000014014a388     KERNEL32:KERNEL32.dll
 0002:00000390       __imp_AreFileApisANSI      000000014014a390     KERNEL32:KERNEL32.dll
 0002:00000398       __imp_MultiByteToWideChar  000000014014a398     KERNEL32:KERNEL32.dll
 0002:000003a0       __imp_WideCharToMultiByte  000000014014a3a0     KERNEL32:KERNEL32.dll
 0002:000003a8       __imp_IsProcessorFeaturePresent 000000014014a3a8     KERNEL32:KERNEL32.dll
 0002:000003b0       __imp_SetStdHandle         000000014014a3b0     KERNEL32:KERNEL32.dll
 0002:000003b8       __imp_GetCurrentProcessId  000000014014a3b8     KERNEL32:KERNEL32.dll
 0002:000003c0       __imp_GetConsoleCP         000000014014a3c0     KERNEL32:KERNEL32.dll
 0002:000003c8       __imp_GetConsoleMode       000000014014a3c8     KERNEL32:KERNEL32.dll
 0002:000003d0       __imp_GetCurrentThread     000000014014a3d0     KERNEL32:KERNEL32.dll
 0002:000003d8       __imp_GetProcessHeap       000000014014a3d8     KERNEL32:KERNEL32.dll
 0002:000003e0       __imp_GetStartupInfoW      000000014014a3e0     KERNEL32:KERNEL32.dll
 0002:000003e8       __imp_GetModuleFileNameW   000000014014a3e8     KERNEL32:KERNEL32.dll
 0002:000003f0       __imp_QueryPerformanceCounter 000000014014a3f0     KERNEL32:KERNEL32.dll
 0002:000003f8       __imp_GetEnvironmentStringsW 000000014014a3f8     KERNEL32:KERNEL32.dll
 0002:00000400       __imp_GetModuleHandleW     000000014014a400     KERNEL32:KERNEL32.dll
 0002:00000408       \177KERNEL32_NULL_THUNK_DATA 000000014014a408     KERNEL32:KERNEL32.dll
 0002:00000410       __imp_SCIPDEFAULTMATERIALF 000000014014a410     SCIPtool:SCIPtool.dll
 0002:00000418       __imp_SCIPNEWPROJECT       000000014014a418     SCIPtool:SCIPtool.dll
 0002:00000420       __imp_SCIPCHECKBUTTONS     000000014014a420     SCIPtool:SCIPtool.dll
 0002:00000428       __imp_SCIPWRITERELEASEMCF  000000014014a428     SCIPtool:SCIPtool.dll
 0002:00000430       __imp_SCIPLOADRELEASEMCF   000000014014a430     SCIPtool:SCIPtool.dll
 0002:00000438       __imp_SCIPRUNPROJECT       000000014014a438     SCIPtool:SCIPtool.dll
 0002:00000440       __imp_SCIPNEWPROJECTMC     000000014014a440     SCIPtool:SCIPtool.dll
 0002:00000448       __imp_SCIPLOADWEATHERF     000000014014a448     SCIPtool:SCIPtool.dll
 0002:00000450       __imp_SCIPDEFAULTWEATHERF  000000014014a450     SCIPtool:SCIPtool.dll
 0002:00000458       __imp_SCIPLOADINPF         000000014014a458     SCIPtool:SCIPtool.dll
 0002:00000460       __imp_SCIPDEFAULTINPF      000000014014a460     SCIPtool:SCIPtool.dll
 0002:00000468       __imp_SCIPEXITTOOL         000000014014a468     SCIPtool:SCIPtool.dll
 0002:00000470       __imp_SCIPSIZEPROJECTMC    000000014014a470     SCIPtool:SCIPtool.dll
 0002:00000478       __imp_SCIPINITTOOL         000000014014a478     SCIPtool:SCIPtool.dll
 0002:00000480       __imp_SCIPGETLASTERROR     000000014014a480     SCIPtool:SCIPtool.dll
 0002:00000488       __imp_SCIPINITERROR        000000014014a488     SCIPtool:SCIPtool.dll
 0002:00000490       \177SCIPtool_NULL_THUNK_DATA 000000014014a490     SCIPtool:SCIPtool.dll
 0002:00000498       __imp_DtmsUTMfromLLAdomain 000000014014a498     SWIM:SWIM.dll
 0002:000004a0       __imp_DtmsInitDatums       000000014014a4a0     SWIM:SWIM.dll
 0002:000004a8       __imp_DtmsExtendedZone     000000014014a4a8     SWIM:SWIM.dll
 0002:000004b0       \177SWIM_NULL_THUNK_DATA   000000014014a4b0     SWIM:SWIM.dll
 0002:000004b8       __imp_SYSCOPYFILE          000000014014a4b8     SYStool:SYStool.dll
 0002:000004c0       __imp_ADDEXTENSION         000000014014a4c0     SYStool:SYStool.dll
 0002:000004c8       __imp_SYSCHECKFILE         000000014014a4c8     SYStool:SYStool.dll
 0002:000004d0       __imp_SYSGETARG            000000014014a4d0     SYStool:SYStool.dll
 0002:000004d8       __imp_SYSNUMARGS           000000014014a4d8     SYStool:SYStool.dll
 0002:000004e0       __imp_SYSDELETEFILE        000000014014a4e0     SYStool:SYStool.dll
 0002:000004e8       __imp_SYSGETPROFILEINT     000000014014a4e8     SYStool:SYStool.dll
 0002:000004f0       __imp_ADDNULL              000000014014a4f0     SYStool:SYStool.dll
 0002:000004f8       __imp_STRIPNULL            000000014014a4f8     SYStool:SYStool.dll
 0002:00000500       __imp_ADDPATH              000000014014a500     SYStool:SYStool.dll
 0002:00000508       __imp_SPLITNAME            000000014014a508     SYStool:SYStool.dll
 0002:00000510       __imp_SYSGETPROFILESTRING  000000014014a510     SYStool:SYStool.dll
 0002:00000518       \177SYStool_NULL_THUNK_DATA 000000014014a518     SYStool:SYStool.dll
 0002:00000520       __imp_SymCleanup           000000014014a520     ImageHlp:imagehlp.dll
 0002:00000528       __imp_SymInitialize        000000014014a528     ImageHlp:imagehlp.dll
 0002:00000530       __imp_StackWalk64          000000014014a530     ImageHlp:imagehlp.dll
 0002:00000538       \177imagehlp_NULL_THUNK_DATA 000000014014a538     ImageHlp:imagehlp.dll
 0002:00000540       __imp_kmp_aligned_malloc   000000014014a540     libiomp5md:libiomp5md.dll
 0002:00000548       __imp_kmp_free             000000014014a548     libiomp5md:libiomp5md.dll
 0002:00000550       __imp___kmpc_begin         000000014014a550     libiomp5md:libiomp5md.dll
 0002:00000558       \177libiomp5md_NULL_THUNK_DATA 000000014014a558     libiomp5md:libiomp5md.dll
 0002:00000560       __xc_a                     000000014014a560     LIBCMT:crt0init.obj
 0002:00000568       __for_init_proc            000000014014a568     libifcoremt:for_init.obj
 0002:00000590       __xc_z                     000000014014a590     LIBCMT:crt0init.obj
 0002:00000598       __xi_a                     000000014014a598     LIBCMT:crt0init.obj
 0002:000005d0       __xi_z                     000000014014a5d0     LIBCMT:crt0init.obj
 0002:000005d8       __xp_a                     000000014014a5d8     LIBCMT:crt0init.obj
 0002:000005f8       __xp_z                     000000014014a5f8     LIBCMT:crt0init.obj
 0002:00000600       __xt_a                     000000014014a600     LIBCMT:crt0init.obj
 0002:00000608       __xt_z                     000000014014a608     LIBCMT:crt0init.obj
 0002:00009810       ??_C@_0N@A@F_UFMTENDIAN?$AA@ 0000000140153810     libifcoremt:for_open.obj
 0002:00009820       ??_C@_0BD@A@FOR_FMT_TERMINATOR?$AA@ 0000000140153820     libifcoremt:for_open.obj
 0002:00009834       ??_C@_06A@little?$AA@      0000000140153834     libifcoremt:for_open.obj
 0002:0000983c       ??_C@_03A@big?$AA@         000000014015383c     libifcoremt:for_open.obj
 0002:00009840       ??_C@_07A@little?$DL?$AA@  0000000140153840     libifcoremt:for_open.obj
 0002:00009848       ??_C@_04A@big?$DL?$AA@     0000000140153848     libifcoremt:for_open.obj
 0002:00009850       ??_C@_07A@little?3?$AA@    0000000140153850     libifcoremt:for_open.obj
 0002:00009858       ??_C@_04A@big?3?$AA@       0000000140153858     libifcoremt:for_open.obj
 0002:00009860       ??_C@_04A@CRLF?$AA@        0000000140153860     libifcoremt:for_open.obj
 0002:00009868       ??_C@_02A@LF?$AA@          0000000140153868     libifcoremt:for_open.obj
 0002:0000986c       ??_C@_02A@CR?$AA@          000000014015386c     libifcoremt:for_open.obj
 0002:00009870       ??_C@_05A@CRLF?$DL?$AA@    0000000140153870     libifcoremt:for_open.obj
 0002:00009878       ??_C@_03A@LF?$DL?$AA@      0000000140153878     libifcoremt:for_open.obj
 0002:0000987c       ??_C@_03A@CR?$DL?$AA@      000000014015387c     libifcoremt:for_open.obj
 0002:00009880       ??_C@_05A@CRLF?3?$AA@      0000000140153880     libifcoremt:for_open.obj
 0002:00009888       ??_C@_03A@LF?3?$AA@        0000000140153888     libifcoremt:for_open.obj
 0002:0000988c       ??_C@_03A@CR?3?$AA@        000000014015388c     libifcoremt:for_open.obj
 0002:00009890       ??_C@_07A@unknown?$AA@     0000000140153890     libifcoremt:for_open.obj
 0002:00009898       ??_C@_0L@A@for_open?4c?$AA@ 0000000140153898     libifcoremt:for_open.obj
 0002:000098a4       ??_C@_08A@FOR_TYPE?$AA@    00000001401538a4     libifcoremt:for_open.obj
 0002:000098b0       ??_C@_09A@FOR_PRINT?$AA@   00000001401538b0     libifcoremt:for_open.obj
 0002:000098bc       ??_C@_0L@A@FOR_ACCEPT?$AA@ 00000001401538bc     libifcoremt:for_open.obj
 0002:000098c8       ??_C@_08A@FOR_READ?$AA@    00000001401538c8     libifcoremt:for_open.obj
 0002:000098d4       ??_C@_0L@A@SEQUENTIAL?$AA@ 00000001401538d4     libifcoremt:for_open.obj
 0002:000098e0       ??_C@_06A@DIRECT?$AA@      00000001401538e0     libifcoremt:for_open.obj
 0002:000098e8       ??_C@_06A@APPEND?$AA@      00000001401538e8     libifcoremt:for_open.obj
 0002:000098f0       ??_C@_05A@KEYED?$AA@       00000001401538f0     libifcoremt:for_open.obj
 0002:000098f8       ??_C@_06A@STREAM?$AA@      00000001401538f8     libifcoremt:for_open.obj
 0002:00009900       ??_C@_04A@ZERO?$AA@        0000000140153900     libifcoremt:for_open.obj
 0002:00009908       ??_C@_04A@NULL?$AA@        0000000140153908     libifcoremt:for_open.obj
 0002:00009910       ??_C@_07A@FORTRAN?$AA@     0000000140153910     libifcoremt:for_open.obj
 0002:00009918       ??_C@_04A@LIST?$AA@        0000000140153918     libifcoremt:for_open.obj
 0002:00009920       ??_C@_04A@NONE?$AA@        0000000140153920     libifcoremt:for_open.obj
 0002:00009928       ??_C@_04A@SAVE?$AA@        0000000140153928     libifcoremt:for_open.obj
 0002:00009930       ??_C@_04A@KEEP?$AA@        0000000140153930     libifcoremt:for_open.obj
 0002:00009938       ??_C@_06A@DELETE?$AA@      0000000140153938     libifcoremt:for_open.obj
 0002:00009940       ??_C@_05A@PRINT?$AA@       0000000140153940     libifcoremt:for_open.obj
 0002:00009948       ??_C@_06A@SUBMIT?$AA@      0000000140153948     libifcoremt:for_open.obj
 0002:00009950       ??_C@_0N@A@PRINT?1DELETE?$AA@ 0000000140153950     libifcoremt:for_open.obj
 0002:00009960       ??_C@_0O@A@SUBMIT?1DELETE?$AA@ 0000000140153960     libifcoremt:for_open.obj
 0002:00009970       ??_C@_09A@FORMATTED?$AA@   0000000140153970     libifcoremt:for_open.obj
 0002:0000997c       ??_C@_0M@A@UNFORMATTED?$AA@ 000000014015397c     libifcoremt:for_open.obj
 0002:00009988       ??_C@_06A@BINARY?$AA@      0000000140153988     libifcoremt:for_open.obj
 0002:00009990       ??_C@_08A@RELATIVE?$AA@    0000000140153990     libifcoremt:for_open.obj
 0002:0000999c       ??_C@_07A@INDEXED?$AA@     000000014015399c     libifcoremt:for_open.obj
 0002:000099a4       ??_C@_05A@FIXED?$AA@       00000001401539a4     libifcoremt:for_open.obj
 0002:000099ac       ??_C@_08A@VARIABLE?$AA@    00000001401539ac     libifcoremt:for_open.obj
 0002:000099b8       ??_C@_09A@SEGMENTED?$AA@   00000001401539b8     libifcoremt:for_open.obj
 0002:000099c4       ??_C@_09A@STREAM_CR?$AA@   00000001401539c4     libifcoremt:for_open.obj
 0002:000099d0       ??_C@_09A@STREAM_LF?$AA@   00000001401539d0     libifcoremt:for_open.obj
 0002:000099dc       ??_C@_0M@A@STREAM_CRLF?$AA@ 00000001401539dc     libifcoremt:for_open.obj
 0002:000099e8       ??_C@_03A@OLD?$AA@         00000001401539e8     libifcoremt:for_open.obj
 0002:000099ec       ??_C@_03A@NEW?$AA@         00000001401539ec     libifcoremt:for_open.obj
 0002:000099f0       ??_C@_07A@SCRATCH?$AA@     00000001401539f0     libifcoremt:for_open.obj
 0002:000099f8       ??_C@_07A@UNKNOWN?$AA@     00000001401539f8     libifcoremt:for_open.obj
 0002:00009a00       ??_C@_07A@REPLACE?$AA@     0000000140153a00     libifcoremt:for_open.obj
 0002:00009a08       ??_C@_0L@A@BIG_ENDIAN?$AA@ 0000000140153a08     libifcoremt:for_open.obj
 0002:00009a14       ??_C@_0O@A@LITTLE_ENDIAN?$AA@ 0000000140153a14     libifcoremt:for_open.obj
 0002:00009a24       ??_C@_04A@VAXD?$AA@        0000000140153a24     libifcoremt:for_open.obj
 0002:00009a2c       ??_C@_04A@VAXG?$AA@        0000000140153a2c     libifcoremt:for_open.obj
 0002:00009a34       ??_C@_04A@CRAY?$AA@        0000000140153a34     libifcoremt:for_open.obj
 0002:00009a3c       ??_C@_03A@IBM?$AA@         0000000140153a3c     libifcoremt:for_open.obj
 0002:00009a40       ??_C@_03A@FDX?$AA@         0000000140153a40     libifcoremt:for_open.obj
 0002:00009a44       ??_C@_03A@FGX?$AA@         0000000140153a44     libifcoremt:for_open.obj
 0002:00009a48       ??_C@_06A@NATIVE?$AA@      0000000140153a48     libifcoremt:for_open.obj
 0002:00009a50       ??_C@_04A@READ?$AA@        0000000140153a50     libifcoremt:for_open.obj
 0002:00009a58       ??_C@_09A@READWRITE?$AA@   0000000140153a58     libifcoremt:for_open.obj
 0002:00009a64       ??_C@_05A@WRITE?$AA@       0000000140153a64     libifcoremt:for_open.obj
 0002:00009a6c       ??_C@_0L@A@APOSTROPHE?$AA@ 0000000140153a6c     libifcoremt:for_open.obj
 0002:00009a78       ??_C@_05A@QUOTE?$AA@       0000000140153a78     libifcoremt:for_open.obj
 0002:00009a80       ??_C@_02A@NO?$AA@          0000000140153a80     libifcoremt:for_open.obj
 0002:00009a84       ??_C@_03A@YES?$AA@         0000000140153a84     libifcoremt:for_open.obj
 0002:00009a88       ??_C@_04A@ASIS?$AA@        0000000140153a88     libifcoremt:for_open.obj
 0002:00009a90       ??_C@_06A@REWIND?$AA@      0000000140153a90     libifcoremt:for_open.obj
 0002:00009a98       ??_C@_06A@COMPAT?$AA@      0000000140153a98     libifcoremt:for_open.obj
 0002:00009aa0       ??_C@_08A@DENYNONE?$AA@    0000000140153aa0     libifcoremt:for_open.obj
 0002:00009aac       ??_C@_06A@DENYRD?$AA@      0000000140153aac     libifcoremt:for_open.obj
 0002:00009ab4       ??_C@_06A@DENYRW?$AA@      0000000140153ab4     libifcoremt:for_open.obj
 0002:00009abc       ??_C@_06A@DENYWR?$AA@      0000000140153abc     libifcoremt:for_open.obj
 0002:00009ac4       ??_C@_02A@UP?$AA@          0000000140153ac4     libifcoremt:for_open.obj
 0002:00009ac8       ??_C@_04A@DOWN?$AA@        0000000140153ac8     libifcoremt:for_open.obj
 0002:00009ad0       ??_C@_07A@NEAREST?$AA@     0000000140153ad0     libifcoremt:for_open.obj
 0002:00009ad8       ??_C@_0L@A@COMPATIBLE?$AA@ 0000000140153ad8     libifcoremt:for_open.obj
 0002:00009ae4       ??_C@_0BC@A@PROCESSOR_DEFINED?$AA@ 0000000140153ae4     libifcoremt:for_open.obj
 0002:00009af8       ??_C@_05A@COMMA?$AA@       0000000140153af8     libifcoremt:for_open.obj
 0002:00009b00       ??_C@_05A@POINT?$AA@       0000000140153b00     libifcoremt:for_open.obj
 0002:00009b08       ??_C@_04A@PLUS?$AA@        0000000140153b08     libifcoremt:for_open.obj
 0002:00009b10       ??_C@_08A@SUPPRESS?$AA@    0000000140153b10     libifcoremt:for_open.obj
 0002:00009b1c       ??_C@_07A@DEFAULT?$AA@     0000000140153b1c     libifcoremt:for_open.obj
 0002:00009b24       ??_C@_05A@UTF?98?$AA@      0000000140153b24     libifcoremt:for_open.obj
 0002:00009b2c       ??_C@_07A@ACCESS?$DN?$AA@  0000000140153b2c     libifcoremt:for_open.obj
 0002:00009b34       ??_C@_07A@ACTION?$DN?$AA@  0000000140153b34     libifcoremt:for_open.obj
 0002:00009b3c       ??_C@_0BD@A@ASSOCIATEVARIABLE?$DN?$AA@ 0000000140153b3c     libifcoremt:for_open.obj
 0002:00009b50       ??_C@_0O@A@ASYNCHRONOUS?$DN?$AA@ 0000000140153b50     libifcoremt:for_open.obj
 0002:00009b60       ??_C@_09A@BUFFERED?$DN?$AA@ 0000000140153b60     libifcoremt:for_open.obj
 0002:00009b6c       ??_C@_08A@DISPOSE?$DN?$AA@ 0000000140153b6c     libifcoremt:for_open.obj
 0002:00009b78       ??_C@_05A@FORM?$DN?$AA@    0000000140153b78     libifcoremt:for_open.obj
 0002:00009b80       ??_C@_08A@IOFOCUS?$DN?$AA@ 0000000140153b80     libifcoremt:for_open.obj
 0002:00009b8c       ??_C@_07A@MAXREC?$DN?$AA@  0000000140153b8c     libifcoremt:for_open.obj
 0002:00009b94       ??_C@_05A@MODE?$DN?$AA@    0000000140153b94     libifcoremt:for_open.obj
 0002:00009b9c       ??_C@_08A@NOSHARED?$AA@    0000000140153b9c     libifcoremt:for_open.obj
 0002:00009ba8       ??_C@_0O@A@ORGANIZATION?$DN?$AA@ 0000000140153ba8     libifcoremt:for_open.obj
 0002:00009bb8       ??_C@_09A@POSITION?$DN?$AA@ 0000000140153bb8     libifcoremt:for_open.obj
 0002:00009bc4       ??_C@_08A@READONLY?$AA@    0000000140153bc4     libifcoremt:for_open.obj
 0002:00009bd0       ??_C@_05A@RECL?$DN?$AA@    0000000140153bd0     libifcoremt:for_open.obj
 0002:00009bd8       ??_C@_0M@A@RECORDTYPE?$DN?$AA@ 0000000140153bd8     libifcoremt:for_open.obj
 0002:00009be4       ??_C@_06A@SHARE?$DN?$AA@   0000000140153be4     libifcoremt:for_open.obj
 0002:00009bec       ??_C@_06A@SHARED?$AA@      0000000140153bec     libifcoremt:for_open.obj
 0002:00009bf4       ??_C@_07A@STATUS?$DN?$AA@  0000000140153bf4     libifcoremt:for_open.obj
 0002:00009bfc       ??_C@_06A@TITLE?$DN?$AA@   0000000140153bfc     libifcoremt:for_open.obj
 0002:00009c04       ??_C@_0N@A@FORT_CONVERT?$AA@ 0000000140153c04     libifcoremt:for_open.obj
 0002:00009c14       ??_C@_0P@A@FORT_CONVERT?$CFd?$AA@ 0000000140153c14     libifcoremt:for_open.obj
 0002:00009c24       ??_C@_06A@CONIN$?$AA@      0000000140153c24     libifcoremt:for_open.obj
 0002:00009c2c       ??_C@_07A@CONOUT$?$AA@     0000000140153c2c     libifcoremt:for_open.obj
 0002:00009cf8       ??_C@_0P@A@for_rseq_fmt?4c?$AA@ 0000000140153cf8     libifcoremt:for_rseq_fmt.obj
 0002:00009d88       ??_C@_0N@A@for_f90str?4c?$AA@ 0000000140153d88     libifcoremt:for_f90str.obj
 0002:00009d98       ??_C@_0N@A@for_rewind?4c?$AA@ 0000000140153d98     libifcoremt:for_rewind.obj
 0002:00009e88       ??_C@_0P@A@for_rint_fmt?4c?$AA@ 0000000140153e88     libifcoremt:for_rint_fmt.obj
 0002:00009e98       ??_C@_0CC@A@Internal?5Formatted?5Read?5or?5DECODE?$AA@ 0000000140153e98     libifcoremt:for_rint_fmt.obj
 0002:00009ebc       ??_C@_06A@DECODE?$AA@      0000000140153ebc     libifcoremt:for_rint_fmt.obj
 0002:00009ec4       ??_C@_0BI@A@Internal?5Formatted?5Read?$AA@ 0000000140153ec4     libifcoremt:for_rint_fmt.obj
 0002:0000a1fc       ??_C@_0P@A@for_rint_lis?4c?$AA@ 00000001401541fc     libifcoremt:for_rint_lis.obj
 0002:0000a20c       ??_C@_0BM@A@Internal?5List?9Directed?5Read?$AA@ 000000014015420c     libifcoremt:for_rint_lis.obj
 0002:0000a228       ??_C@_0BB@A@for_reentrancy?4c?$AA@ 0000000140154228     libifcoremt:for_reentrancy.obj
 0002:0000a394       ??_C@_0P@A@for_wseq_lis?4c?$AA@ 0000000140154394     libifcoremt:for_wseq_lis.obj
 0002:0000a4b0       ??_C@_0P@A@for_wseq_fmt?4c?$AA@ 00000001401544b0     libifcoremt:for_wseq_fmt.obj
 0002:0000a4c0       ??_C@_03A@Inf?$AA@         00000001401544c0     libifcoremt:for_wseq_fmt.obj
 0002:0000a4c4       ??_C@_08A@Infinity?$AA@    00000001401544c4     libifcoremt:for_wseq_fmt.obj
 0002:0000a5e0       ??_C@_09A@UNDEFINED?$AA@   00000001401545e0     libifcoremt:for_inquire.obj
 0002:0000a5ec       ??_C@_0O@A@for_inquire?4c?$AA@ 00000001401545ec     libifcoremt:for_inquire.obj
 0002:0000a8c0       ??_C@_0P@A@for_rseq_lis?4c?$AA@ 00000001401548c0     libifcoremt:for_rseq_lis.obj
 0002:0000a8d0       ??_C@_08A@INFINITY?$AA@    00000001401548d0     libifcoremt:for_rseq_lis.obj
 0002:0000a8dc       ??_C@_03A@NAN?$AA@         00000001401548dc     libifcoremt:for_rseq_lis.obj
 0002:0000a930       ??_C@_0L@A@for_stop?4c?$AA@ 0000000140154930     libifcoremt:for_stop.obj
 0002:0000a93c       ??_C@_05A@ABORT?$AA@       000000014015493c     libifcoremt:for_stop.obj
 0002:0000a944       ??_C@_0N@A@STOP?5message?$AA@ 0000000140154944     libifcoremt:for_stop.obj
 0002:0000aa38       ??_C@_0P@A@for_wint_fmt?4c?$AA@ 0000000140154a38     libifcoremt:for_wint_fmt.obj
 0002:0000aa48       ??_C@_0CD@A@Internal?5Formatted?5Write?5or?5ENCODE?$AA@ 0000000140154a48     libifcoremt:for_wint_fmt.obj
 0002:0000aa6c       ??_C@_06A@ENCODE?$AA@      0000000140154a6c     libifcoremt:for_wint_fmt.obj
 0002:0000aa74       ??_C@_0BJ@A@Internal?5Formatted?5Write?$AA@ 0000000140154a74     libifcoremt:for_wint_fmt.obj
 0002:0000aab8       ??_C@_0BA@A@for_backspace?4c?$AA@ 0000000140154ab8     libifcoremt:for_backspace.obj
 0002:0000abe0       ??_C@_0P@A@for_wint_lis?4c?$AA@ 0000000140154be0     libifcoremt:for_wint_lis.obj
 0002:0000abf0       ??_C@_0BN@A@Internal?5List?9Directed?5Write?$AA@ 0000000140154bf0     libifcoremt:for_wint_lis.obj
 0002:0000ac30       ??_C@_0L@A@for_rseq?4c?$AA@ 0000000140154c30     libifcoremt:for_rseq.obj
 0002:0000ac70       ??_C@_0CB@A@operation?5completed?5successfully?$AA@ 0000000140154c70     libifcoremt:for_diags_intel.obj
 0002:0000ac94       ??_C@_0BN@A@not?5a?5FORTRAN?5specific?5error?$AA@ 0000000140154c94     libifcoremt:for_diags_intel.obj
 0002:0000acb4       ??_C@_0BA@A@not?5implemented?$AA@ 0000000140154cb4     libifcoremt:for_diags_intel.obj
 0002:0000acc4       ??_C@_0BO@A@ignored?5requested?5disposition?$AA@ 0000000140154cc4     libifcoremt:for_diags_intel.obj
 0002:0000ace4       ??_C@_0DA@A@ignored?5requested?5disposition?0?5file?5not?5deleted?$AA@ 0000000140154ce4     libifcoremt:for_diags_intel.obj
 0002:0000ad20       ??_C@_0ED@A@requested?5disposition?5modified?0?5file?5not?5deleted?0?5unit?5?$CFd?0?5file?5?$CFs?$AA@ 0000000140154d20     libifcoremt:for_diags_intel.obj
 0002:0000ad80       ??_C@_0DM@A@?$EA?$CI?$CD?$CJIntel?5Fortran?5RTL?5Message?5Catalog?7V18?40?9001?5Jan?510?52017?$AA@ 0000000140154d80     libifcoremt:for_diags_intel.obj
 0002:0000adbc       ??_C@_0DF@A@internal?5consistency?5check?5failure?0?5file?5?$CFs?0?5line?5?$CFd?$AA@ 0000000140154dbc     libifcoremt:for_diags_intel.obj
 0002:0000adf4       ??_C@_0DD@A@permission?5to?5access?5file?5denied?0?5unit?5?$CFd?0?5file?5?$CFs?$AA@ 0000000140154df4     libifcoremt:for_diags_intel.obj
 0002:0000ae28       ??_C@_0DB@A@cannot?5overwrite?5existing?5file?0?5unit?5?$CFd?0?5file?5?$CFs?$AA@ 0000000140154e28     libifcoremt:for_diags_intel.obj
 0002:0000ae5c       ??_C@_0BD@A@unit?5not?5connected?$AA@ 0000000140154e5c     libifcoremt:for_diags_intel.obj
 0002:0000ae70       ??_C@_0DD@A@SOURCE?5length?5?$CFd?5does?5not?5equal?5variable?5length?5?$CFd?$AA@ 0000000140154e70     libifcoremt:for_diags_intel.obj
 0002:0000aea4       ??_C@_0DB@A@syntax?5error?5in?5NAMELIST?5input?0?5unit?5?$CFd?0?5file?5?$CFs?$AA@ 0000000140154ea4     libifcoremt:for_diags_intel.obj
 0002:0000aed8       ??_C@_0DI@A@too?5many?5values?5for?5NAMELIST?5variable?0?5unit?5?$CFd?0?5file?5?$CFs?$AA@ 0000000140154ed8     libifcoremt:for_diags_intel.obj
 0002:0000af20       ??_C@_0EC@A@invalid?5reference?5to?5variable?5in?5NAMELIST?5input?0?5unit?5?$CFd?0?5file?5?$CFs?$AA@ 0000000140154f20     libifcoremt:for_diags_intel.obj
 0002:0000af80       ??_C@_0BP@A@REWIND?5error?0?5unit?5?$CFd?0?5file?5?$CFs?$AA@ 0000000140154f80     libifcoremt:for_diags_intel.obj
 0002:0000afa0       ??_C@_0DA@A@duplicate?5file?5specifications?0?5unit?5?$CFd?0?5file?5?$CFs?$AA@ 0000000140154fa0     libifcoremt:for_diags_intel.obj
 0002:0000afd0       ??_C@_0CI@A@input?5record?5too?5long?0?5unit?5?$CFd?0?5file?5?$CFs?$AA@ 0000000140154fd0     libifcoremt:for_diags_intel.obj
 0002:0000aff8       ??_C@_0CC@A@BACKSPACE?5error?0?5unit?5?$CFd?0?5file?5?$CFs?$AA@ 0000000140154ff8     libifcoremt:for_diags_intel.obj
 0002:0000b01c       ??_C@_0CK@A@end?9of?9file?5during?5read?0?5unit?5?$CFd?0?5file?5?$CFs?$AA@ 000000014015501c     libifcoremt:for_diags_intel.obj
 0002:0000b048       ??_C@_0CO@A@record?5number?5outside?5range?0?5unit?5?$CFd?0?5file?5?$CFs?$AA@ 0000000140155048     libifcoremt:for_diags_intel.obj
 0002:0000b078       ??_C@_0BN@A@OPEN?5or?5DEFINE?5FILE?5required?$AA@ 0000000140155078     libifcoremt:for_diags_intel.obj
 0002:0000b098       ??_C@_0DE@A@too?5many?5records?5in?5I?1O?5statement?0?5unit?5?$CFd?0?5file?5?$CFs?$AA@ 0000000140155098     libifcoremt:for_diags_intel.obj
 0002:0000b0cc       ??_C@_0BO@A@CLOSE?5error?0?5unit?5?$CFd?0?5file?5?$CFs?$AA@ 00000001401550cc     libifcoremt:for_diags_intel.obj
 0002:0000b0ec       ??_C@_0CB@A@file?5not?5found?0?5unit?5?$CFd?0?5file?5?$CFs?$AA@ 00000001401550ec     libifcoremt:for_diags_intel.obj
 0002:0000b110       ??_C@_0BP@A@open?5failure?0?5unit?5?$CFd?0?5file?5?$CFs?$AA@ 0000000140155110     libifcoremt:for_diags_intel.obj
 0002:0000b130       ??_C@_0CK@A@mixed?5file?5access?5modes?0?5unit?5?$CFd?0?5file?5?$CFs?$AA@ 0000000140155130     libifcoremt:for_diags_intel.obj
 0002:0000b15c       ??_C@_0CO@A@invalid?5logical?5unit?5number?0?5unit?5?$CFd?0?5file?5?$CFs?$AA@ 000000014015515c     libifcoremt:for_diags_intel.obj
 0002:0000b18c       ??_C@_0CA@A@ENDFILE?5error?0?5unit?5?$CFd?0?5file?5?$CFs?$AA@ 000000014015518c     libifcoremt:for_diags_intel.obj
 0002:0000b1ac       ??_C@_0CE@A@unit?5already?5open?0?5unit?5?$CFd?0?5file?5?$CFs?$AA@ 00000001401551ac     libifcoremt:for_diags_intel.obj
 0002:0000b1d0       ??_C@_0DA@A@segmented?5record?5format?5error?0?5unit?5?$CFd?0?5file?5?$CFs?$AA@ 00000001401551d0     libifcoremt:for_diags_intel.obj
 0002:0000b200       ??_C@_0DI@A@attempt?5to?5access?5non?9existent?5record?0?5unit?5?$CFd?0?5file?5?$CFs?$AA@ 0000000140155200     libifcoremt:for_diags_intel.obj
 0002:0000b238       ??_C@_0CN@A@inconsistent?5record?5length?0?5unit?5?$CFd?0?5file?5?$CFs?$AA@ 0000000140155238     libifcoremt:for_diags_intel.obj
 0002:0000b268       ??_C@_0CF@A@error?5during?5write?0?5unit?5?$CFd?0?5file?5?$CFs?$AA@ 0000000140155268     libifcoremt:for_diags_intel.obj
 0002:0000b290       ??_C@_0CE@A@error?5during?5read?0?5unit?5?$CFd?0?5file?5?$CFs?$AA@ 0000000140155290     libifcoremt:for_diags_intel.obj
 0002:0000b2b4       ??_C@_0CK@A@recursive?5I?1O?5operation?0?5unit?5?$CFd?0?5file?5?$CFs?$AA@ 00000001401552b4     libifcoremt:for_diags_intel.obj
 0002:0000b2e0       ??_C@_0BM@A@insufficient?5virtual?5memory?$AA@ 00000001401552e0     libifcoremt:for_diags_intel.obj
 0002:0000b2fc       ??_C@_0CB@A@no?5such?5device?0?5unit?5?$CFd?0?5file?5?$CFs?$AA@ 00000001401552fc     libifcoremt:for_diags_intel.obj
 0002:0000b320       ??_C@_0DA@A@file?5name?5specification?5error?0?5unit?5?$CFd?0?5file?5?$CFs?$AA@ 0000000140155320     libifcoremt:for_diags_intel.obj
 0002:0000b350       ??_C@_0CL@A@inconsistent?5record?5type?0?5unit?5?$CFd?0?5file?5?$CFs?$AA@ 0000000140155350     libifcoremt:for_diags_intel.obj
 0002:0000b37c       ??_C@_0DI@A@keyword?5value?5error?5in?5OPEN?5statement?0?5unit?5?$CFd?0?5file?5?$CFs?$AA@ 000000014015537c     libifcoremt:for_diags_intel.obj
 0002:0000b3b4       ??_C@_0DF@A@inconsistent?5OPEN?1CLOSE?5parameters?0?5unit?5?$CFd?0?5file?5?$CFs?$AA@ 00000001401553b4     libifcoremt:for_diags_intel.obj
 0002:0000b3ec       ??_C@_0CJ@A@write?5to?5READONLY?5file?0?5unit?5?$CFd?0?5file?5?$CFs?$AA@ 00000001401553ec     libifcoremt:for_diags_intel.obj
 0002:0000b418       ??_C@_0CN@A@invalid?5argument?5to?5FORTRAN?5Run?9Time?5Library?$AA@ 0000000140155418     libifcoremt:for_diags_intel.obj
 0002:0000b448       ??_C@_0CM@A@invalid?5key?5specification?0?5unit?5?$CFd?0?5file?5?$CFs?$AA@ 0000000140155448     libifcoremt:for_diags_intel.obj
 0002:0000b474       ??_C@_0DL@A@inconsistent?5key?5change?5or?5duplicate?5key?0?5unit?5?$CFd?0?5file?5?$CFs?$AA@ 0000000140155474     libifcoremt:for_diags_intel.obj
 0002:0000b4b0       ??_C@_0DB@A@inconsistent?5file?5organization?0?5unit?5?$CFd?0?5file?5?$CFs?$AA@ 00000001401554b0     libifcoremt:for_diags_intel.obj
 0002:0000b4e4       ??_C@_0CK@A@specified?5record?5locked?0?5unit?5?$CFd?0?5file?5?$CFs?$AA@ 00000001401554e4     libifcoremt:for_diags_intel.obj
 0002:0000b510       ??_C@_0CE@A@no?5current?5record?0?5unit?5?$CFd?0?5file?5?$CFs?$AA@ 0000000140155510     libifcoremt:for_diags_intel.obj
 0002:0000b534       ??_C@_0CA@A@REWRITE?5error?0?5unit?5?$CFd?0?5file?5?$CFs?$AA@ 0000000140155534     libifcoremt:for_diags_intel.obj
 0002:0000b554       ??_C@_0BP@A@DELETE?5error?0?5unit?5?$CFd?0?5file?5?$CFs?$AA@ 0000000140155554     libifcoremt:for_diags_intel.obj
 0002:0000b574       ??_C@_0BP@A@UNLOCK?5error?0?5unit?5?$CFd?0?5file?5?$CFs?$AA@ 0000000140155574     libifcoremt:for_diags_intel.obj
 0002:0000b594       ??_C@_0BN@A@FIND?5error?0?5unit?5?$CFd?0?5file?5?$CFs?$AA@ 0000000140155594     libifcoremt:for_diags_intel.obj
 0002:0000b5b4       ??_C@_0CE@A@format?5syntax?5error?5at?5or?5near?5?$CF?4?$CKs?$AA@ 00000001401555b4     libifcoremt:for_diags_intel.obj
 0002:0000b5d8       ??_C@_0DB@A@list?9directed?5I?1O?5syntax?5error?0?5unit?5?$CFd?0?5file?5?$CFs?$AA@ 00000001401555d8     libifcoremt:for_diags_intel.obj
 0002:0000b60c       ??_C@_0CH@A@infinite?5format?5loop?0?5unit?5?$CFd?0?5file?5?$CFs?$AA@ 000000014015560c     libifcoremt:for_diags_intel.obj
 0002:0000b634       ??_C@_0DA@A@format?1variable?9type?5mismatch?0?5unit?5?$CFd?0?5file?5?$CFs?$AA@ 0000000140155634     libifcoremt:for_diags_intel.obj
 0002:0000b664       ??_C@_0CJ@A@syntax?5error?5in?5format?0?5unit?5?$CFd?0?5file?5?$CFs?$AA@ 0000000140155664     libifcoremt:for_diags_intel.obj
 0002:0000b690       ??_C@_0CK@A@output?5conversion?5error?0?5unit?5?$CFd?0?5file?5?$CFs?$AA@ 0000000140155690     libifcoremt:for_diags_intel.obj
 0002:0000b6bc       ??_C@_0CJ@A@input?5conversion?5error?0?5unit?5?$CFd?0?5file?5?$CFs?$AA@ 00000001401556bc     libifcoremt:for_diags_intel.obj
 0002:0000b6e8       ??_C@_0BB@A@floating?5invalid?$AA@ 00000001401556e8     libifcoremt:for_diags_intel.obj
 0002:0000b6fc       ??_C@_0DE@A@output?5statement?5overflows?5record?0?5unit?5?$CFd?0?5file?5?$CFs?$AA@ 00000001401556fc     libifcoremt:for_diags_intel.obj
 0002:0000b730       ??_C@_0DJ@A@input?5statement?5requires?5too?5much?5data?0?5unit?5?$CFd?0?5file?5?$CFs?$AA@ 0000000140155730     libifcoremt:for_diags_intel.obj
 0002:0000b76c       ??_C@_0DJ@A@variable?5format?5expression?5value?5error?0?5unit?5?$CFd?0?5file?5?$CFs?$AA@ 000000014015576c     libifcoremt:for_diags_intel.obj
 0002:0000b7a8       ??_C@_0BN@A@process?5interrupted?5?$CISIGINT?$CJ?$AA@ 00000001401557a8     libifcoremt:for_diags_intel.obj
 0002:0000b7c8       ??_C@_0BB@A@integer?5overflow?$AA@ 00000001401557c8     libifcoremt:for_diags_intel.obj
 0002:0000b7dc       ??_C@_0BH@A@integer?5divide?5by?5zero?$AA@ 00000001401557dc     libifcoremt:for_diags_intel.obj
 0002:0000b7f4       ??_C@_0BC@A@floating?5overflow?$AA@ 00000001401557f4     libifcoremt:for_diags_intel.obj
 0002:0000b808       ??_C@_0BI@A@floating?5divide?5by?5zero?$AA@ 0000000140155808     libifcoremt:for_diags_intel.obj
 0002:0000b820       ??_C@_0BD@A@floating?5underflow?$AA@ 0000000140155820     libifcoremt:for_diags_intel.obj
 0002:0000b834       ??_C@_0BJ@A@floating?5point?5exception?$AA@ 0000000140155834     libifcoremt:for_diags_intel.obj
 0002:0000b850       ??_C@_0BC@A@Abort?5trap?5signal?$AA@ 0000000140155850     libifcoremt:for_diags_intel.obj
 0002:0000b864       ??_C@_0BH@A@subscript?5out?5of?5range?$AA@ 0000000140155864     libifcoremt:for_diags_intel.obj
 0002:0000b87c       ??_C@_0BJ@A@process?5killed?5?$CISIGTERM?$CJ?$AA@ 000000014015587c     libifcoremt:for_diags_intel.obj
 0002:0000b898       ??_C@_0BH@A@process?5quit?5?$CISIGQUIT?$CJ?$AA@ 0000000140155898     libifcoremt:for_diags_intel.obj
 0002:0000b8b0       ??_C@_0BK@A@wrong?5number?5of?5arguments?$AA@ 00000001401558b0     libifcoremt:for_diags_intel.obj
 0002:0000b8cc       ??_C@_0CB@A@invalid?5argument?5to?5math?5library?$AA@ 00000001401558cc     libifcoremt:for_diags_intel.obj
 0002:0000b8f0       ??_C@_0BJ@A@undefined?5exponentiation?$AA@ 00000001401558f0     libifcoremt:for_diags_intel.obj
 0002:0000b90c       ??_C@_0CE@A@logarithm?5of?5zero?5or?5negative?5value?$AA@ 000000014015590c     libifcoremt:for_diags_intel.obj
 0002:0000b930       ??_C@_0BO@A@square?5root?5of?5negative?5value?$AA@ 0000000140155930     libifcoremt:for_diags_intel.obj
 0002:0000b950       ??_C@_0CC@A@significance?5lost?5in?5math?5library?$AA@ 0000000140155950     libifcoremt:for_diags_intel.obj
 0002:0000b974       ??_C@_0CC@A@floating?5overflow?5in?5math?5library?$AA@ 0000000140155974     libifcoremt:for_diags_intel.obj
 0002:0000b998       ??_C@_0CD@A@floating?5underflow?5in?5math?5library?$AA@ 0000000140155998     libifcoremt:for_diags_intel.obj
 0002:0000b9c0       ??_C@_0FC@A@INQUIRE?5of?5internal?5unit?9number?5is?5always?5an?5error?5?$CINOTE?3?5unit?5identifies?5a?5file?$CJ?$AA@ 00000001401559c0     libifcoremt:for_diags_intel.obj
 0002:0000ba20       ??_C@_0FJ@A@INQUIRE?5of?5internal?5unit?9number?5is?5always?5an?5error?5?$CINOTE?3?5unit?5does?5not?5identify?5a?5file?$CJ?$AA@ 0000000140155a20     libifcoremt:for_diags_intel.obj
 0002:0000ba80       ??_C@_0CB@A@adjustable?5array?5dimension?5error?$AA@ 0000000140155a80     libifcoremt:for_diags_intel.obj
 0002:0000bac0       ??_C@_0EA@A@invalid?5key?5match?5specifier?5for?5key?5direction?0?5unit?5?$CFd?0?5file?5?$CFs?$AA@ 0000000140155ac0     libifcoremt:for_diags_intel.obj
 0002:0000bb00       ??_C@_0CB@A@floating?5point?5conversion?5failed?$AA@ 0000000140155b00     libifcoremt:for_diags_intel.obj
 0002:0000bb24       ??_C@_0DP@A@F_UFMTENDIAN?5environment?5variable?5was?5ignored?3erroneous?5syntax?$AA@ 0000000140155b24     libifcoremt:for_diags_intel.obj
 0002:0000bb64       ??_C@_0DO@A@write?5exceeds?5the?5record?5length?5of?5the?5file?0?5unit?5?$CFd?0?5file?5?$CFs?$AA@ 0000000140155b64     libifcoremt:for_diags_intel.obj
 0002:0000bbc0       ??_C@_0EN@A@cannot?5allocate?5memory?5for?5the?5file?5buffer?5?9?5out?5of?5memory?0?5unit?5?$CFd?0?5file?5?$CFs?$AA@ 0000000140155bc0     libifcoremt:for_diags_intel.obj
 0002:0000bc20       ??_C@_0DI@A@FORT_FMT_RECL?5environment?5variable?5has?5erroneous?5syntax?$AA@ 0000000140155c20     libifcoremt:for_diags_intel.obj
 0002:0000bc58       ??_C@_0DJ@A@FORT_UFMT_RECL?5environment?5variable?5has?5erroneous?5syntax?$AA@ 0000000140155c58     libifcoremt:for_diags_intel.obj
 0002:0000bca0       ??_C@_0FD@A@Asynchronous?5data?5transfer?5statement?5is?5not?5allowed?5to?5this?5unit?0?5unit?5?$CFd?0?5file?5?$CFs?$AA@ 0000000140155ca0     libifcoremt:for_diags_intel.obj
 0002:0000bd00       ??_C@_0CL@A@ID?5value?5is?5out?5of?5range?0?5unit?5?$CFd?0?5file?5?$CFs?$AA@ 0000000140155d00     libifcoremt:for_diags_intel.obj
 0002:0000bd2c       ??_C@_0DM@A@incorrect?5?$CFs?5specifier?5for?5connected?5file?0?5unit?5?$CFd?0?5file?5?$CFs?$AA@ 0000000140155d2c     libifcoremt:for_diags_intel.obj
 0002:0000bd80       ??_C@_0EC@A@incorrect?5?$CFs?5specifier?5value?5for?5connected?5file?0?5unit?5?$CFd?0?5file?5?$CFs?$AA@ 0000000140155d80     libifcoremt:for_diags_intel.obj
 0002:0000bde0       ??_C@_0FI@A@there?5is?5no?5data?9edit?9descriptor?5to?5match?5a?5data?9item?5in?5the?5I?1O?5list?0?5unit?5?$CFd?0?5file?5?$CFs?$AA@ 0000000140155de0     libifcoremt:for_diags_intel.obj
 0002:0000be40       ??_C@_0DJ@A@FORT_BLOCKSIZE?5environment?5variable?5has?5erroneous?5syntax?$AA@ 0000000140155e40     libifcoremt:for_diags_intel.obj
 0002:0000be7c       ??_C@_0DL@A@FORT_BUFFERCOUNT?5environment?5variable?5has?5erroneous?5syntax?$AA@ 0000000140155e7c     libifcoremt:for_diags_intel.obj
 0002:0000beb8       ??_C@_0CD@A@cannot?5stat?5file?0?5unit?5?$CFd?0?5file?5?$CFs?$AA@ 0000000140155eb8     libifcoremt:for_diags_intel.obj
 0002:0000bee0       ??_C@_0EL@A@stream?5data?5transfer?5statement?5is?5not?5allowed?5to?5an?5unopened?5unit?0?5unit?5?$CFd?$AA@ 0000000140155ee0     libifcoremt:for_diags_intel.obj
 0002:0000bf40       ??_C@_0EN@A@stream?5data?5transfer?5statement?5is?5not?5allowed?5to?5this?5unit?0?5unit?5?$CFd?0?5file?5?$CFs?$AA@ 0000000140155f40     libifcoremt:for_diags_intel.obj
 0002:0000bfa0       ??_C@_0EA@A@position?5number?5is?5outside?5of?5the?5valid?5range?0?5unit?5?$CFd?0?5file?5?$CFs?$AA@ 0000000140155fa0     libifcoremt:for_diags_intel.obj
 0002:0000bfe0       ??_C@_0EL@A@RECL?$DN?5specifier?5may?5not?5be?5applied?5to?5stream?5access?5file?0?5unit?5?$CFd?0?5file?5?$CFs?$AA@ 0000000140155fe0     libifcoremt:for_diags_intel.obj
 0002:0000c040       ??_C@_0FL@A@BACKSPACE?5statement?5may?5not?5be?5applied?5to?5unformatted?5stream?5access?5file?0?5unit?5?$CFd?0?5file?5?$CFs?$AA@ 0000000140156040     libifcoremt:for_diags_intel.obj
 0002:0000c0a0       ??_C@_0FD@A@A?5keyword?5was?5specified?5that?5is?5not?5allowed?5with?5unformatted?5I?1O?$DL?5unit?5?$CFd?0?5file?5?$CFs?$AA@ 00000001401560a0     libifcoremt:for_diags_intel.obj
 0002:0000c100       ??_C@_0DL@A@keyword?5value?5error?5in?5a?5CLOSE?5statement?0?5unit?5?$CFd?0?5file?5?$CFs?$AA@ 0000000140156100     libifcoremt:for_diags_intel.obj
 0002:0000c13c       ??_C@_0DK@A@keyword?5value?5error?5in?5an?5I?1O?5statement?0?5unit?5?$CFd?0?5file?5?$CFs?$AA@ 000000014015613c     libifcoremt:for_diags_intel.obj
 0002:0000c180       ??_C@_0GH@A@If?5NEWUNIT?5appears?5in?5OPEN?5statement?5either?5FILE?5or?5STATUS?5?$CIwith?5value?5SCRATCH?$CJ?5specifier?5shall?5appear?$AA@ 0000000140156180     libifcoremt:for_diags_intel.obj
 0002:0000c200       ??_C@_0HF@A@The?5?8RECL?$DN?8?5value?5in?5an?5OPEN?5statement?5for?5unit?5?$CFd?0?5file?5?$CFs?0?5exceeds?5the?5maximum?5allowed?5for?5the?5file?8s?5record?5type?4?$AA@ 0000000140156200     libifcoremt:for_diags_intel.obj
 0002:0000c280       ??_C@_0EH@A@The?5FORT_BUFFERING_THRESHOLD?5environment?5variable?5has?5erroneous?5syntax?$AA@ 0000000140156280     libifcoremt:for_diags_intel.obj
 0002:0000c2e0       ??_C@_0DC@A@operation?5requires?5seek?5ability?0?5unit?5?$CFd?0?5file?5?$CFs?$AA@ 00000001401562e0     libifcoremt:for_diags_intel.obj
 0002:0000c314       ??_C@_0DN@A@Cannot?5access?5current?5working?5directory?5for?5unit?5?$CFd?0?5file?5?$CFs?$AA@ 0000000140156314     libifcoremt:for_diags_intel.obj
 0002:0000c360       ??_C@_0EA@A@invalid?5attempt?5to?5assign?5into?5a?5pointer?5that?5is?5not?5associated?$AA@ 0000000140156360     libifcoremt:for_diags_intel.obj
 0002:0000c3a0       ??_C@_0DP@A@attempt?5to?5assign?5a?5scalar?5to?5an?5unallocated?5allocatable?5array?$AA@ 00000001401563a0     libifcoremt:for_diags_intel.obj
 0002:0000c3e0       ??_C@_0DB@A@Invalid?5command?5supplied?5to?5EXECUTE_COMMAND_LINE?$AA@ 00000001401563e0     libifcoremt:for_diags_intel.obj
 0002:0000c420       ??_C@_0JP@A@A?5derived?5type?5variable?5in?5this?5statement?5requires?5a?5DT?5format?5specifier?5because?5it?5has?5a?5component?5that?5is?5ALLOCATABLE?0?5POINTER?0?5or?5PRIVATE?0?5unit?5?$CFd?0?5file?5?$CFs?$AA@ 0000000140156420     libifcoremt:for_diags_intel.obj
 0002:0000c4c0       ??_C@_0HC@A@A?5non?9advancing?5READ?5immediately?5following?5a?5non?9advancing?5WRITE?5on?5the?5same?5unit?5number?5is?5not?5allowed?0?5unit?5?$CFd?4?$AA@ 00000001401564c0     libifcoremt:for_diags_intel.obj
 0002:0000c540       ??_C@_0DO@A@User?5Defined?5I?1O?5procedure?5returned?5error?5?$CFd?0?5message?3?5?8?$CF?4?$CKs?8?$AA@ 0000000140156540     libifcoremt:for_diags_intel.obj
 0002:0000c580       ??_C@_0CB@A@Error?5Stop?5?9?5Program?5terminated?4?$AA@ 0000000140156580     libifcoremt:for_diags_intel.obj
 0002:0000c5c0       ??_C@_0EI@A@User?5Defined?5I?1O?5procedure?8s?5IOMSG?5was?5truncated?5to?5fit?5IOMSG?5variable?4?$AA@ 00000001401565c0     libifcoremt:for_diags_intel.obj
 0002:0000c620       ??_C@_0EN@A@user?5breakpoint?5?$CISIGTRAP?$CJ?5?9?5obtain?5more?5info?5on?5this?5signal?5via?5the?5debugger?$AA@ 0000000140156620     libifcoremt:for_diags_intel.obj
 0002:0000c680       ??_C@_0BM@A@kernel?5breakpoint?5?$CISIGTRAP?$CJ?$AA@ 0000000140156680     libifcoremt:for_diags_intel.obj
 0002:0000c69c       ??_C@_0CH@A@taken?5branch?5delay?5emulation?5?$CISIGTRAP?$CJ?$AA@ 000000014015669c     libifcoremt:for_diags_intel.obj
 0002:0000c6c4       ??_C@_0CL@A@not?5taken?5branch?5delay?5emulation?5?$CISIGTRAP?$CJ?$AA@ 00000001401566c4     libifcoremt:for_diags_intel.obj
 0002:0000c6f0       ??_C@_0BL@A@user?5single?5step?5?$CISIGTRAP?$CJ?$AA@ 00000001401566f0     libifcoremt:for_diags_intel.obj
 0002:0000c70c       ??_C@_0BJ@A@overflow?5check?5?$CISIGTRAP?$CJ?$AA@ 000000014015670c     libifcoremt:for_diags_intel.obj
 0002:0000c728       ??_C@_0BP@A@divide?5by?5zero?5check?5?$CISIGTRAP?$CJ?$AA@ 0000000140156728     libifcoremt:for_diags_intel.obj
 0002:0000c748       ??_C@_0CE@A@array?5index?5out?5of?5bounds?5?$CISIGTRAP?$CJ?$AA@ 0000000140156748     libifcoremt:for_diags_intel.obj
 0002:0000c76c       ??_C@_0DB@A@array?5index?5out?5of?5bounds?5for?5index?5?$CFd?5?$CISIGTRAP?$CJ?$AA@ 000000014015676c     libifcoremt:for_diags_intel.obj
 0002:0000c7a0       ??_C@_0BB@A@floating?5inexact?$AA@ 00000001401567a0     libifcoremt:for_diags_intel.obj
 0002:0000c7b4       ??_C@_0BB@A@decimal?5overflow?$AA@ 00000001401567b4     libifcoremt:for_diags_intel.obj
 0002:0000c7c8       ??_C@_0BH@A@decimal?5divide?5by?5zero?$AA@ 00000001401567c8     libifcoremt:for_diags_intel.obj
 0002:0000c7e0       ??_C@_0BA@A@decimal?5invalid?$AA@ 00000001401567e0     libifcoremt:for_diags_intel.obj
 0002:0000c7f0       ??_C@_0BB@A@reserved?5operand?$AA@ 00000001401567f0     libifcoremt:for_diags_intel.obj
 0002:0000c804       ??_C@_0BA@A@assertion?5error?$AA@ 0000000140156804     libifcoremt:for_diags_intel.obj
 0002:0000c814       ??_C@_0BD@A@null?5pointer?5error?$AA@ 0000000140156814     libifcoremt:for_diags_intel.obj
 0002:0000c828       ??_C@_0P@A@stack?5overflow?$AA@ 0000000140156828     libifcoremt:for_diags_intel.obj
 0002:0000c838       ??_C@_0BE@A@string?5length?5error?$AA@ 0000000140156838     libifcoremt:for_diags_intel.obj
 0002:0000c84c       ??_C@_0BA@A@substring?5error?$AA@ 000000014015684c     libifcoremt:for_diags_intel.obj
 0002:0000c85c       ??_C@_0M@A@range?5error?$AA@ 000000014015685c     libifcoremt:for_diags_intel.obj
 0002:0000c868       ??_C@_0CH@A@allocatable?5array?5is?5already?5allocated?$AA@ 0000000140156868     libifcoremt:for_diags_intel.obj
 0002:0000c890       ??_C@_0DM@A@unresolved?5contention?5for?5Intel?5Fortran?5RTL?5global?5resource?$AA@ 0000000140156890     libifcoremt:for_diags_intel.obj
 0002:0000c8cc       ??_C@_0CO@A@allocatable?5array?5or?5pointer?5is?5not?5allocated?$AA@ 00000001401568cc     libifcoremt:for_diags_intel.obj
 0002:0000c8fc       ??_C@_0BK@A@array?5index?5out?5of?5bounds?$AA@ 00000001401568fc     libifcoremt:for_diags_intel.obj
 0002:0000c918       ??_C@_0CH@A@array?5index?5out?5of?5bounds?5for?5index?5?$CFd?$AA@ 0000000140156918     libifcoremt:for_diags_intel.obj
 0002:0000c940       ??_C@_0BL@A@GENTRAP?5code?5?$DN?50x?$CFlx?5?$CI?$CFld?$CJ?$AA@ 0000000140156940     libifcoremt:for_diags_intel.obj
 0002:0000c95c       ??_C@_0CF@A@Program?5Exception?5?9?5access?5violation?$AA@ 000000014015695c     libifcoremt:for_diags_intel.obj
 0002:0000c984       ??_C@_0CK@A@Program?5Exception?5?9?5datatype?5misalignment?$AA@ 0000000140156984     libifcoremt:for_diags_intel.obj
 0002:0000c9b0       ??_C@_0BP@A@Program?5Exception?5?9?5breakpoint?$AA@ 00000001401569b0     libifcoremt:for_diags_intel.obj
 0002:0000c9d0       ??_C@_0CA@A@Program?5Exception?5?9?5single?5step?$AA@ 00000001401569d0     libifcoremt:for_diags_intel.obj
 0002:0000c9f0       ??_C@_0CK@A@Program?5Exception?5?9?5array?5bounds?5exceeded?$AA@ 00000001401569f0     libifcoremt:for_diags_intel.obj
 0002:0000ca1c       ??_C@_0DE@A@Program?5Exception?5?9?5denormal?5floating?9point?5operand?$AA@ 0000000140156a1c     libifcoremt:for_diags_intel.obj
 0002:0000ca50       ??_C@_0CJ@A@Program?5Exception?5?9?5floating?5stack?5check?$AA@ 0000000140156a50     libifcoremt:for_diags_intel.obj
 0002:0000ca7c       ??_C@_0CL@A@Program?5Exception?5?9?5integer?5divide?5by?5zero?$AA@ 0000000140156a7c     libifcoremt:for_diags_intel.obj
 0002:0000caa8       ??_C@_0CF@A@Program?5Exception?5?9?5integer?5overflow?$AA@ 0000000140156aa8     libifcoremt:for_diags_intel.obj
 0002:0000cad0       ??_C@_0CL@A@Program?5Exception?5?9?5privileged?5instruction?$AA@ 0000000140156ad0     libifcoremt:for_diags_intel.obj
 0002:0000cafc       ??_C@_0CC@A@Program?5Exception?5?9?5in?5page?5error?$AA@ 0000000140156afc     libifcoremt:for_diags_intel.obj
 0002:0000cb20       ??_C@_0CI@A@Program?5Exception?5?9?5illegal?5instruction?$AA@ 0000000140156b20     libifcoremt:for_diags_intel.obj
 0002:0000cb48       ??_C@_0CN@A@Program?5Exception?5?9?5noncontinuable?5exception?$AA@ 0000000140156b48     libifcoremt:for_diags_intel.obj
 0002:0000cb78       ??_C@_0CD@A@Program?5Exception?5?9?5stack?5overflow?$AA@ 0000000140156b78     libifcoremt:for_diags_intel.obj
 0002:0000cb9c       ??_C@_0CI@A@Program?5Exception?5?9?5invalid?5disposition?$AA@ 0000000140156b9c     libifcoremt:for_diags_intel.obj
 0002:0000cbc4       ??_C@_0DB@A@Program?5Exception?5?9?5exception?5code?5?$DN?50x?$CFlx?5?$CI?$CFld?$CJ?$AA@ 0000000140156bc4     libifcoremt:for_diags_intel.obj
 0002:0000cc00       ??_C@_0EO@A@A?5pointer?5passed?5to?5DEALLOCATE?5points?5to?5an?5object?5that?5cannot?5be?5deallocated?$AA@ 0000000140156c00     libifcoremt:for_diags_intel.obj
 0002:0000cc60       ??_C@_0M@A@SIGSEGV?0?5?$CFs?$AA@ 0000000140156c60     libifcoremt:for_diags_intel.obj
 0002:0000cc80       ??_C@_0EF@A@DATE?5argument?5to?5DATE_AND_TIME?5is?5too?5short?5?$CILEN?$DN?$CFd?$CJ?0?5required?5LEN?$DN8?$AA@ 0000000140156c80     libifcoremt:for_diags_intel.obj
 0002:0000cce0       ??_C@_0EG@A@TIME?5argument?5to?5DATE_AND_TIME?5is?5too?5short?5?$CILEN?$DN?$CFd?$CJ?0?5required?5LEN?$DN10?$AA@ 0000000140156ce0     libifcoremt:for_diags_intel.obj
 0002:0000cd40       ??_C@_0EF@A@ZONE?5argument?5to?5DATE_AND_TIME?5is?5too?5short?5?$CILEN?$DN?$CFd?$CJ?0?5required?5LEN?$DN5?$AA@ 0000000140156d40     libifcoremt:for_diags_intel.obj
 0002:0000cda0       ??_C@_0P@A@Divide?5by?5zero?$AA@ 0000000140156da0     libifcoremt:for_diags_intel.obj
 0002:0000cdb0       ??_C@_0DM@A@Cannot?5allocate?5array?5?9?5overflow?5on?5array?5size?5calculation?4?$AA@ 0000000140156db0     libifcoremt:for_diags_intel.obj
 0002:0000cdec       ??_C@_0L@A@SIGBUS?0?5?$CFs?$AA@ 0000000140156dec     libifcoremt:for_diags_intel.obj
 0002:0000ce00       ??_C@_0FE@A@Unlimited?9format?9item?5is?5?$CK?$CIformat?9item?9list?$CJ?4?5Format?9item?5in?5list?5must?5not?5be?5empty?$AA@ 0000000140156e00     libifcoremt:for_diags_intel.obj
 0002:0000ce60       ??_C@_0EB@A@floating?5invalid?5?9?5possible?5uninitialized?5real?1complex?5variable?4?$AA@ 0000000140156e60     libifcoremt:for_diags_intel.obj
 0002:0000cec0       ??_C@_0GN@A@FASTMEM?5allocation?5is?5requested?5but?5the?5libmemkind?5library?5is?5not?5linked?5in?0?5so?5using?5the?5default?5allocator?4?$AA@ 0000000140156ec0     libifcoremt:for_diags_intel.obj
 0002:0000cf40       ??_C@_0FO@A@FASTMEM?5allocation?5is?5requested?5but?5the?5libmemkind?5library?5is?5not?5linked?5into?5the?5executable?4?$AA@ 0000000140156f40     libifcoremt:for_diags_intel.obj
 0002:0000cfa0       ??_C@_0GB@A@FASTMEM?5allocation?5is?5requested?5but?5HBW?5memory?5is?5not?5available?0?5so?5using?5the?5default?5allocator?4?$AA@ 0000000140156fa0     libifcoremt:for_diags_intel.obj
 0002:0000d020       ??_C@_0EO@A@FASTMEM?5allocation?5is?5requested?5but?5HBW?5memory?5is?5not?5available?5on?5this?5node?4?$AA@ 0000000140157020     libifcoremt:for_diags_intel.obj
 0002:0000d080       ??_C@_0GO@A@An?5assignment?5was?5made?5from?5an?5object?5of?5one?5size?5to?5an?5object?5of?5a?5different?5size?5that?5cannot?5be?5deallocated?$AA@ 0000000140157080     libifcoremt:for_diags_intel.obj
 0002:0000d100       ??_C@_0DP@A@LHS?5and?5RHS?5of?5an?5assignment?5statement?5have?5incompatible?5types?$AA@ 0000000140157100     libifcoremt:for_diags_intel.obj
 0002:0000d140       ??_C@_0DE@A@for?5allocate?$CIsource?$DN?$CJ?0?5source?5needs?5to?5be?5allocated?$AA@ 0000000140157140     libifcoremt:for_diags_intel.obj
 0002:0000d180       ??_C@_0EO@A@Run?9Time?5Check?5Failure?4?5The?5variable?5?8?$CFs?8?5is?5being?5used?5without?5being?5defined?$AA@ 0000000140157180     libifcoremt:for_diags_intel.obj
 0002:0000d1e0       ??_C@_0FG@A@Run?9Time?5Check?5Failure?4?5The?5variable?5?8?$CFs?8?5is?5being?5used?5in?5?8?$CFs?8?5without?5being?5defined?$AA@ 00000001401571e0     libifcoremt:for_diags_intel.obj
 0002:0000d240       ??_C@_0CB@A@program?5aborting?5due?5to?5?$CFs?5event?$AA@ 0000000140157240     libifcoremt:for_diags_intel.obj
 0002:0000d264       ??_C@_0DO@A@Intel?5Pentium?5fdiv?5flaw?5detected?0?5please?5update?5the?5processor?$AA@ 0000000140157264     libifcoremt:for_diags_intel.obj
 0002:0000d2c0       ??_C@_0EH@A@unformatted?5I?1O?5to?5unit?5open?5for?5formatted?5transfers?0?5unit?5?$CFd?0?5file?5?$CFs?$AA@ 00000001401572c0     libifcoremt:for_diags_intel.obj
 0002:0000d320       ??_C@_0EH@A@formatted?5I?1O?5to?5unit?5open?5for?5unformatted?5transfers?0?5unit?5?$CFd?0?5file?5?$CFs?$AA@ 0000000140157320     libifcoremt:for_diags_intel.obj
 0002:0000d380       ??_C@_0EC@A@direct?9access?5I?1O?5to?5unit?5open?5for?5keyed?5access?0?5unit?5?$CFd?0?5file?5?$CFs?$AA@ 0000000140157380     libifcoremt:for_diags_intel.obj
 0002:0000d3e0       ??_C@_0EH@A@sequential?9access?5I?1O?5to?5unit?5open?5for?5direct?5access?0?5unit?5?$CFd?0?5file?5?$CFs?$AA@ 00000001401573e0     libifcoremt:for_diags_intel.obj
 0002:0000d440       ??_C@_0EC@A@keyed?9access?5I?1O?5to?5unit?5open?5for?5direct?5access?0?5unit?5?$CFd?0?5file?5?$CFs?$AA@ 0000000140157440     libifcoremt:for_diags_intel.obj
 0002:0000d4a0       ??_C@_0BI@A@I?1O?5to?5non?9FORTRAN?5unit?$AA@ 00000001401574a0     libifcoremt:for_diags_intel.obj
 0002:0000d4b8       ??_C@_0CH@A@invalid?5text?5is?5?$CFs?5in?5record?5number?5?$CFd?$AA@ 00000001401574b8     libifcoremt:for_diags_intel.obj
 0002:0000d4e0       ??_C@_0BD@A@invalid?5text?5is?5?$CFs?$AA@ 00000001401574e0     libifcoremt:for_diags_intel.obj
 0002:0000d500       ??_C@_0EA@A@operation?5requires?5file?5to?5be?5on?5disk?5or?5tape?0?5unit?5?$CFd?0?5file?5?$CFs?$AA@ 0000000140157500     libifcoremt:for_diags_intel.obj
 0002:0000d540       ??_C@_0EN@A@operation?5requires?5sequential?5file?5organization?5and?5access?0?5unit?5?$CFd?0?5file?5?$CFs?$AA@ 0000000140157540     libifcoremt:for_diags_intel.obj
 0002:0000d5a0       ??_C@_0BN@A@FORTRAN?5abort?5routine?5called?$AA@ 00000001401575a0     libifcoremt:for_diags_intel.obj
 0002:0000d5c0       ??_C@_0CM@A@end?5of?5record?5during?5read?0?5unit?5?$CFd?0?5file?5?$CFs?$AA@ 00000001401575c0     libifcoremt:for_diags_intel.obj
 0002:0000d600       ??_C@_0FA@A@Another?5process?5has?5this?5file?5locked?5for?5shared?1exclusive?5use?0?5unit?5?$CFd?0?5file?5?$CFs?$AA@ 0000000140157600     libifcoremt:for_diags_intel.obj
 0002:0000d660       ??_C@_0IF@A@A?5SHARE?$DN?5lock?5request?5in?5an?5OPEN?5statement?5is?5incompatible?5with?5a?5?$FLNO?$FNSHARED?5specifier?5and?1or?5the?5file?8s?5open?5mode?0?5unit?5?$CFd?0?5file?5?$CFs?$AA@ 0000000140157660     libifcoremt:for_diags_intel.obj
 0002:0000d700       ??_C@_0BK@A@?$CFd?5floating?5inexact?5traps?$AA@ 0000000140157700     libifcoremt:for_diags_intel.obj
 0002:0000d71c       ??_C@_0BK@A@?$CFd?5floating?5invalid?5traps?$AA@ 000000014015771c     libifcoremt:for_diags_intel.obj
 0002:0000d738       ??_C@_0BL@A@?$CFd?5floating?5overflow?5traps?$AA@ 0000000140157738     libifcoremt:for_diags_intel.obj
 0002:0000d754       ??_C@_0CB@A@?$CFd?5floating?5divide?9by?9zero?5traps?$AA@ 0000000140157754     libifcoremt:for_diags_intel.obj
 0002:0000d778       ??_C@_0BM@A@?$CFd?5floating?5underflow?5traps?$AA@ 0000000140157778     libifcoremt:for_diags_intel.obj
 0002:0000d7a0       ??_C@_0EB@A@Diagnostic?5message?5buffer?5overflow?0?5hex?5message?5number?5was?5?$CF8?48x?$AA@ 00000001401577a0     libifcoremt:for_diags_intel.obj
 0002:0000d800       ??_C@_02A@?$CFs?$AA@       0000000140157800     libifcoremt:for_diags_intel.obj
 0002:0000d804       ??_C@_08A@forrtl?3?5?$AA@  0000000140157804     libifcoremt:for_diags_intel.obj
 0002:0000d810       ??_C@_0BE@A@forrtl?3?5info?5?$CI?$CFi?$CJ?3?5?$AA@ 0000000140157810     libifcoremt:for_diags_intel.obj
 0002:0000d824       ??_C@_0BH@A@forrtl?3?5warning?5?$CI?$CFi?$CJ?3?5?$AA@ 0000000140157824     libifcoremt:for_diags_intel.obj
 0002:0000d83c       ??_C@_0BF@A@forrtl?3?5error?5?$CI?$CFi?$CJ?3?5?$AA@ 000000014015783c     libifcoremt:for_diags_intel.obj
 0002:0000d854       ??_C@_0BG@A@forrtl?3?5severe?5?$CI?$CFi?$CJ?3?5?$AA@ 0000000140157854     libifcoremt:for_diags_intel.obj
 0002:0000d86c       ??_C@_06A@forrtl?$AA@      000000014015786c     libifcoremt:for_diags_intel.obj
 0002:0000d874       ??_C@_0BC@A@Message?5not?5found?$AA@ 0000000140157874     libifcoremt:for_diags_intel.obj
 0002:0000d888       ??_C@_0DE@A@Insufficient?5memory?5to?5allocate?5Fortran?5RTL?5message?$AA@ 0000000140157888     libifcoremt:for_diags_intel.obj
 0002:0000d8c0       ??_C@_0EI@A@Insufficient?5memory?5to?5allocate?5Fortran?5RTL?5message?5buffer?0?5message?5?$CD?$CFd?$AA@ 00000001401578c0     libifcoremt:for_diags_intel.obj
 0002:0000d920       ??_C@_0FF@A@Insufficient?5memory?5to?5allocate?5Fortran?5RTL?5message?5buffer?0?5message?5?$CD?$CFd?5?$DN?5hex?5?$CF8?48x?4?$AA@ 0000000140157920     libifcoremt:for_diags_intel.obj
 0002:0000d980       ??_C@_0DD@A@FormatMessage?5failed?5for?5system?5message?5number?5?$CFi?4?$AA@ 0000000140157980     libifcoremt:for_diags_intel.obj
 0002:0000d9b4       ??_C@_0CI@A@Intel?$CIr?$CJ?5Visual?5Fortran?5run?9time?5error?5?$AA@ 00000001401579b4     libifcoremt:for_diags_intel.obj
 0002:0000d9e0       ??_C@_0EH@A@?5The?5allocation?5of?5dynamic?5common?5?$CFs?5of?5size?5?$CFs?5in?5procedure?5?$CFs?5failed?$AA@ 00000001401579e0     libifcoremt:for_diags_intel.obj
 0002:0000da40       ??_C@_0CN@A@?5The?5current?5size?5of?5dynamic?5common?5?$CFs?5is?5?$CFs?$AA@ 0000000140157a40     libifcoremt:for_diags_intel.obj
 0002:0000da70       ??_C@_0CP@A@?5The?5declared?5size?5in?5procedure?5?$CFs?5is?5?$CFs?5bytes?$AA@ 0000000140157a70     libifcoremt:for_diags_intel.obj
 0002:0000daa0       ??_C@_0EC@A@?5Heap?5Allocation?5Failure?5while?5creating?5common?5?$CFs?5in?5procedure?5?$CFs?$AA@ 0000000140157aa0     libifcoremt:for_diags_intel.obj
 0002:0000db00       ??_C@_07A@Unknown?$AA@     0000000140157b00     libifcoremt:for_diags_intel.obj
 0002:0000db08       ??_C@_0BH@A@?0?5line?5?$CFs?0?5position?5?$CFd?$AA@ 0000000140157b08     libifcoremt:for_diags_intel.obj
 0002:0000db20       ??_C@_0CF@A@?$CFsAllocate?5Dynamic?5Common?5Error?5?9?5?$CFs?$AA@ 0000000140157b20     libifcoremt:for_diags_intel.obj
 0002:0000db48       ??_C@_0BD@A@Allocation?5Failure?$AA@ 0000000140157b48     libifcoremt:for_diags_intel.obj
 0002:0000db5c       ??_C@_0BJ@A@Inconsistent?5Common?5Size?$AA@ 0000000140157b5c     libifcoremt:for_diags_intel.obj
 0002:0000db78       ??_C@_0L@A@Empty?5Heap?$AA@ 0000000140157b78     libifcoremt:for_diags_intel.obj
 0002:0000db84       ??_C@_0DF@A@Incrementally?5linked?5image?9?9PC?5correlation?5disabled?4?$AA@ 0000000140157b84     libifcoremt:for_diags_intel.obj
 0002:0000dbbc       ??_C@_0CD@A@Stack?5trace?5terminated?5abnormally?4?$AA@ 0000000140157bbc     libifcoremt:for_diags_intel.obj
 0002:0000dbe0       ??_C@_0BL@A@Stop?5?9?5Program?5terminated?4?$AA@ 0000000140157be0     libifcoremt:for_diags_intel.obj
 0002:0000dbfc       ??_C@_0N@A@Return?5code?5?$AA@ 0000000140157bfc     libifcoremt:for_diags_intel.obj
 0002:0000dc0c       ??_C@_0DE@A@File?5name?5missing?5or?5blank?5?9?5please?5enter?5file?5name?$AA@ 0000000140157c0c     libifcoremt:for_diags_intel.obj
 0002:0000dc40       ??_C@_09A@UNIT?5?$CFd?$DP?5?$AA@ 0000000140157c40     libifcoremt:for_diags_intel.obj
 0002:0000dc4c       ??_C@_0CB@A@IEEE_DIVIDE_BY_ZERO?5is?5signaling?$AA@ 0000000140157c4c     libifcoremt:for_diags_intel.obj
 0002:0000dc70       ??_C@_0BK@A@IEEE_INVALID?5is?5signaling?$AA@ 0000000140157c70     libifcoremt:for_diags_intel.obj
 0002:0000dc8c       ??_C@_0BL@A@IEEE_OVERFLOW?5is?5signaling?$AA@ 0000000140157c8c     libifcoremt:for_diags_intel.obj
 0002:0000dca8       ??_C@_0BM@A@IEEE_UNDERFLOW?5is?5signaling?$AA@ 0000000140157ca8     libifcoremt:for_diags_intel.obj
 0002:0000dcc4       ??_C@_0CO@A@Attempt?5to?5close?5unit?5?$CFd?0?5which?5was?5not?5open?4?$AA@ 0000000140157cc4     libifcoremt:for_diags_intel.obj
 0002:0000dcf4       ??_C@_0DF@A@array?5or?5substring?5subscript?5expression?5out?5of?5range?$AA@ 0000000140157cf4     libifcoremt:for_diags_intel.obj
 0002:0000dd2c       ??_C@_0CM@A@CHARACTER?5substring?5expression?5out?5of?5range?$AA@ 0000000140157d2c     libifcoremt:for_diags_intel.obj
 0002:0000dd58       ??_C@_0CG@A@label?5not?5found?5in?5assigned?5GOTO?5list?$AA@ 0000000140157d58     libifcoremt:for_diags_intel.obj
 0002:0000dd80       ??_C@_0BM@A@INTEGER?5arithmetic?5overflow?$AA@ 0000000140157d80     libifcoremt:for_diags_intel.obj
 0002:0000dd9c       ??_C@_0BK@A@INTEGER?5overflow?5on?5input?$AA@ 0000000140157d9c     libifcoremt:for_diags_intel.obj
 0002:0000ddb8       ??_C@_0BA@A@invalid?5INTEGER?$AA@ 0000000140157db8     libifcoremt:for_diags_intel.obj
 0002:0000ddc8       ??_C@_0DC@A@REAL?5indefinite?5?$CIuninitialized?5or?5previous?5error?$CJ?$AA@ 0000000140157dc8     libifcoremt:for_diags_intel.obj
 0002:0000ddfc       ??_C@_0N@A@invalid?5REAL?$AA@ 0000000140157dfc     libifcoremt:for_diags_intel.obj
 0002:0000de0c       ??_C@_0BD@A@REAL?5math?5overflow?$AA@ 0000000140157e0c     libifcoremt:for_diags_intel.obj
 0002:0000de20       ??_C@_0CH@A@No?5matching?5CASE?5found?5for?5SELECT?5CASE?$AA@ 0000000140157e20     libifcoremt:for_diags_intel.obj
 0002:0000de48       ??_C@_0BM@A@INTEGER?5assignment?5overflow?$AA@ 0000000140157e48     libifcoremt:for_diags_intel.obj
 0002:0000de64       ??_C@_0CP@A@formatted?5I?1O?5not?5consistent?5with?5OPEN?5options?$AA@ 0000000140157e64     libifcoremt:for_diags_intel.obj
 0002:0000de94       ??_C@_0DD@A@list?9directed?5I?1O?5not?5consistent?5with?5OPEN?5options?$AA@ 0000000140157e94     libifcoremt:for_diags_intel.obj
 0002:0000dec8       ??_C@_0CO@A@terminal?5I?1O?5not?5consistent?5with?5OPEN?5options?$AA@ 0000000140157ec8     libifcoremt:for_diags_intel.obj
 0002:0000def8       ??_C@_0CM@A@direct?5I?1O?5not?5consistent?5with?5OPEN?5options?$AA@ 0000000140157ef8     libifcoremt:for_diags_intel.obj
 0002:0000df24       ??_C@_0DB@A@unformatted?5I?1O?5not?5consistent?5with?5OPEN?5options?$AA@ 0000000140157f24     libifcoremt:for_diags_intel.obj
 0002:0000df58       ??_C@_0CJ@A@A?5edit?5descriptor?5expected?5for?5CHARACTER?$AA@ 0000000140157f58     libifcoremt:for_diags_intel.obj
 0002:0000df84       ??_C@_0CP@A@E?0?5F?0?5D?5or?5G?5edit?5descriptor?5expected?5for?5REAL?$AA@ 0000000140157f84     libifcoremt:for_diags_intel.obj
 0002:0000dfb4       ??_C@_0CH@A@I?5edit?5descriptor?5expected?5for?5INTEGER?$AA@ 0000000140157fb4     libifcoremt:for_diags_intel.obj
 0002:0000dfdc       ??_C@_0CH@A@L?5edit?5descriptor?5expected?5for?5LOGICAL?$AA@ 0000000140157fdc     libifcoremt:for_diags_intel.obj
 0002:0000e004       ??_C@_0CH@A@file?5already?5open?5?3?5parameter?5mismatch?$AA@ 0000000140158004     libifcoremt:for_diags_intel.obj
 0002:0000e02c       ??_C@_0CO@A@namelist?5I?1O?5not?5consistent?5with?5OPEN?5options?$AA@ 000000014015802c     libifcoremt:for_diags_intel.obj
 0002:0000e05c       ??_C@_0CF@A@IOFOCUS?5illegal?5with?5non?9window?5unit?$AA@ 000000014015805c     libifcoremt:for_diags_intel.obj
 0002:0000e084       ??_C@_0CB@A@IOFOCUS?5illegal?5without?5QuickWin?$AA@ 0000000140158084     libifcoremt:for_diags_intel.obj
 0002:0000e0a8       ??_C@_0CD@A@TITLE?5illegal?5with?5non?9window?5unit?$AA@ 00000001401580a8     libifcoremt:for_diags_intel.obj
 0002:0000e0cc       ??_C@_0BP@A@TITLE?5illegal?5without?5QuickWin?$AA@ 00000001401580cc     libifcoremt:for_diags_intel.obj
 0002:0000e0ec       ??_C@_0BO@A@KEEP?5illegal?5for?5scratch?5file?$AA@ 00000001401580ec     libifcoremt:for_diags_intel.obj
 0002:0000e10c       ??_C@_0BP@A@SCRATCH?5illegal?5for?5named?5file?$AA@ 000000014015810c     libifcoremt:for_diags_intel.obj
 0002:0000e12c       ??_C@_0BK@A@multiple?5radix?5specifiers?$AA@ 000000014015812c     libifcoremt:for_diags_intel.obj
 0002:0000e148       ??_C@_0BI@A@illegal?5radix?5specifier?$AA@ 0000000140158148     libifcoremt:for_diags_intel.obj
 0002:0000e160       ??_C@_0BF@A@illegal?5STATUS?5value?$AA@ 0000000140158160     libifcoremt:for_diags_intel.obj
 0002:0000e178       ??_C@_0BD@A@illegal?5MODE?5value?$AA@ 0000000140158178     libifcoremt:for_diags_intel.obj
 0002:0000e18c       ??_C@_0BF@A@illegal?5ACCESS?5value?$AA@ 000000014015818c     libifcoremt:for_diags_intel.obj
 0002:0000e1a4       ??_C@_0BE@A@illegal?5BLANK?5value?$AA@ 00000001401581a4     libifcoremt:for_diags_intel.obj
 0002:0000e1b8       ??_C@_0BD@A@illegal?5FORM?5value?$AA@ 00000001401581b8     libifcoremt:for_diags_intel.obj
 0002:0000e1cc       ??_C@_0BE@A@illegal?5SHARE?5value?$AA@ 00000001401581cc     libifcoremt:for_diags_intel.obj
 0002:0000e1e0       ??_C@_0BH@A@illegal?5LOCKMODE?5value?$AA@ 00000001401581e0     libifcoremt:for_diags_intel.obj
 0002:0000e1f8       ??_C@_0BG@A@illegal?5record?5number?$AA@ 00000001401581f8     libifcoremt:for_diags_intel.obj
 0002:0000e210       ??_C@_0CB@A@no?5unit?5number?5associated?5with?5?$CK?$AA@ 0000000140158210     libifcoremt:for_diags_intel.obj
 0002:0000e234       ??_C@_0BG@A@illegal?5RECORDS?5value?$AA@ 0000000140158234     libifcoremt:for_diags_intel.obj
 0002:0000e24c       ??_C@_0BE@A@illegal?5unit?5number?$AA@ 000000014015824c     libifcoremt:for_diags_intel.obj
 0002:0000e260       ??_C@_0BD@A@illegal?5RECL?5value?$AA@ 0000000140158260     libifcoremt:for_diags_intel.obj
 0002:0000e274       ??_C@_0BI@A@array?5already?5allocated?$AA@ 0000000140158274     libifcoremt:for_diags_intel.obj
 0002:0000e28c       ??_C@_0BM@A@array?5size?5zero?5or?5negative?$AA@ 000000014015828c     libifcoremt:for_diags_intel.obj
 0002:0000e2a8       ??_C@_0BL@A@non?9HUGE?5array?5exceeds?564K?$AA@ 00000001401582a8     libifcoremt:for_diags_intel.obj
 0002:0000e2c4       ??_C@_0BE@A@array?5not?5allocated?$AA@ 00000001401582c4     libifcoremt:for_diags_intel.obj
 0002:0000e2d8       ??_C@_0CF@A@BACKSPACE?5illegal?5on?5terminal?5device?$AA@ 00000001401582d8     libifcoremt:for_diags_intel.obj
 0002:0000e300       ??_C@_0BP@A@EOF?5illegal?5on?5terminal?5device?$AA@ 0000000140158300     libifcoremt:for_diags_intel.obj
 0002:0000e320       ??_C@_0CD@A@ENDFILE?5illegal?5on?5terminal?5device?$AA@ 0000000140158320     libifcoremt:for_diags_intel.obj
 0002:0000e344       ??_C@_0CC@A@REWIND?5illegal?5on?5terminal?5device?$AA@ 0000000140158344     libifcoremt:for_diags_intel.obj
 0002:0000e368       ??_C@_0CC@A@DELETE?5illegal?5for?5read?9only?5file?$AA@ 0000000140158368     libifcoremt:for_diags_intel.obj
 0002:0000e38c       ??_C@_0CI@A@external?5I?1O?5illegal?5beyond?5end?5of?5file?$AA@ 000000014015838c     libifcoremt:for_diags_intel.obj
 0002:0000e3b4       ??_C@_0BP@A@truncation?5error?5?3?5file?5closed?$AA@ 00000001401583b4     libifcoremt:for_diags_intel.obj
 0002:0000e3d4       ??_C@_0BJ@A@terminal?5buffer?5overflow?$AA@ 00000001401583d4     libifcoremt:for_diags_intel.obj
 0002:0000e3f0       ??_C@_0DC@A@comma?5delimiter?5disabled?5after?5left?5repositioning?$AA@ 00000001401583f0     libifcoremt:for_diags_intel.obj
 0002:0000e424       ??_C@_0CD@A@LOCKING?5illegal?5on?5sequential?5file?$AA@ 0000000140158424     libifcoremt:for_diags_intel.obj
 0002:0000e448       ??_C@_0CA@A@file?5already?5locked?5or?5unlocked?$AA@ 0000000140158448     libifcoremt:for_diags_intel.obj
 0002:0000e468       ??_C@_0BA@A@file?5deadlocked?$AA@ 0000000140158468     libifcoremt:for_diags_intel.obj
 0002:0000e478       ??_C@_0BE@A@SHARE?5not?5installed?$AA@ 0000000140158478     libifcoremt:for_diags_intel.obj
 0002:0000e48c       ??_C@_0CL@A@file?5already?5connected?5to?5a?5different?5unit?$AA@ 000000014015848c     libifcoremt:for_diags_intel.obj
 0002:0000e4b8       ??_C@_0BD@A@access?5not?5allowed?$AA@ 00000001401584b8     libifcoremt:for_diags_intel.obj
 0002:0000e4cc       ??_C@_0BE@A@file?5already?5exists?$AA@ 00000001401584cc     libifcoremt:for_diags_intel.obj
 0002:0000e4e0       ??_C@_0P@A@file?5not?5found?$AA@ 00000001401584e0     libifcoremt:for_diags_intel.obj
 0002:0000e4f0       ??_C@_0BE@A@too?5many?5open?5files?$AA@ 00000001401584f0     libifcoremt:for_diags_intel.obj
 0002:0000e504       ??_C@_0BJ@A@too?5many?5units?5connected?$AA@ 0000000140158504     libifcoremt:for_diags_intel.obj
 0002:0000e520       ??_C@_0CH@A@illegal?5structure?5for?5unformatted?5file?$AA@ 0000000140158520     libifcoremt:for_diags_intel.obj
 0002:0000e548       ??_C@_0BE@A@unknown?5unit?5number?$AA@ 0000000140158548     libifcoremt:for_diags_intel.obj
 0002:0000e55c       ??_C@_0CJ@A@file?5read?9only?5or?5locked?5against?5writing?$AA@ 000000014015855c     libifcoremt:for_diags_intel.obj
 0002:0000e588       ??_C@_0BI@A@no?5space?5left?5on?5device?$AA@ 0000000140158588     libifcoremt:for_diags_intel.obj
 0002:0000e5a0       ??_C@_0BB@A@too?5many?5threads?$AA@ 00000001401585a0     libifcoremt:for_diags_intel.obj
 0002:0000e5b4       ??_C@_0BB@A@invalid?5argument?$AA@ 00000001401585b4     libifcoremt:for_diags_intel.obj
 0002:0000e5c8       ??_C@_0DC@A@BACKSPACE?5illegal?5for?5SEQUENTIAL?5WRITE?9only?5files?$AA@ 00000001401585c8     libifcoremt:for_diags_intel.obj
 0002:0000e5fc       ??_C@_0CJ@A@file?5not?5open?5for?5reading?5or?5file?5locked?$AA@ 00000001401585fc     libifcoremt:for_diags_intel.obj
 0002:0000e628       ??_C@_0BI@A@end?5of?5file?5encountered?$AA@ 0000000140158628     libifcoremt:for_diags_intel.obj
 0002:0000e640       ??_C@_0CK@A@positive?5integer?5expected?5in?5repeat?5field?$AA@ 0000000140158640     libifcoremt:for_diags_intel.obj
 0002:0000e66c       ??_C@_0BG@A@multiple?5repeat?5field?$AA@ 000000014015866c     libifcoremt:for_diags_intel.obj
 0002:0000e684       ??_C@_0BI@A@invalid?5number?5in?5input?$AA@ 0000000140158684     libifcoremt:for_diags_intel.obj
 0002:0000e69c       ??_C@_0BI@A@invalid?5string?5in?5input?$AA@ 000000014015869c     libifcoremt:for_diags_intel.obj
 0002:0000e6b4       ??_C@_0BP@A@comma?5missing?5in?5COMPLEX?5input?$AA@ 00000001401586b4     libifcoremt:for_diags_intel.obj
 0002:0000e6d4       ??_C@_0CA@A@T?5or?5F?5expected?5in?5LOGICAL?5read?$AA@ 00000001401586d4     libifcoremt:for_diags_intel.obj
 0002:0000e6f4       ??_C@_0CM@A@too?5many?5bytes?5read?5from?5unformatted?5record?$AA@ 00000001401586f4     libifcoremt:for_diags_intel.obj
 0002:0000e720       ??_C@_0DB@A@H?5or?5apostrophe?5edit?5descriptor?5illegal?5on?5input?$AA@ 0000000140158720     libifcoremt:for_diags_intel.obj
 0002:0000e754       ??_C@_0CH@A@illegal?5character?5in?5hexadecimal?5input?$AA@ 0000000140158754     libifcoremt:for_diags_intel.obj
 0002:0000e77c       ??_C@_0BI@A@variable?5name?5not?5found?$AA@ 000000014015877c     libifcoremt:for_diags_intel.obj
 0002:0000e794       ??_C@_0BO@A@invalid?5NAMELIST?5input?5format?$AA@ 0000000140158794     libifcoremt:for_diags_intel.obj
 0002:0000e7b4       ??_C@_0CB@A@wrong?5number?5of?5array?5dimensions?$AA@ 00000001401587b4     libifcoremt:for_diags_intel.obj
 0002:0000e7d8       ??_C@_0CH@A@array?5subscript?5exceeds?5allocated?5area?$AA@ 00000001401587d8     libifcoremt:for_diags_intel.obj
 0002:0000e800       ??_C@_0CD@A@invalid?5subrange?5in?5NAMELIST?5input?$AA@ 0000000140158800     libifcoremt:for_diags_intel.obj
 0002:0000e824       ??_C@_0DA@A@substring?5range?5specified?5on?5non?9CHARACTER?5item?$AA@ 0000000140158824     libifcoremt:for_diags_intel.obj
 0002:0000e854       ??_C@_0BH@A@internal?5file?5overflow?$AA@ 0000000140158854     libifcoremt:for_diags_intel.obj
 0002:0000e86c       ??_C@_0BH@A@direct?5record?5overflow?$AA@ 000000014015886c     libifcoremt:for_diags_intel.obj
 0002:0000e884       ??_C@_0CG@A@numeric?5field?5bigger?5than?5record?5size?$AA@ 0000000140158884     libifcoremt:for_diags_intel.obj
 0002:0000e8ac       ??_C@_0BK@A@heap?5space?5limit?5exceeded?$AA@ 00000001401588ac     libifcoremt:for_diags_intel.obj
 0002:0000e8c8       ??_C@_0CB@A@scratch?5file?5name?5limit?5exceeded?$AA@ 00000001401588c8     libifcoremt:for_diags_intel.obj
 0002:0000e8ec       ??_C@_0CO@A@D?5field?5exceeds?5W?5field?5in?5ES?5edit?5descriptor?$AA@ 00000001401588ec     libifcoremt:for_diags_intel.obj
 0002:0000e91c       ??_C@_0CO@A@D?5field?5exceeds?5W?5field?5in?5EN?5edit?5descriptor?$AA@ 000000014015891c     libifcoremt:for_diags_intel.obj
 0002:0000e94c       ??_C@_0CE@A@Exponent?5of?50?5not?5allowed?5in?5format?$AA@ 000000014015894c     libifcoremt:for_diags_intel.obj
 0002:0000e970       ??_C@_0BL@A@integer?5expected?5in?5format?$AA@ 0000000140158970     libifcoremt:for_diags_intel.obj
 0002:0000e98c       ??_C@_0CM@A@initial?5left?5parenthesis?5expected?5in?5format?$AA@ 000000014015898c     libifcoremt:for_diags_intel.obj
 0002:0000e9b8       ??_C@_0CE@A@positive?5integer?5expected?5in?5format?$AA@ 00000001401589b8     libifcoremt:for_diags_intel.obj
 0002:0000e9dc       ??_C@_0CJ@A@repeat?5count?5on?5nonrepeatable?5descriptor?$AA@ 00000001401589dc     libifcoremt:for_diags_intel.obj
 0002:0000ea08       ??_C@_0DG@A@integer?5expected?5preceding?5H?0?5X?0?5or?5P?5edit?5descriptor?$AA@ 0000000140158a08     libifcoremt:for_diags_intel.obj
 0002:0000ea40       ??_C@_0CC@A@N?5or?5Z?5expected?5after?5B?5in?5format?$AA@ 0000000140158a40     libifcoremt:for_diags_intel.obj
 0002:0000ea64       ??_C@_0BO@A@format?5nesting?5limit?5exceeded?$AA@ 0000000140158a64     libifcoremt:for_diags_intel.obj
 0002:0000ea84       ??_C@_0BH@A@?8?4?8?5expected?5in?5format?$AA@ 0000000140158a84     libifcoremt:for_diags_intel.obj
 0002:0000ea9c       ??_C@_0BJ@A@unexpected?5end?5of?5format?$AA@ 0000000140158a9c     libifcoremt:for_diags_intel.obj
 0002:0000eab8       ??_C@_0BP@A@unexpected?5character?5in?5format?$AA@ 0000000140158ab8     libifcoremt:for_diags_intel.obj
 0002:0000ead8       ??_C@_0CN@A@M?5field?5exceeds?5W?5field?5in?5I?5edit?5descriptor?$AA@ 0000000140158ad8     libifcoremt:for_diags_intel.obj
 0002:0000eb08       ??_C@_0BP@A@integer?5out?5of?5range?5in?5format?$AA@ 0000000140158b08     libifcoremt:for_diags_intel.obj
 0002:0000eb28       ??_C@_0BJ@A@format?5not?5set?5by?5ASSIGN?$AA@ 0000000140158b28     libifcoremt:for_diags_intel.obj
 0002:0000eb44       ??_C@_0BN@A@separator?5expected?5in?5format?$AA@ 0000000140158b44     libifcoremt:for_diags_intel.obj
 0002:0000eb64       ??_C@_0DA@A@?$CFc?5or?5$?5?3?5nonstandard?5edit?5descriptor?5in?5format?$AA@ 0000000140158b64     libifcoremt:for_diags_intel.obj
 0002:0000eb94       ??_C@_0CK@A@Z?5?3?5nonstandard?5edit?5descriptor?5in?5format?$AA@ 0000000140158b94     libifcoremt:for_diags_intel.obj
 0002:0000ebc0       ??_C@_0CM@A@DOS?5graphics?5not?5supported?5under?5Windows?5NT?$AA@ 0000000140158bc0     libifcoremt:for_diags_intel.obj
 0002:0000ebec       ??_C@_0P@A@Graphics?5error?$AA@ 0000000140158bec     libifcoremt:for_diags_intel.obj
 0002:0000ebfc       ??_C@_0DB@A@Using?5QuickWin?5is?5illegal?5in?5console?5application?$AA@ 0000000140158bfc     libifcoremt:for_diags_intel.obj
 0002:0000ec30       ??_C@_0BI@A@Illegal?5?8ADVANCE?8?5value?$AA@ 0000000140158c30     libifcoremt:for_diags_intel.obj
 0002:0000ec48       ??_C@_0CN@A@DIM?5argument?5to?5SIZE?5out?5of?5range?5?$CIvalue?5?$CFd?$CJ?$AA@ 0000000140158c48     libifcoremt:for_diags_intel.obj
 0002:0000ec78       ??_C@_0DO@A@Uninitialised?5pointer?5used?5as?5argument?5to?5ASSOCIATED?5function?$AA@ 0000000140158c78     libifcoremt:for_diags_intel.obj
 0002:0000ecb8       ??_C@_0CD@A@Reference?5to?5uninitialised?5POINTER?$AA@ 0000000140158cb8     libifcoremt:for_diags_intel.obj
 0002:0000ecdc       ??_C@_0CN@A@Reference?5to?5POINTER?5which?5is?5not?5ASSOCIATED?$AA@ 0000000140158cdc     libifcoremt:for_diags_intel.obj
 0002:0000ed0c       ??_C@_0CG@A@Reference?5to?5uninitialised?5POINTER?5?$CFs?$AA@ 0000000140158d0c     libifcoremt:for_diags_intel.obj
 0002:0000ed34       ??_C@_0DA@A@Reference?5to?5POINTER?5?$CFs?5which?5is?5not?5ASSOCIATED?$AA@ 0000000140158d34     libifcoremt:for_diags_intel.obj
 0002:0000ed64       ??_C@_0DM@A@Out?5of?5range?3?5substring?5starting?5position?5?$CFd?5is?5less?5than?51?$AA@ 0000000140158d64     libifcoremt:for_diags_intel.obj
 0002:0000eda0       ??_C@_0EF@A@Out?5of?5range?3?5substring?5ending?5position?5?$CFd?5is?5greater?5than?5length?5?$CFd?$AA@ 0000000140158da0     libifcoremt:for_diags_intel.obj
 0002:0000ee00       ??_C@_0DG@A@Subscript?5?$CFd?5of?5?$CFs?5?$CIvalue?5?$CFd?$CJ?5is?5out?5of?5range?5?$CI?$CFd?3?$CFd?$CJ?$AA@ 0000000140158e00     libifcoremt:for_diags_intel.obj
 0002:0000ee38       ??_C@_0DF@A@Subscript?5?$CFd?5of?5?$CFs?5?$CIvalue?5?$CFd?$CJ?5is?5out?5of?5range?5?$CI?$CFd?3?$CK?$CJ?$AA@ 0000000140158e38     libifcoremt:for_diags_intel.obj
 0002:0000ee70       ??_C@_0DK@A@VECTOR?5argument?5to?5PACK?5has?5incompatible?5character?5length?$AA@ 0000000140158e70     libifcoremt:for_diags_intel.obj
 0002:0000eeac       ??_C@_0CF@A@VECTOR?5argument?5to?5PACK?5is?5too?5small?$AA@ 0000000140158eac     libifcoremt:for_diags_intel.obj
 0002:0000eee0       ??_C@_0EF@A@SOURCE?5and?5PAD?5arguments?5to?5RESHAPE?5have?5different?5character?5lengths?$AA@ 0000000140158ee0     libifcoremt:for_diags_intel.obj
 0002:0000ef40       ??_C@_0DE@A@Element?5?$CFd?5of?5SHAPE?5argument?5to?5RESHAPE?5is?5negative?$AA@ 0000000140158f40     libifcoremt:for_diags_intel.obj
 0002:0000ef74       ??_C@_0DM@A@SOURCE?5too?5small?5for?5specified?5SHAPE?5in?5RESHAPE?0?5and?5no?5PAD?$AA@ 0000000140158f74     libifcoremt:for_diags_intel.obj
 0002:0000efb0       ??_C@_0O@A@Out?5of?5memory?$AA@ 0000000140158fb0     libifcoremt:for_diags_intel.obj
 0002:0000efc0       ??_C@_0EG@A@SHAPE?5and?5ORDER?5arguments?5to?5RESHAPE?5have?5different?5sizes?5?$CI?$CFd?5and?5?$CFd?$CJ?$AA@ 0000000140158fc0     libifcoremt:for_diags_intel.obj
 0002:0000f020       ??_C@_0DN@A@Element?5?$CFd?5of?5ORDER?5argument?5to?5RESHAPE?5is?5out?5of?5range?5?$CI?$CFd?$CJ?$AA@ 0000000140159020     libifcoremt:for_diags_intel.obj
 0002:0000f060       ??_C@_0DD@A@Value?5?$CFd?5occurs?5twice?5in?5ORDER?5argument?5to?5RESHAPE?$AA@ 0000000140159060     libifcoremt:for_diags_intel.obj
 0002:0000f094       ??_C@_0CH@A@impossible?5nextelt?5overflow?5in?5RESHAPE?$AA@ 0000000140159094     libifcoremt:for_diags_intel.obj
 0002:0000f0bc       ??_C@_0DP@A@Invalid?5value?5?$CFd?5for?5argument?5DIM?5for?5SPREAD?5of?5rank?5?$CFd?5source?$AA@ 00000001401590bc     libifcoremt:for_diags_intel.obj
 0002:0000f0fc       ??_C@_0CC@A@Complex?5zero?5raised?5to?5power?5zero?$AA@ 00000001401590fc     libifcoremt:for_diags_intel.obj
 0002:0000f120       ??_C@_0CG@A@Complex?5zero?5raised?5to?5negative?5power?$AA@ 0000000140159120     libifcoremt:for_diags_intel.obj
 0002:0000f148       ??_C@_0CD@A@Impossible?5error?5in?5NAMELIST?5input?$AA@ 0000000140159148     libifcoremt:for_diags_intel.obj
 0002:0000f16c       ??_C@_0CM@A@DIM?5argument?5to?5CSHIFT?5?$CI?$CFd?$CJ?5is?5out?5of?5range?$AA@ 000000014015916c     libifcoremt:for_diags_intel.obj
 0002:0000f198       ??_C@_0DD@A@DIM?5argument?5?$CI?$CFd?$CJ?5to?5CSHIFT?5is?5out?5of?5range?5?$CI1?3?$CFd?$CJ?$AA@ 0000000140159198     libifcoremt:for_diags_intel.obj
 0002:0000f1e0       ??_C@_0EA@A@Shape?5mismatch?5?$CIdimension?5?$CFd?$CJ?5between?5ARRAY?5and?5SHIFT?5in?5CSHIFT?$AA@ 00000001401591e0     libifcoremt:for_diags_intel.obj
 0002:0000f220       ??_C@_0CM@A@Internal?5Error?5?9?5bad?5arguments?5to?5cshift_ca?$AA@ 0000000140159220     libifcoremt:for_diags_intel.obj
 0002:0000f24c       ??_C@_0CN@A@Internal?5error?5?9?5bad?5arguments?5to?5cshift_caa?$AA@ 000000014015924c     libifcoremt:for_diags_intel.obj
 0002:0000f27c       ??_C@_0DF@A@DATE?5argument?5to?5DATE_AND_TIME?5is?5too?5short?5?$CILEN?$DN?$CFd?$CJ?$AA@ 000000014015927c     libifcoremt:for_diags_intel.obj
 0002:0000f2b4       ??_C@_0DF@A@TIME?5argument?5to?5DATE_AND_TIME?5is?5too?5short?5?$CILEN?$DN?$CFd?$CJ?$AA@ 00000001401592b4     libifcoremt:for_diags_intel.obj
 0002:0000f2ec       ??_C@_0DF@A@ZONE?5argument?5to?5DATE_AND_TIME?5is?5too?5short?5?$CILEN?$DN?$CFd?$CJ?$AA@ 00000001401592ec     libifcoremt:for_diags_intel.obj
 0002:0000f324       ??_C@_0DM@A@VALUES?5argument?5to?5DATE_AND_TIME?5is?5too?5small?5?$CI?$CFd?5elements?$CJ?$AA@ 0000000140159324     libifcoremt:for_diags_intel.obj
 0002:0000f360       ??_C@_0DB@A@Out?5of?5range?3?5DIM?5argument?5to?5COUNT?5has?5value?5?$CFd?$AA@ 0000000140159360     libifcoremt:for_diags_intel.obj
 0002:0000f3a0       ??_C@_0EG@A@Out?5of?5range?3?5DIM?5argument?5to?5COUNT?5has?5value?5?$CFd?5with?5MASK?5of?5rank?5?$CFd?$AA@ 00000001401593a0     libifcoremt:for_diags_intel.obj
 0002:0000f400       ??_C@_0DD@A@Out?5of?5range?3?5DIM?5argument?5to?5PRODUCT?5has?5value?5?$CFd?$AA@ 0000000140159400     libifcoremt:for_diags_intel.obj
 0002:0000f440       ??_C@_0EJ@A@Out?5of?5range?3?5DIM?5argument?5to?5PRODUCT?5has?5value?5?$CFd?5with?5ARRAY?5of?5rank?5?$CFd?$AA@ 0000000140159440     libifcoremt:for_diags_intel.obj
 0002:0000f4a0       ??_C@_0EF@A@Out?5of?5range?3?5DIM?5argument?5to?5SUM?5has?5value?5?$CFd?5with?5ARRAY?5of?5rank?5?$CFd?$AA@ 00000001401594a0     libifcoremt:for_diags_intel.obj
 0002:0000f500       ??_C@_0CB@A@Real?5zero?5raised?5to?5zeroth?5power?$AA@ 0000000140159500     libifcoremt:for_diags_intel.obj
 0002:0000f524       ??_C@_0CD@A@Real?5zero?5raised?5to?5negative?5power?$AA@ 0000000140159524     libifcoremt:for_diags_intel.obj
 0002:0000f548       ??_C@_0CP@A@Out?5of?5range?3?5DIM?5argument?5to?5SUM?5has?5value?5?$CFd?$AA@ 0000000140159548     libifcoremt:for_diags_intel.obj
 0002:0000f578       ??_C@_0DE@A@DIM?5argument?5?$CI?$CFd?$CJ?5to?5EOSHIFT?5is?5out?5of?5range?5?$CI1?3?$CFd?$CJ?$AA@ 0000000140159578     libifcoremt:for_diags_intel.obj
 0002:0000f5c0       ??_C@_0EE@A@Shape?5mismatch?5?$CIdimension?5?$CFd?$CJ?5between?5ARRAY?5and?5BOUNDARY?5in?5EOSHIFT?$AA@ 00000001401595c0     libifcoremt:for_diags_intel.obj
 0002:0000f620       ??_C@_0CN@A@DIM?5argument?5to?5EOSHIFT?5is?5out?5of?5range?5?$CI?$CFd?$CJ?$AA@ 0000000140159620     libifcoremt:for_diags_intel.obj
 0002:0000f660       ??_C@_0EB@A@Shape?5mismatch?5?$CIdimension?5?$CFd?$CJ?5between?5ARRAY?5and?5SHIFT?5in?5EOSHIFT?$AA@ 0000000140159660     libifcoremt:for_diags_intel.obj
 0002:0000f6c0       ??_C@_0DO@A@BOUNDARY?5argument?5to?5EOSHIFT?5has?5wrong?5LEN?5?$CI?$CFd?5instead?5of?5?$CFd?$CJ?$AA@ 00000001401596c0     libifcoremt:for_diags_intel.obj
 0002:0000f700       ??_C@_0CN@A@BOUNDARY?5has?5LEN?5?$CFd?5instead?5of?5?$CFd?5to?5EOSHIFT?$AA@ 0000000140159700     libifcoremt:for_diags_intel.obj
 0002:0000f730       ??_C@_0CK@A@Internal?5error?5?9?5bad?5arguments?5to?5EOSHIFT?$AA@ 0000000140159730     libifcoremt:for_diags_intel.obj
 0002:0000f75c       ??_C@_0CI@A@GETARG?3?5Value?5of?5K?5?$CI?$CFd?$CJ?5is?5out?5of?5range?$AA@ 000000014015975c     libifcoremt:for_diags_intel.obj
 0002:0000f784       ??_C@_0CL@A@FLUSH?3?5Value?5of?5LUNIT?5?$CI?$CFd?$CJ?5is?5out?5of?5range?$AA@ 0000000140159784     libifcoremt:for_diags_intel.obj
 0002:0000f7b0       ??_C@_0CA@A@FLUSH?3?5Unit?5?$CFd?5is?5not?5connected?$AA@ 00000001401597b0     libifcoremt:for_diags_intel.obj
 0002:0000f7d0       ??_C@_0CE@A@Invalid?5string?5length?5?$CI?$CFd?$CJ?5to?5ICHAR?$AA@ 00000001401597d0     libifcoremt:for_diags_intel.obj
 0002:0000f7f4       ??_C@_0CF@A@Invalid?5string?5length?5?$CI?$CFd?$CJ?5to?5IACHAR?$AA@ 00000001401597f4     libifcoremt:for_diags_intel.obj
 0002:0000f81c       ??_C@_0CI@A@Integer?5zero?5raised?5to?5a?5negative?5power?$AA@ 000000014015981c     libifcoremt:for_diags_intel.obj
 0002:0000f844       ??_C@_0CE@A@Integer?5zero?5raised?5to?5zeroth?5power?$AA@ 0000000140159844     libifcoremt:for_diags_intel.obj
 0002:0000f868       ??_C@_0DE@A@SIZE?5argument?5?$CI?$CFd?$CJ?5to?5ISHFTC?5intrinsic?5out?5of?5range?$AA@ 0000000140159868     libifcoremt:for_diags_intel.obj
 0002:0000f89c       ??_C@_0DF@A@SHIFT?5argument?5?$CI?$CFd?$CJ?5to?5ISHFTC?5intrinsic?5out?5of?5range?$AA@ 000000014015989c     libifcoremt:for_diags_intel.obj
 0002:0000f8d4       ??_C@_0DC@A@Out?5of?5range?3?5DIM?5argument?5to?5LBOUND?5has?5value?5?$CFd?$AA@ 00000001401598d4     libifcoremt:for_diags_intel.obj
 0002:0000f920       ??_C@_0EH@A@Out?5of?5range?3?5DIM?5argument?5?$CI?$CFd?$CJ?5to?5LBOUND?5greater?5than?5array?5rank?5?$CI?$CFd?$CJ?$AA@ 0000000140159920     libifcoremt:for_diags_intel.obj
 0002:0000f980       ??_C@_0DC@A@Out?5of?5range?3?5DIM?5argument?5to?5MAXVAL?5has?5value?5?$CFd?$AA@ 0000000140159980     libifcoremt:for_diags_intel.obj
 0002:0000f9c0       ??_C@_0EI@A@Out?5of?5range?3?5DIM?5argument?5to?5MAXVAL?5has?5value?5?$CFd?5with?5ARRAY?5of?5rank?5?$CFd?$AA@ 00000001401599c0     libifcoremt:for_diags_intel.obj
 0002:0000fa20       ??_C@_0DA@A@Cannot?5allocate?5array?5temporary?5?9?5out?5of?5memory?$AA@ 0000000140159a20     libifcoremt:for_diags_intel.obj
 0002:0000fa50       ??_C@_0CO@A@Attempt?5to?5DEALLOCATE?5part?5of?5a?5larger?5object?$AA@ 0000000140159a50     libifcoremt:for_diags_intel.obj
 0002:0000fa80       ??_C@_0DO@A@Pointer?5in?5DEALLOCATE?5is?5ASSOCIATED?5with?5an?5ALLOCATABLE?5array?$AA@ 0000000140159a80     libifcoremt:for_diags_intel.obj
 0002:0000fac0       ??_C@_0DI@A@Attempt?5to?5DEALLOCATE?5an?5object?5which?5was?5not?5ALLOCATEd?$AA@ 0000000140159ac0     libifcoremt:for_diags_intel.obj
 0002:0000faf8       ??_C@_0CP@A@Cannot?5ALLOCATE?5scalar?5POINTER?5?9?5out?5of?5memory?$AA@ 0000000140159af8     libifcoremt:for_diags_intel.obj
 0002:0000fb28       ??_C@_0CM@A@DEALLOCATE?3?5object?5not?5allocated?1associated?$AA@ 0000000140159b28     libifcoremt:for_diags_intel.obj
 0002:0000fb54       ??_C@_0CO@A@Cannot?5allocate?5POINTER?5array?5?9?5out?5of?5memory?$AA@ 0000000140159b54     libifcoremt:for_diags_intel.obj
 0002:0000fb84       ??_C@_0CA@A@DEALLOCATE?3?5Array?5not?5allocated?$AA@ 0000000140159b84     libifcoremt:for_diags_intel.obj
 0002:0000fba4       ??_C@_0CK@A@DEALLOCATE?3?5Character?5array?5not?5allocated?$AA@ 0000000140159ba4     libifcoremt:for_diags_intel.obj
 0002:0000fbd0       ??_C@_0DC@A@Cannot?5ALLOCATE?5ALLOCATABLE?5array?5?9?5out?5of?5memory?$AA@ 0000000140159bd0     libifcoremt:for_diags_intel.obj
 0002:0000fc04       ??_C@_0DD@A@Cannot?5allocate?5automatic?5variable?5?9?5out?5of?5memory?$AA@ 0000000140159c04     libifcoremt:for_diags_intel.obj
 0002:0000fc38       ??_C@_0DH@A@DEALLOCATE?5failure?3?5ALLOCATABLE?5array?5is?5not?5ALLOCATEd?$AA@ 0000000140159c38     libifcoremt:for_diags_intel.obj
 0002:0000fc70       ??_C@_0DC@A@Out?5of?5range?3?5DIM?5argument?5to?5MINVAL?5has?5value?5?$CFd?$AA@ 0000000140159c70     libifcoremt:for_diags_intel.obj
 0002:0000fcc0       ??_C@_0EI@A@Out?5of?5range?3?5DIM?5argument?5to?5MINVAL?5has?5value?5?$CFd?5with?5ARRAY?5of?5rank?5?$CFd?$AA@ 0000000140159cc0     libifcoremt:for_diags_intel.obj
 0002:0000fd20       ??_C@_0CL@A@P?5argument?5to?5MOD?5is?5double?5precision?5zero?$AA@ 0000000140159d20     libifcoremt:for_diags_intel.obj
 0002:0000fd4c       ??_C@_0CC@A@P?5argument?5to?5MOD?5is?5integer?5zero?$AA@ 0000000140159d4c     libifcoremt:for_diags_intel.obj
 0002:0000fd70       ??_C@_0BP@A@P?5argument?5to?5MOD?5is?5real?5zero?$AA@ 0000000140159d70     libifcoremt:for_diags_intel.obj
 0002:0000fd90       ??_C@_0CC@A@P?5argument?5to?5MODULO?5is?5real?5zero?$AA@ 0000000140159d90     libifcoremt:for_diags_intel.obj
 0002:0000fdb4       ??_C@_0BN@A@P?5argument?5to?5modulo?5is?5zero?$AA@ 0000000140159db4     libifcoremt:for_diags_intel.obj
 0002:0000fdd4       ??_C@_0BO@A@Argument?5S?5to?5NEAREST?5is?5zero?$AA@ 0000000140159dd4     libifcoremt:for_diags_intel.obj
 0002:0000fdf4       ??_C@_0BH@A@Heap?5Storage?5Exhausted?$AA@ 0000000140159df4     libifcoremt:for_diags_intel.obj
 0002:0000fe0c       ??_C@_0CJ@A@PUT?5argument?5to?5RANDOM_SEED?5is?5too?5small?$AA@ 0000000140159e0c     libifcoremt:for_diags_intel.obj
 0002:0000fe38       ??_C@_0CJ@A@GET?5argument?5to?5RANDOM_SEED?5is?5too?5small?$AA@ 0000000140159e38     libifcoremt:for_diags_intel.obj
 0002:0000fe64       ??_C@_0BI@A@Recursive?5i?1o?5reference?$AA@ 0000000140159e64     libifcoremt:for_diags_intel.obj
 0002:0000fe7c       ??_C@_0CL@A@Argument?5to?5SHAPE?5intrinsic?5is?5not?5PRESENT?$AA@ 0000000140159e7c     libifcoremt:for_diags_intel.obj
 0002:0000fea8       ??_C@_0DC@A@Out?5of?5range?3?5DIM?5argument?5to?5UBOUND?5has?5value?5?$CFd?$AA@ 0000000140159ea8     libifcoremt:for_diags_intel.obj
 0002:0000fee0       ??_C@_0EH@A@Out?5of?5range?3?5DIM?5argument?5?$CI?$CFd?$CJ?5to?5UBOUND?5greater?5than?5array?5rank?5?$CI?$CFd?$CJ?$AA@ 0000000140159ee0     libifcoremt:for_diags_intel.obj
 0002:0000ff40       ??_C@_0DP@A@Out?5of?5range?3?5UBOUND?5of?5assumed?9size?5array?5with?5DIM?$DN?$DNrank?5?$CI?$CFd?$CJ?$AA@ 0000000140159f40     libifcoremt:for_diags_intel.obj
 0002:0000ff80       ??_C@_0EC@A@Out?5of?5range?3?5DIM?5argument?5?$CI?$CFd?$CJ?5to?5UBOUND?5greater?5than?5array?5rank?$AA@ 0000000140159f80     libifcoremt:for_diags_intel.obj
 0002:0000ffe0       ??_C@_0DD@A@Shape?5mismatch?3?5Dimension?5?$CFd?5extents?5are?5?$CFd?5and?5?$CFd?$AA@ 0000000140159fe0     libifcoremt:for_diags_intel.obj
 0002:00010014       ??_C@_0BH@A@Illegal?5POSITION?5value?$AA@ 000000014015a014     libifcoremt:for_diags_intel.obj
 0002:0001002c       ??_C@_0BF@A@Illegal?5ACTION?5value?$AA@ 000000014015a02c     libifcoremt:for_diags_intel.obj
 0002:00010044       ??_C@_0DF@A@DELIM?$DN?5specifier?5not?5allowed?5for?5an?5UNFORMATTED?5file?$AA@ 000000014015a044     libifcoremt:for_diags_intel.obj
 0002:0001007c       ??_C@_0BE@A@Illegal?5DELIM?5value?$AA@ 000000014015a07c     libifcoremt:for_diags_intel.obj
 0002:00010090       ??_C@_0DD@A@PAD?$DN?5specifier?5not?5allowed?5for?5an?5UNFORMATTED?5file?$AA@ 000000014015a090     libifcoremt:for_diags_intel.obj
 0002:000100c4       ??_C@_0BC@A@illegal?5PAD?5value?$AA@ 000000014015a0c4     libifcoremt:for_diags_intel.obj
 0002:000100d8       ??_C@_0BO@A@illegal?5CARRIAGECONTROL?5value?$AA@ 000000014015a0d8     libifcoremt:for_diags_intel.obj
 0002:000100f8       ??_C@_0CM@A@SIZE?5specifier?5only?5allowed?5with?5ADVANCE?$DNNO?$AA@ 000000014015a0f8     libifcoremt:for_diags_intel.obj
 0002:00010124       ??_C@_0CC@A@illegal?5character?5in?5binary?5input?$AA@ 000000014015a124     libifcoremt:for_diags_intel.obj
 0002:00010148       ??_C@_0CB@A@illegal?5character?5in?5octal?5input?$AA@ 000000014015a148     libifcoremt:for_diags_intel.obj
 0002:0001016c       ??_C@_0BK@A@End?5of?5record?5encountered?$AA@ 000000014015a16c     libifcoremt:for_diags_intel.obj
 0002:00010188       ??_C@_0CK@A@Illegal?5subcript?5in?5namelist?5input?5record?$AA@ 000000014015a188     libifcoremt:for_diags_intel.obj
 0002:000101b4       ??_C@_0CG@A@Error?5reported?5by?5?8EnumSystemLocales?8?$AA@ 000000014015a1b4     libifcoremt:for_diags_intel.obj
 0002:000101dc       ??_C@_0CE@A@Cannot?5set?5environment?5variable?5?$CFs?4?$AA@ 000000014015a1dc     libifcoremt:for_diags_intel.obj
 0002:00010200       ??_C@_0CH@A@Error?5freeing?5internal?5data?5structure?4?$AA@ 000000014015a200     libifcoremt:for_diags_intel.obj
 0002:00010228       ??_C@_0N@A@place?5holder?$AA@ 000000014015a228     libifcoremt:for_diags_intel.obj
 0002:00010240       ??_C@_0EH@A@A?5SYNC?5ALL?5statement?5could?5not?5perform?5a?5synchronization?5of?5all?5images?$AA@ 000000014015a240     libifcoremt:for_diags_intel.obj
 0002:000102a0       ??_C@_0EH@A@Image?5number?5?$CFd?5is?5not?5a?5valid?5image?5number?$DL?5valid?5numbers?5are?51?5to?5?$CFd?$AA@ 000000014015a2a0     libifcoremt:for_diags_intel.obj
 0002:00010300       ??_C@_0DM@A@Image?9set?5array?5expression?5must?5not?5contain?5repeated?5values?$AA@ 000000014015a300     libifcoremt:for_diags_intel.obj
 0002:00010340       ??_C@_0EP@A@The?5lock?5variable?5in?5a?5LOCK?5statement?5is?5already?5locked?5by?5the?5executing?5image?$AA@ 000000014015a340     libifcoremt:for_diags_intel.obj
 0002:000103a0       ??_C@_0FG@A@The?5lock?5variable?5in?5an?5UNLOCK?5statement?5is?5not?5already?5locked?5by?5the?5executing?5image?$AA@ 000000014015a3a0     libifcoremt:for_diags_intel.obj
 0002:00010400       ??_C@_0EJ@A@The?5lock?5variable?5in?5a?5LOCK?5statement?5is?5already?5locked?5by?5another?5image?$AA@ 000000014015a400     libifcoremt:for_diags_intel.obj
 0002:00010460       ??_C@_0DK@A@One?5of?5the?5images?5to?5be?5synchronized?5with?5has?5terminated?4?$AA@ 000000014015a460     libifcoremt:for_diags_intel.obj
 0002:0001049c       ??_C@_0BF@A@In?5coarray?5image?5?$CFd?6?$AA@ 000000014015a49c     libifcoremt:for_diags_intel.obj
 0002:000104c0       ??_C@_0EE@A@The?5lock?5variable?5in?5an?5UNLOCK?5statement?5is?5locked?5by?5another?5image?$AA@ 000000014015a4c0     libifcoremt:for_diags_intel.obj
 0002:00010520       ??_C@_0CE@A@Only?5image?51?5may?5read?5from?5unit?5?8?$CK?8?$AA@ 000000014015a520     libifcoremt:for_diags_intel.obj
 0002:00010544       ??_C@_0M@A@libicaf?4dll?$AA@ 000000014015a544     libifcoremt:for_diags_intel.obj
 0002:00010550       ??_C@_0BD@A@for_rtl_THIS_IMAGE?$AA@ 000000014015a550     libifcoremt:for_diags_intel.obj
 0002:00010564       ??_C@_03A@?$CFs?6?$AA@     000000014015a564     libifcoremt:for_diags_intel.obj
 0002:00010568       ??_C@_0CH@A@?4?4?4Traceback?5continuing?5on?5host?5side?3?6?$AA@ 000000014015a568     libifcoremt:for_diags_intel.obj
 0002:00010590       ??_C@_0BI@A@FOR_DEBUGGER_IS_PRESENT?$AA@ 000000014015a590     libifcoremt:for_diags_intel.obj
 0002:000105a8       ??_C@_0BJ@A@FOR__IS_DEBUGGER_PRESENT?$AA@ 000000014015a5a8     libifcoremt:for_diags_intel.obj
 0002:000105c4       ??_C@_0BI@A@FOR_DISABLE_STACK_TRACE?$AA@ 000000014015a5c4     libifcoremt:for_diags_intel.obj
 0002:000105dc       ??_C@_0BG@A@FOR_FORCE_STACK_TRACE?$AA@ 000000014015a5dc     libifcoremt:for_diags_intel.obj
 0002:000105f4       ??_C@_05A@?$CFs?$CFs?6?$AA@ 000000014015a5f4     libifcoremt:for_diags_intel.obj
 0002:000105fc       ??_C@_0BC@A@decfort_dump_flag?$AA@ 000000014015a5fc     libifcoremt:for_diags_intel.obj
 0002:00010610       ??_C@_0O@A@f77_dump_flag?$AA@ 000000014015a610     libifcoremt:for_diags_intel.obj
 0002:00010620       ??_C@_0BD@A@FOR_DUMP_CORE_FILE?$AA@ 000000014015a620     libifcoremt:for_diags_intel.obj
 0002:00010634       ??_C@_05A@?$CFI64d?$AA@    000000014015a634     libifcoremt:for_diags_intel.obj
 0002:0001063c       ??_C@_04A@?$CC?$CFs?$CC?$AA@ 000000014015a63c     libifcoremt:for_diags_intel.obj
 0002:00010644       ??_C@_0BC@A@for_diags_intel?4c?$AA@ 000000014015a644     libifcoremt:for_diags_intel.obj
 0002:00010658       ??_C@_00A@?$AA@            000000014015a658     libifcoremt:for_diags_intel.obj
 0002:0001065c       ??_C@_08A@No?5error?$AA@   000000014015a65c     libifcoremt:for_diags_intel.obj
 0002:00010668       ??_C@_07A@Success?$AA@     000000014015a668     libifcoremt:for_diags_intel.obj
 0002:00010670       ??_C@_0BA@A@Undefined?5error?$AA@ 000000014015a670     libifcoremt:for_diags_intel.obj
 0002:00010680       ??_C@_0O@A@Unknown?5error?$AA@ 000000014015a680     libifcoremt:for_diags_intel.obj
 0002:00010690       ??_C@_09A@?$CFs?5?3?5?$CFs?6?5?$AA@ 000000014015a690     libifcoremt:for_diags_intel.obj
 0002:0001069c       ??_C@_07A@?$CI1H?5?0A?$CJ?$AA@ 000000014015a69c     libifcoremt:for_diags_intel.obj
 0002:000106a4       ??_C@_02A@?$CFd?$AA@       000000014015a6a4     libifcoremt:for_diags_intel.obj
 0002:000106a8       ??_C@_01A@?6?$AA@          000000014015a6a8     libifcoremt:for_diags_intel.obj
 0002:000106ac       ??_C@_0BD@A@for_rtl_ICAF_ABORT?$AA@ 000000014015a6ac     libifcoremt:for_diags_intel.obj
 0002:000106c0       ??_C@_05A@FORT0?$AA@       000000014015a6c0     libifcoremt:for_diags_intel.obj
 0002:000106c8       ??_C@_01A@a?$AA@           000000014015a6c8     libifcoremt:for_diags_intel.obj
 0002:000106cc       ??_C@_0M@A@MessageBoxA?$AA@ 000000014015a6cc     libifcoremt:for_diags_intel.obj
 0002:000106d8       ??_C@_0BI@A@FOR_DIAGNOSTIC_LOG_FILE?$AA@ 000000014015a6d8     libifcoremt:for_diags_intel.obj
 0002:000106f0       ??_C@_0BP@A@FOR_DISABLE_DIAGNOSTIC_DISPLAY?$AA@ 000000014015a6f0     libifcoremt:for_diags_intel.obj
 0002:00010710       ??_C@_0L@A@user32?4dll?$AA@ 000000014015a710     libifcoremt:for_diags_intel.obj
 0002:0001071c       ??_C@_06A@?$CFs?3?5?$CFs?$AA@ 000000014015a71c     libifcoremt:for_diags_intel.obj
 0002:00010724       ??_C@_06A@?$CFlu?1?$CFs?$AA@ 000000014015a724     libifcoremt:for_diags_intel.obj
 0002:0001072c       ??_C@_0P@A@ifcore_msg?4dll?$AA@ 000000014015a72c     libifcoremt:for_diags_intel.obj
 0002:00010740       for__dsc_itm_table         000000014015a740     libifcoremt:for_desc_item.obj
 0002:00010834       ??_C@_0BA@A@for_desc_item?4c?$AA@ 000000014015a834     libifcoremt:for_desc_item.obj
 0002:000108cc       ??_C@_0O@A@for_lub_mgt?4c?$AA@ 000000014015a8cc     libifcoremt:for_lub_mgt.obj
 0002:000108dc       ??_C@_0N@A@kernel32?4dll?$AA@ 000000014015a8dc     libifcoremt:for_aio.obj
 0002:000108ec       ??_C@_0L@A@OpenThread?$AA@ 000000014015a8ec     libifcoremt:for_aio.obj
 0002:000108f8       ??_C@_09A@for_aio?4c?$AA@  000000014015a8f8     libifcoremt:for_aio.obj
 0002:00010904       ??_C@_0CG@A@FOR_FORCE_THREAD_CREATE_FAIL_OVER_NUM?$AA@ 000000014015a904     libifcoremt:for_aio.obj
 0002:00010a10       ??_C@_01A@?0?$AA@          000000014015aa10     libifcoremt:for_nt_open_proc.obj
 0002:00010a14       ??_C@_04A@USER?$AA@        000000014015aa14     libifcoremt:for_nt_open_proc.obj
 0002:00010a1c       ??_C@_0BN@A@FOR_DO_NOT_CACHE_DIRECT_FILE?$AA@ 000000014015aa1c     libifcoremt:for_nt_open_proc.obj
 0002:00010a3c       ??_C@_0BD@A@for_nt_open_proc?4c?$AA@ 000000014015aa3c     libifcoremt:for_nt_open_proc.obj
 0002:00010a50       ??_C@_03A@CON?$AA@         000000014015aa50     libifcoremt:for_nt_open_proc.obj
 0002:00010a54       ??_C@_0O@A@FORT_BUFFERED?$AA@ 000000014015aa54     libifcoremt:for_nt_open_proc.obj
 0002:00010a64       ??_C@_0BJ@A@FORT_BUFFERING_THRESHOLD?$AA@ 000000014015aa64     libifcoremt:for_nt_open_proc.obj
 0002:00010a80       ??_C@_0BD@A@FORT_BUFFER_STDOUT?$AA@ 000000014015aa80     libifcoremt:for_nt_open_proc.obj
 0002:00010a94       ??_C@_04A@COM1?$AA@        000000014015aa94     libifcoremt:for_nt_open_proc.obj
 0002:00010a9c       ??_C@_07A@Unit?5?$CFi?$AA@ 000000014015aa9c     libifcoremt:for_nt_open_proc.obj
 0002:00010aa4       ??_C@_0BI@A@FORT_FMT_NO_WRAP_MARGIN?$AA@ 000000014015aaa4     libifcoremt:for_nt_open_proc.obj
 0002:00010abc       ??_C@_0BB@A@?$CD?$CD?$CD?$CD?$CD?$CD?$CD?$CD?$CD?$CD?$CD?$CD?$CD?$CD?$CD?$AA?$AA@ 000000014015aabc     libifcoremt:for_nt_open_proc.obj
 0002:00010ad0       ??_C@_06A@FORT?$CFd?$AA@   000000014015aad0     libifcoremt:for_nt_open_proc.obj
 0002:00010ad8       ??_C@_07A@fort?4?$CFd?$AA@ 000000014015aad8     libifcoremt:for_nt_open_proc.obj
 0002:00010ae0       ??_C@_01A@?2?$AA@          000000014015aae0     libifcoremt:for_nt_open_proc.obj
 0002:00010ae4       ??_C@_0M@A@FORT_TMPDIR?$AA@ 000000014015aae4     libifcoremt:for_nt_open_proc.obj
 0002:00010af0       ??_C@_03A@FOR?$AA@         000000014015aaf0     libifcoremt:for_nt_open_proc.obj
 0002:00010af4       ??_C@_04A@?$CFs?$CFd?$AA@  000000014015aaf4     libifcoremt:for_nt_open_proc.obj
 0002:00010afc       ??_C@_0BM@A@Open?3?5Select?5File?5for?5Unit?5?$AA@ 000000014015aafc     libifcoremt:for_nt_open_proc.obj
 0002:00010b18       ??_C@_0CM@A@A?5File?5Must?5be?5Selected?$AN?$ANTerminate?5Program?$DP?$AA@ 000000014015ab18     libifcoremt:for_nt_open_proc.obj
 0002:00010b44       ??_C@_0BA@A@File?5Open?5Error?$AA@ 000000014015ab44     libifcoremt:for_nt_open_proc.obj
 0002:00010b54       ??_C@_04A@?$CFs?$AN?6?$AA@ 000000014015ab54     libifcoremt:for_nt_open_proc.obj
 0002:00010d4c       ??_C@_0P@A@for_fmt_comp?4c?$AA@ 000000014015ad4c     libifcoremt:for_fmt_comp.obj
 0002:00010d70       ??_C@_09A@for_get?4c?$AA@  000000014015ad70     libifcoremt:for_get.obj
 0002:00010d7c       ??_C@_02A@?$AN?6?$AA@      000000014015ad7c     libifcoremt:for_get.obj
 0002:00010f00       for__oz_fmt_table          000000014015af00     libifcoremt:for_intrp_fmt.obj
 0002:00010f60       for__b_fmt_table           000000014015af60     libifcoremt:for_intrp_fmt.obj
 0002:00011000       for__fedg_fmt_table        000000014015b000     libifcoremt:for_intrp_fmt.obj
 0002:000110e0       for__coerce_data_types     000000014015b0e0     libifcoremt:for_intrp_fmt.obj
 0002:00011544       for__i_fmt_table           000000014015b544     libifcoremt:for_intrp_fmt.obj
 0002:00011658       ??_C@_0BA@A@for_intrp_fmt?4c?$AA@ 000000014015b658     libifcoremt:for_intrp_fmt.obj
 0002:00011a40       ??_C@_02A@?$CFu?$AA@       000000014015ba40     libifcoremt:for_io_util.obj
 0002:00011ec0       nAvSignature               000000014015bec0     libifcoremt:for_avalloc.obj
 0002:00011ec4       ??_C@_01A@?$HL?$AA@        000000014015bec4     libifcoremt:for_avalloc.obj
 0002:00011ec8       ??_C@_04A@?$CF08X?$AA@     000000014015bec8     libifcoremt:for_avalloc.obj
 0002:00011ed0       ??_C@_0M@A@?90000?90000?9?$AA@ 000000014015bed0     libifcoremt:for_avalloc.obj
 0002:00011edc       ??_C@_04A@?$CF02X?$AA@     000000014015bedc     libifcoremt:for_avalloc.obj
 0002:00011ee4       ??_C@_01A@?9?$AA@          000000014015bee4     libifcoremt:for_avalloc.obj
 0002:00011ee8       ??_C@_01A@?$HN?$AA@        000000014015bee8     libifcoremt:for_avalloc.obj
 0002:00011f14       ??_C@_09A@for_put?4c?$AA@  000000014015bf14     libifcoremt:for_put.obj
 0002:00011f9c       ??_C@_0L@A@for_wseq?4c?$AA@ 000000014015bf9c     libifcoremt:for_wseq.obj
 0002:00011fc0       for__wfs_table             000000014015bfc0     libifcoremt:for_ldir_wfs.obj
 0002:000120e0       for__wfs_msf_table         000000014015c0e0     libifcoremt:for_ldir_wfs.obj
 0002:00012260       ??_C@_06A@?1proc?1?$AA@    000000014015c260     libifcoremt:for_need_lf.obj
 0002:00012268       ??_C@_04A@?1fd?1?$AA@      000000014015c268     libifcoremt:for_need_lf.obj
 0002:000123c4       ??_C@_0BC@A@for_rtl_ICAF_INIT?$AA@ 000000014015c3c4     libifcoremt:for_init.obj
 0002:000123d8       ??_C@_0BH@A@PIN_VM_LD_LIBRARY_PATH?$AA@ 000000014015c3d8     libifcoremt:for_init.obj
 0002:000123f0       ??_C@_0BI@A@PIN_APP_LD_LIBRARY_PATH?$AA@ 000000014015c3f0     libifcoremt:for_init.obj
 0002:00012408       ??_C@_0P@A@PIN_CRT_TZDATA?$AA@ 000000014015c408     libifcoremt:for_init.obj
 0002:00012418       ??_C@_0CB@A@FOR_DISABLE_CONSOLE_CTRL_HANDLER?$AA@ 000000014015c418     libifcoremt:for_init.obj
 0002:0001243c       ??_C@_0BE@A@FOR_NOERROR_DIALOGS?$AA@ 000000014015c43c     libifcoremt:for_init.obj
 0002:00012450       ??_C@_0BE@A@FOR_FASTMEM_NORETRY?$AA@ 000000014015c450     libifcoremt:for_init.obj
 0002:00012464       ??_C@_0BH@A@FOR_FASTMEM_RETRY_WARN?$AA@ 000000014015c464     libifcoremt:for_init.obj
 0002:0001247c       ??_C@_0BC@A@FOR_FASTMEM_RETRY?$AA@ 000000014015c47c     libifcoremt:for_init.obj
 0002:00012490       ??_C@_09A@control?9C?$AA@  000000014015c490     libifcoremt:for_init.obj
 0002:0001249c       ??_C@_0O@A@control?9BREAK?$AA@ 000000014015c49c     libifcoremt:for_init.obj
 0002:000124ac       ??_C@_0N@A@window?9CLOSE?$AA@ 000000014015c4ac     libifcoremt:for_init.obj
 0002:000124bc       ??_C@_0BG@A@FOR_IGNORE_EXCEPTIONS?$AA@ 000000014015c4bc     libifcoremt:for_init.obj
 0002:00012608       ??_C@_0BF@A@for_common_inquire?4c?$AA@ 000000014015c608     libifcoremt:for_common_inquire.obj
 0002:00012620       ??_C@_06A@NODENY?$AA@      000000014015c620     libifcoremt:for_common_inquire.obj
 0002:00012644       ??_C@_0N@A@?$CFs?5?$CG?$CG?5DEL?5?$CFs?$AA@ 000000014015c644     libifcoremt:for_close_proc.obj
 0002:00012654       ??_C@_0BJ@A@FOR_DEFAULT_PRINT_DEVICE?$AA@ 000000014015c654     libifcoremt:for_close_proc.obj
 0002:00012670       ??_C@_08A@PRN?9FILE?$AA@   000000014015c670     libifcoremt:for_close_proc.obj
 0002:0001267c       ??_C@_0BM@A@Command?4com?5?1C?5COPY?5?$CC?$CFs?$CC?5?$CFs?$AA@ 000000014015c67c     libifcoremt:for_close_proc.obj
 0002:00012698       ??_C@_0BI@A@Cmd?4exe?5?1C?5COPY?5?$CC?$CFs?$CC?5?$CFs?$AA@ 000000014015c698     libifcoremt:for_close_proc.obj
 0002:000126b0       ??_C@_0BG@A@for_rtl_ICAF_FINALIZE?$AA@ 000000014015c6b0     libifcoremt:for_exit_handler.obj
 0002:000126c8       ??_C@_0BD@A@for_exit_handler?4c?$AA@ 000000014015c6c8     libifcoremt:for_exit_handler.obj
 0002:000126dc       ??_C@_0BP@A@FOR_ENABLE_VERBOSE_STACK_TRACE?$AA@ 000000014015c6dc     libifcoremt:tbk_traceback.obj
 0002:000126fc       ??_C@_0BP@A@TBK_ENABLE_VERBOSE_STACK_TRACE?$AA@ 000000014015c6fc     libifcoremt:tbk_traceback.obj
 0002:0001271c       ??_C@_0DF@A@?6Hex?5Dump?5Of?5Exception?5Record?5Context?5Information?3?6?6?$AA@ 000000014015c71c     libifcoremt:tbk_traceback.obj
 0002:00012760       ??_C@_0EC@A@?$CFs?6?6?$CFs?$CF8?48X?6?$CFs?$CF8?48X?$CFs?$CF16?416I64X?$CFs?$CF8?48X?6?$CFs?$CF16?416I64X?$CFs?$CF16?416I64X?6?6?$AA@ 000000014015c760     libifcoremt:tbk_traceback.obj
 0002:000127c0       ??_C@_0DM@A@Exception?5Context?3?5?5Processor?5Control?5and?5Status?5Registers?4?$AA@ 000000014015c7c0     libifcoremt:tbk_traceback.obj
 0002:000127fc       ??_C@_09A@EFlags?3?5?5?$AA@ 000000014015c7fc     libifcoremt:tbk_traceback.obj
 0002:00012808       ??_C@_05A@CS?3?5?5?$AA@    000000014015c808     libifcoremt:tbk_traceback.obj
 0002:00012810       ??_C@_08A@?5?5EIP?3?5?5?$AA@ 000000014015c810     libifcoremt:tbk_traceback.obj
 0002:0001281c       ??_C@_08A@?5?5SS?3?5?5?5?$AA@ 000000014015c81c     libifcoremt:tbk_traceback.obj
 0002:00012828       ??_C@_06A@RSP?3?5?5?$AA@   000000014015c828     libifcoremt:tbk_traceback.obj
 0002:00012830       ??_C@_08A@?5?5RBP?3?5?5?$AA@ 000000014015c830     libifcoremt:tbk_traceback.obj
 0002:00012840       ??_C@_0LD@A@?$CFs?6?6?$CFs?$CF16?416I64X?$CFs?$CF16?416I64X?$CFs?$CF16?416I64X?6?$CFs?$CF16?416I64X?$CFs?$CF16?416I64X?$CFs?$CF16?416I64X?6?$CFs?$CF16?416I64X?$CFs?$CF16?416I64X?$CFs?$CF16?416I64X?6?$CFs?$CF16?416I64X?$CFs?$CF16?416I64X?$CFs?$CF16?416I64X?6?$CFs?$CF16?416I64X?$CFs?$CF16?416I64X?6?6?$AA@ 000000014015c840     libifcoremt:tbk_traceback.obj
 0002:00012900       ??_C@_0DB@A@Exception?5Context?3?5?5Processor?5Integer?5Registers?4?$AA@ 000000014015c900     libifcoremt:tbk_traceback.obj
 0002:00012934       ??_C@_05A@RAX?3?5?$AA@     000000014015c934     libifcoremt:tbk_traceback.obj
 0002:0001293c       ??_C@_07A@?5?5RBX?3?5?$AA@ 000000014015c93c     libifcoremt:tbk_traceback.obj
 0002:00012944       ??_C@_07A@?5?5RCX?3?5?$AA@ 000000014015c944     libifcoremt:tbk_traceback.obj
 0002:0001294c       ??_C@_05A@RDX?3?5?$AA@     000000014015c94c     libifcoremt:tbk_traceback.obj
 0002:00012954       ??_C@_07A@?5?5RSI?3?5?$AA@ 000000014015c954     libifcoremt:tbk_traceback.obj
 0002:0001295c       ??_C@_07A@?5?5RDI?3?5?$AA@ 000000014015c95c     libifcoremt:tbk_traceback.obj
 0002:00012964       ??_C@_05A@R8?3?5?5?$AA@    000000014015c964     libifcoremt:tbk_traceback.obj
 0002:0001296c       ??_C@_07A@?5?5R9?3?5?5?$AA@ 000000014015c96c     libifcoremt:tbk_traceback.obj
 0002:00012974       ??_C@_07A@?5?5R10?3?5?$AA@ 000000014015c974     libifcoremt:tbk_traceback.obj
 0002:0001297c       ??_C@_05A@R11?3?5?$AA@     000000014015c97c     libifcoremt:tbk_traceback.obj
 0002:00012984       ??_C@_07A@?5?5R12?3?5?$AA@ 000000014015c984     libifcoremt:tbk_traceback.obj
 0002:0001298c       ??_C@_07A@?5?5R13?3?5?$AA@ 000000014015c98c     libifcoremt:tbk_traceback.obj
 0002:00012994       ??_C@_05A@R14?3?5?$AA@     000000014015c994     libifcoremt:tbk_traceback.obj
 0002:0001299c       ??_C@_07A@?5?5R15?3?5?$AA@ 000000014015c99c     libifcoremt:tbk_traceback.obj
 0002:000129a4       ??_C@_0CH@A@?$CFs?6?6?$CFs?$CF8?48lX?$CFs?$CF8?48lX?$CFs?$CF8?48lX?$CFs?$CF8?48lX?6?6?$AA@ 000000014015c9a4     libifcoremt:tbk_traceback.obj
 0002:000129cc       ??_C@_0DB@A@Exception?5Context?3?5?5Processor?5Segment?5Registers?4?$AA@ 000000014015c9cc     libifcoremt:tbk_traceback.obj
 0002:00012a00       ??_C@_05A@DS?3?5?5?$AA@    000000014015ca00     libifcoremt:tbk_traceback.obj
 0002:00012a08       ??_C@_08A@?5?5ES?3?5?5?5?$AA@ 000000014015ca08     libifcoremt:tbk_traceback.obj
 0002:00012a14       ??_C@_08A@?5?5FS?3?5?5?5?$AA@ 000000014015ca14     libifcoremt:tbk_traceback.obj
 0002:00012a20       ??_C@_08A@?5?5GS?3?5?5?5?$AA@ 000000014015ca20     libifcoremt:tbk_traceback.obj
 0002:00012a40       ??_C@_0BGO@A@?$CFs?6?6?$CFs?$CF16?416I64X?$CF16?416I64X?$CFs?$CF16?416I64X?$CF16?416I64X?6?$CFs?$CF16?416I64X?$CF16?416I64X?$CFs?$CF16?416I64X?$CF16?416I64X?6?$CFs?$CF16?416I64X?$CF16?416I64X?$CFs?$CF16?416I64X?$CF16?416I64X?6?$CFs?$CF16?416I64X?$CF16?416I64X?$CFs?$CF16?416I64X?$CF16?416I64X?6?$CFs?$CF16?416I64X?$CF16?416I64X?$CFs?$CF16?416I64X?$CF16?416I64X?6?$CFs?$CF16?416I64X?$CF16?416I64X?$CFs?$CF16?416I64X?$CF16?416I64X?6?$CFs?$CF16?416I64X?$CF16?416I64X?$CFs?$CF16?416I64X?$CF16?416I64X?6?$CFs?$CF16?416I64X?$CF16?416I64X?$CFs?$CF16?416I64X?$CF16?416I64X?6?6?$AA@ 000000014015ca40     libifcoremt:tbk_traceback.obj
 0002:00012bc0       ??_C@_0CN@A@Exception?5Context?3?5?5Processor?5XMM?5Registers?4?$AA@ 000000014015cbc0     libifcoremt:tbk_traceback.obj
 0002:00012bf0       ??_C@_07A@Xmm0?3?5?5?$AA@  000000014015cbf0     libifcoremt:tbk_traceback.obj
 0002:00012bf8       ??_C@_09A@?5?5Xmm1?3?5?5?$AA@ 000000014015cbf8     libifcoremt:tbk_traceback.obj
 0002:00012c04       ??_C@_07A@Xmm2?3?5?5?$AA@  000000014015cc04     libifcoremt:tbk_traceback.obj
 0002:00012c0c       ??_C@_09A@?5?5Xmm3?3?5?5?$AA@ 000000014015cc0c     libifcoremt:tbk_traceback.obj
 0002:00012c18       ??_C@_07A@Xmm4?3?5?5?$AA@  000000014015cc18     libifcoremt:tbk_traceback.obj
 0002:00012c20       ??_C@_09A@?5?5Xmm5?3?5?5?$AA@ 000000014015cc20     libifcoremt:tbk_traceback.obj
 0002:00012c2c       ??_C@_07A@Xmm6?3?5?5?$AA@  000000014015cc2c     libifcoremt:tbk_traceback.obj
 0002:00012c34       ??_C@_09A@?5?5Xmm7?3?5?5?$AA@ 000000014015cc34     libifcoremt:tbk_traceback.obj
 0002:00012c40       ??_C@_07A@Xmm8?3?5?5?$AA@  000000014015cc40     libifcoremt:tbk_traceback.obj
 0002:00012c48       ??_C@_09A@?5?5Xmm9?3?5?5?$AA@ 000000014015cc48     libifcoremt:tbk_traceback.obj
 0002:00012c54       ??_C@_07A@Xmm10?3?5?$AA@   000000014015cc54     libifcoremt:tbk_traceback.obj
 0002:00012c5c       ??_C@_09A@?5?5Xmm11?3?5?$AA@ 000000014015cc5c     libifcoremt:tbk_traceback.obj
 0002:00012c68       ??_C@_07A@Xmm12?3?5?$AA@   000000014015cc68     libifcoremt:tbk_traceback.obj
 0002:00012c70       ??_C@_09A@?5?5Xmm13?3?5?$AA@ 000000014015cc70     libifcoremt:tbk_traceback.obj
 0002:00012c7c       ??_C@_07A@Xmm14?3?5?$AA@   000000014015cc7c     libifcoremt:tbk_traceback.obj
 0002:00012c84       ??_C@_09A@?5?5Xmm15?3?5?$AA@ 000000014015cc84     libifcoremt:tbk_traceback.obj
 0002:00012cbc       ??_C@_0O@A@for_portlib?4c?$AA@ 000000014015ccbc     libifcoremt:for_portlib.obj
 0002:00013360       ??_C@_0BB@A@0123456789ABCDEF?$AA@ 000000014015d360     libifcoremt:cvt_data_to_text.obj
 0002:000133f0       ??_C@_0P@A@FORT_BLOCKSIZE?$AA@ 000000014015d3f0     libifcoremt:for_default_io_sizes_env_init.obj
 0002:00013400       ??_C@_0BB@A@FORT_BUFFERCOUNT?$AA@ 000000014015d400     libifcoremt:for_default_io_sizes_env_init.obj
 0002:00013414       ??_C@_0O@A@FORT_FMT_RECL?$AA@ 000000014015d414     libifcoremt:for_default_io_sizes_env_init.obj
 0002:00013424       ??_C@_0P@A@FORT_UFMT_RECL?$AA@ 000000014015d424     libifcoremt:for_default_io_sizes_env_init.obj
 0002:00013440       vax_c                      000000014015d440     libifcoremt:cvt__globals.obj
 0002:00013480       ieee_t                     000000014015d480     libifcoremt:cvt__globals.obj
 0002:000134f0       ieee_s                     000000014015d4f0     libifcoremt:cvt__globals.obj
 0002:00013528       ibm_s                      000000014015d528     libifcoremt:cvt__globals.obj
 0002:00013544       ibm_l                      000000014015d544     libifcoremt:cvt__globals.obj
 0002:0001357c       cray                       000000014015d57c     libifcoremt:cvt__globals.obj
 0002:000135b4       int_c                      000000014015d5b4     libifcoremt:cvt__globals.obj
 0002:00013620       ??_C@_03A@nan?$AA@         000000014015d620     libifcoremt:cvtas_x_to_a.obj
 0002:00013624       ??_C@_03A@NaN?$AA@         000000014015d624     libifcoremt:cvtas_x_to_a.obj
 0002:00013628       ??_C@_08A@infinity?$AA@    000000014015d628     libifcoremt:cvtas_x_to_a.obj
 0002:00013940       cvtas_pten_128             000000014015d940     libifcoremt:cvtas_pow_ten_128.obj
 0002:00013b00       cvtas_tiny_tiny_pten_128   000000014015db00     libifcoremt:cvtas_pow_ten_128.obj
 0002:00013b40       cvtas_tiny_pten_128        000000014015db40     libifcoremt:cvtas_pow_ten_128.obj
 0002:00013be0       cvtas_tiny_pten_128_map    000000014015dbe0     libifcoremt:cvtas_pow_ten_128.obj
 0002:00013c80       cvtas_huge_huge_pten_128   000000014015dc80     libifcoremt:cvtas_pow_ten_128.obj
 0002:00013cc0       cvtas_huge_pten_128        000000014015dcc0     libifcoremt:cvtas_pow_ten_128.obj
 0002:00013d60       cvtas_huge_pten_128_map    000000014015dd60     libifcoremt:cvtas_pow_ten_128.obj
 0002:00013de8       cvtas_pten_128_bexp        000000014015dde8     libifcoremt:cvtas_pow_ten_128.obj
 0002:00013e1e       cvtas_tiny_tiny_pten_128_bexp 000000014015de1e     libifcoremt:cvtas_pow_ten_128.obj
 0002:00013e26       cvtas_tiny_pten_128_bexp   000000014015de26     libifcoremt:cvtas_pow_ten_128.obj
 0002:00013e3a       cvtas_huge_huge_pten_128_bexp 000000014015de3a     libifcoremt:cvtas_pow_ten_128.obj
 0002:00013e42       cvtas_huge_pten_128_bexp   000000014015de42     libifcoremt:cvtas_pow_ten_128.obj
 0002:00013e60       cvtas_pten_64              000000014015de60     libifcoremt:cvtas_pow_ten_64.obj
 0002:00014160       cvtas_pten_64_bexp         000000014015e160     libifcoremt:cvtas_pow_ten_64.obj
 0002:00014220       cvtas_tiny_pten_64         000000014015e220     libifcoremt:cvtas_pow_ten_64.obj
 0002:000142a0       cvtas_tiny_pten_64_map     000000014015e2a0     libifcoremt:cvtas_pow_ten_64.obj
 0002:00014320       cvtas_huge_pten_64         000000014015e320     libifcoremt:cvtas_pow_ten_64.obj
 0002:000143a0       cvtas_huge_pten_64_map     000000014015e3a0     libifcoremt:cvtas_pow_ten_64.obj
 0002:000143fa       cvtas_tiny_pten_64_bexp    000000014015e3fa     libifcoremt:cvtas_pow_ten_64.obj
 0002:00014418       cvtas_huge_pten_64_bexp    000000014015e418     libifcoremt:cvtas_pow_ten_64.obj
 0002:00014440       cvtas_pten_word            000000014015e440     libifcoremt:cvtas_globals.obj
 0002:000144e0       cvtas_globals_t            000000014015e4e0     libifcoremt:cvtas_globals.obj
 0002:00014540       cvtas_globals_x            000000014015e540     libifcoremt:cvtas_globals.obj
 0002:000145a0       cvtas_globals_s            000000014015e5a0     libifcoremt:cvtas_globals.obj
 0002:000145c0       cvtas_pten_t               000000014015e5c0     libifcoremt:cvtas_pow_ten_53.obj
 0002:000148c0       cvtas_tiny_pten_t          000000014015e8c0     libifcoremt:cvtas_pow_ten_53.obj
 0002:00014960       cvtas_tiny_pten_t_map      000000014015e960     libifcoremt:cvtas_pow_ten_53.obj
 0002:000149c0       cvtas_huge_pten_t          000000014015e9c0     libifcoremt:cvtas_pow_ten_53.obj
 0002:00014a40       cvtas_huge_pten_t_map      000000014015ea40     libifcoremt:cvtas_pow_ten_53.obj
 0002:0001d0d8       ??_C@_0BC@A@?$ANUn?9used?5message?6?$AA@ 00000001401670d8     libmmt:libm_error.obj
 0002:0001d0ec       ??_C@_0BB@A@?$AN?$CFs?$CFs?3?5?$CFs?5error?6?$AA@ 00000001401670ec     libmmt:libm_error.obj
 0002:0001d100       ??_C@_0BG@A@?$AN?$CFs?$CFs?$CI0?00?$CJ?3?5?$CFs?5error?6?$AA@ 0000000140167100     libmmt:libm_error.obj
 0002:0001d118       ??_C@_0BN@A@?$AN?$CFs?$CFs?$CI0?0negative?$CJ?3?5?$CFs?5error?6?$AA@ 0000000140167118     libmmt:libm_error.obj
 0002:0001d138       ??_C@_0CH@A@?$AN?$CFs?$CFs?$CInegative?0non?9integer?$CJ?3?5?$CFs?5error?6?$AA@ 0000000140167138     libmmt:libm_error.obj
 0002:0001d160       ??_C@_04A@acos?$AA@        0000000140167160     libmmt:libm_error.obj
 0002:0001d168       ??_C@_05A@acosd?$AA@       0000000140167168     libmmt:libm_error.obj
 0002:0001d170       ??_C@_06A@acosdq?$AA@      0000000140167170     libmmt:libm_error.obj
 0002:0001d178       ??_C@_05A@acosh?$AA@       0000000140167178     libmmt:libm_error.obj
 0002:0001d180       ??_C@_06A@acoshq?$AA@      0000000140167180     libmmt:libm_error.obj
 0002:0001d188       ??_C@_05A@acosq?$AA@       0000000140167188     libmmt:libm_error.obj
 0002:0001d190       ??_C@_07A@annuity?$AA@     0000000140167190     libmmt:libm_error.obj
 0002:0001d198       ??_C@_08A@annuityq?$AA@    0000000140167198     libmmt:libm_error.obj
 0002:0001d1a4       ??_C@_04A@asin?$AA@        00000001401671a4     libmmt:libm_error.obj
 0002:0001d1ac       ??_C@_05A@asind?$AA@       00000001401671ac     libmmt:libm_error.obj
 0002:0001d1b4       ??_C@_06A@asindq?$AA@      00000001401671b4     libmmt:libm_error.obj
 0002:0001d1bc       ??_C@_05A@asinq?$AA@       00000001401671bc     libmmt:libm_error.obj
 0002:0001d1c4       ??_C@_05A@atan2?$AA@       00000001401671c4     libmmt:libm_error.obj
 0002:0001d1cc       ??_C@_06A@atan2d?$AA@      00000001401671cc     libmmt:libm_error.obj
 0002:0001d1d4       ??_C@_07A@atan2dq?$AA@     00000001401671d4     libmmt:libm_error.obj
 0002:0001d1dc       ??_C@_06A@atan2q?$AA@      00000001401671dc     libmmt:libm_error.obj
 0002:0001d1e4       ??_C@_05A@atanh?$AA@       00000001401671e4     libmmt:libm_error.obj
 0002:0001d1ec       ??_C@_06A@atanhq?$AA@      00000001401671ec     libmmt:libm_error.obj
 0002:0001d1f4       ??_C@_07A@cdfnorm?$AA@     00000001401671f4     libmmt:libm_error.obj
 0002:0001d1fc       ??_C@_0L@A@cdfnorminv?$AA@ 00000001401671fc     libmmt:libm_error.obj
 0002:0001d208       ??_C@_08A@compound?$AA@    0000000140167208     libmmt:libm_error.obj
 0002:0001d214       ??_C@_09A@compoundq?$AA@   0000000140167214     libmmt:libm_error.obj
 0002:0001d220       ??_C@_04A@cosh?$AA@        0000000140167220     libmmt:libm_error.obj
 0002:0001d228       ??_C@_05A@coshq?$AA@       0000000140167228     libmmt:libm_error.obj
 0002:0001d230       ??_C@_03A@cot?$AA@         0000000140167230     libmmt:libm_error.obj
 0002:0001d234       ??_C@_04A@cotd?$AA@        0000000140167234     libmmt:libm_error.obj
 0002:0001d23c       ??_C@_05A@cotdq?$AA@       000000014016723c     libmmt:libm_error.obj
 0002:0001d244       ??_C@_04A@cotq?$AA@        0000000140167244     libmmt:libm_error.obj
 0002:0001d24c       ??_C@_04A@erfc?$AA@        000000014016724c     libmmt:libm_error.obj
 0002:0001d254       ??_C@_07A@erfcinv?$AA@     0000000140167254     libmmt:libm_error.obj
 0002:0001d25c       ??_C@_05A@erfcq?$AA@       000000014016725c     libmmt:libm_error.obj
 0002:0001d264       ??_C@_05A@erfcx?$AA@       0000000140167264     libmmt:libm_error.obj
 0002:0001d26c       ??_C@_06A@erfcxq?$AA@      000000014016726c     libmmt:libm_error.obj
 0002:0001d274       ??_C@_06A@erfinv?$AA@      0000000140167274     libmmt:libm_error.obj
 0002:0001d27c       ??_C@_03A@exp?$AA@         000000014016727c     libmmt:libm_error.obj
 0002:0001d280       ??_C@_05A@exp10?$AA@       0000000140167280     libmmt:libm_error.obj
 0002:0001d288       ??_C@_06A@exp10q?$AA@      0000000140167288     libmmt:libm_error.obj
 0002:0001d290       ??_C@_04A@exp2?$AA@        0000000140167290     libmmt:libm_error.obj
 0002:0001d298       ??_C@_05A@exp2q?$AA@       0000000140167298     libmmt:libm_error.obj
 0002:0001d2a0       ??_C@_05A@expm1?$AA@       00000001401672a0     libmmt:libm_error.obj
 0002:0001d2a8       ??_C@_06A@expm1q?$AA@      00000001401672a8     libmmt:libm_error.obj
 0002:0001d2b0       ??_C@_04A@expq?$AA@        00000001401672b0     libmmt:libm_error.obj
 0002:0001d2b8       ??_C@_04A@fdim?$AA@        00000001401672b8     libmmt:libm_error.obj
 0002:0001d2c0       ??_C@_05A@fdimq?$AA@       00000001401672c0     libmmt:libm_error.obj
 0002:0001d2c8       ??_C@_04A@fmod?$AA@        00000001401672c8     libmmt:libm_error.obj
 0002:0001d2d0       ??_C@_05A@fmodq?$AA@       00000001401672d0     libmmt:libm_error.obj
 0002:0001d2d8       ??_C@_05A@gamma?$AA@       00000001401672d8     libmmt:libm_error.obj
 0002:0001d2e0       ??_C@_06A@gammaq?$AA@      00000001401672e0     libmmt:libm_error.obj
 0002:0001d2e8       ??_C@_05A@hypot?$AA@       00000001401672e8     libmmt:libm_error.obj
 0002:0001d2f0       ??_C@_06A@hypotq?$AA@      00000001401672f0     libmmt:libm_error.obj
 0002:0001d2f8       ??_C@_05A@ilogb?$AA@       00000001401672f8     libmmt:libm_error.obj
 0002:0001d300       ??_C@_06A@ilogbq?$AA@      0000000140167300     libmmt:libm_error.obj
 0002:0001d308       ??_C@_02A@j0?$AA@          0000000140167308     libmmt:libm_error.obj
 0002:0001d30c       ??_C@_03A@j0q?$AA@         000000014016730c     libmmt:libm_error.obj
 0002:0001d310       ??_C@_02A@j1?$AA@          0000000140167310     libmmt:libm_error.obj
 0002:0001d314       ??_C@_03A@j1q?$AA@         0000000140167314     libmmt:libm_error.obj
 0002:0001d318       ??_C@_02A@jn?$AA@          0000000140167318     libmmt:libm_error.obj
 0002:0001d31c       ??_C@_03A@jnq?$AA@         000000014016731c     libmmt:libm_error.obj
 0002:0001d320       ??_C@_05A@ldexp?$AA@       0000000140167320     libmmt:libm_error.obj
 0002:0001d328       ??_C@_06A@ldexpq?$AA@      0000000140167328     libmmt:libm_error.obj
 0002:0001d330       ??_C@_06A@lgamma?$AA@      0000000140167330     libmmt:libm_error.obj
 0002:0001d338       ??_C@_07A@lgammaq?$AA@     0000000140167338     libmmt:libm_error.obj
 0002:0001d340       ??_C@_06A@llrint?$AA@      0000000140167340     libmmt:libm_error.obj
 0002:0001d348       ??_C@_07A@llrintq?$AA@     0000000140167348     libmmt:libm_error.obj
 0002:0001d350       ??_C@_07A@llround?$AA@     0000000140167350     libmmt:libm_error.obj
 0002:0001d358       ??_C@_08A@llroundq?$AA@    0000000140167358     libmmt:libm_error.obj
 0002:0001d364       ??_C@_03A@log?$AA@         0000000140167364     libmmt:libm_error.obj
 0002:0001d368       ??_C@_05A@log10?$AA@       0000000140167368     libmmt:libm_error.obj
 0002:0001d370       ??_C@_06A@log10q?$AA@      0000000140167370     libmmt:libm_error.obj
 0002:0001d378       ??_C@_05A@log1p?$AA@       0000000140167378     libmmt:libm_error.obj
 0002:0001d380       ??_C@_06A@log1pq?$AA@      0000000140167380     libmmt:libm_error.obj
 0002:0001d388       ??_C@_04A@log2?$AA@        0000000140167388     libmmt:libm_error.obj
 0002:0001d390       ??_C@_05A@log2q?$AA@       0000000140167390     libmmt:libm_error.obj
 0002:0001d398       ??_C@_04A@logb?$AA@        0000000140167398     libmmt:libm_error.obj
 0002:0001d3a0       ??_C@_05A@logbq?$AA@       00000001401673a0     libmmt:libm_error.obj
 0002:0001d3a8       ??_C@_04A@logq?$AA@        00000001401673a8     libmmt:libm_error.obj
 0002:0001d3b0       ??_C@_05A@lrint?$AA@       00000001401673b0     libmmt:libm_error.obj
 0002:0001d3b8       ??_C@_06A@lrintq?$AA@      00000001401673b8     libmmt:libm_error.obj
 0002:0001d3c0       ??_C@_06A@lround?$AA@      00000001401673c0     libmmt:libm_error.obj
 0002:0001d3c8       ??_C@_07A@lroundq?$AA@     00000001401673c8     libmmt:libm_error.obj
 0002:0001d3d0       ??_C@_09A@nextafter?$AA@   00000001401673d0     libmmt:libm_error.obj
 0002:0001d3dc       ??_C@_0L@A@nextafterq?$AA@ 00000001401673dc     libmmt:libm_error.obj
 0002:0001d3e8       ??_C@_0L@A@nexttoward?$AA@ 00000001401673e8     libmmt:libm_error.obj
 0002:0001d3f4       ??_C@_0M@A@nexttowardq?$AA@ 00000001401673f4     libmmt:libm_error.obj
 0002:0001d400       ??_C@_03A@pow?$AA@         0000000140167400     libmmt:libm_error.obj
 0002:0001d404       ??_C@_04A@powq?$AA@        0000000140167404     libmmt:libm_error.obj
 0002:0001d40c       ??_C@_09A@remainder?$AA@   000000014016740c     libmmt:libm_error.obj
 0002:0001d418       ??_C@_0L@A@remainderq?$AA@ 0000000140167418     libmmt:libm_error.obj
 0002:0001d424       ??_C@_06A@remquo?$AA@      0000000140167424     libmmt:libm_error.obj
 0002:0001d42c       ??_C@_07A@remquoq?$AA@     000000014016742c     libmmt:libm_error.obj
 0002:0001d434       ??_C@_05A@scalb?$AA@       0000000140167434     libmmt:libm_error.obj
 0002:0001d43c       ??_C@_07A@scalbln?$AA@     000000014016743c     libmmt:libm_error.obj
 0002:0001d444       ??_C@_08A@scalblnq?$AA@    0000000140167444     libmmt:libm_error.obj
 0002:0001d450       ??_C@_06A@scalbn?$AA@      0000000140167450     libmmt:libm_error.obj
 0002:0001d458       ??_C@_07A@scalbnq?$AA@     0000000140167458     libmmt:libm_error.obj
 0002:0001d460       ??_C@_06A@scalbq?$AA@      0000000140167460     libmmt:libm_error.obj
 0002:0001d468       ??_C@_04A@sinh?$AA@        0000000140167468     libmmt:libm_error.obj
 0002:0001d470       ??_C@_08A@sinhcosh?$AA@    0000000140167470     libmmt:libm_error.obj
 0002:0001d47c       ??_C@_09A@sinhcoshq?$AA@   000000014016747c     libmmt:libm_error.obj
 0002:0001d488       ??_C@_05A@sinhq?$AA@       0000000140167488     libmmt:libm_error.obj
 0002:0001d490       ??_C@_04A@sqrt?$AA@        0000000140167490     libmmt:libm_error.obj
 0002:0001d498       ??_C@_05A@sqrtq?$AA@       0000000140167498     libmmt:libm_error.obj
 0002:0001d4a0       ??_C@_04A@tand?$AA@        00000001401674a0     libmmt:libm_error.obj
 0002:0001d4a8       ??_C@_05A@tandq?$AA@       00000001401674a8     libmmt:libm_error.obj
 0002:0001d4b0       ??_C@_06A@tgamma?$AA@      00000001401674b0     libmmt:libm_error.obj
 0002:0001d4b8       ??_C@_02A@y0?$AA@          00000001401674b8     libmmt:libm_error.obj
 0002:0001d4bc       ??_C@_03A@y0q?$AA@         00000001401674bc     libmmt:libm_error.obj
 0002:0001d4c0       ??_C@_02A@y1?$AA@          00000001401674c0     libmmt:libm_error.obj
 0002:0001d4c4       ??_C@_03A@y1q?$AA@         00000001401674c4     libmmt:libm_error.obj
 0002:0001d4c8       ??_C@_02A@yn?$AA@          00000001401674c8     libmmt:libm_error.obj
 0002:0001d4cc       ??_C@_03A@ynq?$AA@         00000001401674cc     libmmt:libm_error.obj
 0002:0001d4d0       ??_C@_0L@A@libmUI?4dll?$AA@ 00000001401674d0     libmmt:libm_error.obj
 0002:0001d4dc       ??_C@_0CA@A@Cannot?5open?5message?5catalog?5?$CFs?6?$AA@ 00000001401674dc     libmmt:libm_error.obj
 0002:0001d4fc       ??_C@_01A@f?$AA@           00000001401674fc     libmmt:libm_error.obj
 0002:0001d500       ??_C@_01A@l?$AA@           0000000140167500     libmmt:libm_error.obj
 0002:0001d504       ??_C@_01A@q?$AA@           0000000140167504     libmmt:libm_error.obj
 0002:0001d508       ??_C@_07A@__dummy?$AA@     0000000140167508     libmmt:libm_error.obj
 0002:0001d510       ??_C@_06A@DOMAIN?$AA@      0000000140167510     libmmt:libm_error.obj
 0002:0001d518       ??_C@_04A@SING?$AA@        0000000140167518     libmmt:libm_error.obj
 0002:0001d520       ??_C@_08A@OVERFLOW?$AA@    0000000140167520     libmmt:libm_error.obj
 0002:0001d52c       ??_C@_09A@UNDERFLOW?$AA@   000000014016752c     libmmt:libm_error.obj
 0002:0001d538       ??_C@_05A@TLOSS?$AA@       0000000140167538     libmmt:libm_error.obj
 0002:0001d540       ??_C@_05A@PLOSS?$AA@       0000000140167540     libmmt:libm_error.obj
 0002:0001d548       ??_C@_04A@?$CFs?$CFs?$AA@  0000000140167548     libmmt:libm_error.obj
 0002:0001d560       __libm_logf_table_256      0000000140167560     libmmt:logf_table.obj
 0002:0001dd60       __libm_rcp_table_256       0000000140167d60     libmmt:rcp_table.obj
 0002:0001e160       __libm_double_rcp_table_256 0000000140168160     libmmt:rcp_table.obj
 0002:000219e0       _FPinit                    000000014016b9e0     LIBCMT:fpinit.obj
 0002:000219e8       ?ProcessDetach@NativeDll@<CrtImplementationDetails>@@0IB 000000014016b9e8     LIBCMT:toupper.obj
 0002:000219ec       ?ProcessAttach@NativeDll@<CrtImplementationDetails>@@0IB 000000014016b9ec     LIBCMT:toupper.obj
 0002:000219f0       ?ThreadAttach@NativeDll@<CrtImplementationDetails>@@0IB 000000014016b9f0     LIBCMT:toupper.obj
 0002:000219f4       ?ThreadDetach@NativeDll@<CrtImplementationDetails>@@0IB 000000014016b9f4     LIBCMT:toupper.obj
 0002:000219f8       ?ProcessVerifier@NativeDll@<CrtImplementationDetails>@@0IB 000000014016b9f8     LIBCMT:toupper.obj
 0002:00021a00       ??_C@_1BI@BGOHAHKC@?$AAm?$AAs?$AAc?$AAo?$AAr?$AAe?$AAe?$AA?4?$AAd?$AAl?$AAl?$AA?$AA@ 000000014016ba00     LIBCMT:crt0dat.obj
 0002:00021a18       ??_C@_0P@MIGLKIOC@CorExitProcess?$AA@ 000000014016ba18     LIBCMT:crt0dat.obj
 0002:00021a30       ??_C@_0EA@FCLIIPNN@Visual?5C?$CL?$CL?5CRT?3?5Not?5enough?5memor@ 000000014016ba30     LIBCMT:strerror.obj
 0002:00021a70       ??_C@_05KLBDPFGC@e?$CL000?$AA@ 000000014016ba70     LIBCMT:cvt.obj
 0002:00021a78       __real@0000000000000000    000000014016ba78     LIBCMT:cvt.obj
 0002:00021a80       _XcptActTab                000000014016ba80     LIBCMT:winxfltr.obj
 0002:00021b40       _XcptActTabCount           000000014016bb40     LIBCMT:winxfltr.obj
 0002:00021b44       _XcptActTabSize            000000014016bb44     LIBCMT:winxfltr.obj
 0002:00021b48       _First_FPE_Indx            000000014016bb48     LIBCMT:winxfltr.obj
 0002:00021b4c       _Num_FPE                   000000014016bb4c     LIBCMT:winxfltr.obj
 0002:00021cc0       ??_C@_1FK@PGACCAFB@?$AAR?$AA6?$AA0?$AA0?$AA2?$AA?$AN?$AA?6?$AA?9?$AA?5?$AAf?$AAl?$AAo?$AAa?$AAt?$AAi?$AAn?$AAg?$AA?5?$AAp?$AAo?$AAi?$AAn?$AAt?$AA?5?$AAs?$AAu?$AAp?$AAp?$AAo?$AAr?$AAt?$AA?5@ 000000014016bcc0     LIBCMT:crt0msg.obj
 0002:00021d20       ??_C@_1FE@LLNEDJMD@?$AAR?$AA6?$AA0?$AA0?$AA8?$AA?$AN?$AA?6?$AA?9?$AA?5?$AAn?$AAo?$AAt?$AA?5?$AAe?$AAn?$AAo?$AAu?$AAg?$AAh?$AA?5?$AAs?$AAp?$AAa?$AAc?$AAe?$AA?5?$AAf?$AAo?$AAr?$AA?5?$AAa?$AAr@ 000000014016bd20     LIBCMT:crt0msg.obj
 0002:00021d80       ??_C@_1FI@HONFMGBI@?$AAR?$AA6?$AA0?$AA0?$AA9?$AA?$AN?$AA?6?$AA?9?$AA?5?$AAn?$AAo?$AAt?$AA?5?$AAe?$AAn?$AAo?$AAu?$AAg?$AAh?$AA?5?$AAs?$AAp?$AAa?$AAc?$AAe?$AA?5?$AAf?$AAo?$AAr?$AA?5?$AAe?$AAn@ 000000014016bd80     LIBCMT:crt0msg.obj
 0002:00021de0       ??_C@_1EG@BEHAGFJD@?$AAR?$AA6?$AA0?$AA1?$AA0?$AA?$AN?$AA?6?$AA?9?$AA?5?$AAa?$AAb?$AAo?$AAr?$AAt?$AA?$CI?$AA?$CJ?$AA?5?$AAh?$AAa?$AAs?$AA?5?$AAb?$AAe?$AAe?$AAn?$AA?5?$AAc?$AAa?$AAl?$AAl?$AAe?$AAd@ 000000014016bde0     LIBCMT:crt0msg.obj
 0002:00021e30       ??_C@_1FI@LOGNIKDM@?$AAR?$AA6?$AA0?$AA1?$AA6?$AA?$AN?$AA?6?$AA?9?$AA?5?$AAn?$AAo?$AAt?$AA?5?$AAe?$AAn?$AAo?$AAu?$AAg?$AAh?$AA?5?$AAs?$AAp?$AAa?$AAc?$AAe?$AA?5?$AAf?$AAo?$AAr?$AA?5?$AAt?$AAh@ 000000014016be30     LIBCMT:crt0msg.obj
 0002:00021e90       ??_C@_1FK@BEOGODMC@?$AAR?$AA6?$AA0?$AA1?$AA7?$AA?$AN?$AA?6?$AA?9?$AA?5?$AAu?$AAn?$AAe?$AAx?$AAp?$AAe?$AAc?$AAt?$AAe?$AAd?$AA?5?$AAm?$AAu?$AAl?$AAt?$AAi?$AAt?$AAh?$AAr?$AAe?$AAa?$AAd?$AA?5@ 000000014016be90     LIBCMT:crt0msg.obj
 0002:00021ef0       ??_C@_1EC@JIBHAOPH@?$AAR?$AA6?$AA0?$AA1?$AA8?$AA?$AN?$AA?6?$AA?9?$AA?5?$AAu?$AAn?$AAe?$AAx?$AAp?$AAe?$AAc?$AAt?$AAe?$AAd?$AA?5?$AAh?$AAe?$AAa?$AAp?$AA?5?$AAe?$AAr?$AAr?$AAo?$AAr?$AA?$AN?$AA?6@ 000000014016bef0     LIBCMT:crt0msg.obj
 0002:00021f40       ??_C@_1FC@ECHBIFBC@?$AAR?$AA6?$AA0?$AA1?$AA9?$AA?$AN?$AA?6?$AA?9?$AA?5?$AAu?$AAn?$AAa?$AAb?$AAl?$AAe?$AA?5?$AAt?$AAo?$AA?5?$AAo?$AAp?$AAe?$AAn?$AA?5?$AAc?$AAo?$AAn?$AAs?$AAo?$AAl?$AAe?$AA?5@ 000000014016bf40     LIBCMT:crt0msg.obj
 0002:00021fa0       ??_C@_1GK@FHCKBEFA@?$AAR?$AA6?$AA0?$AA2?$AA4?$AA?$AN?$AA?6?$AA?9?$AA?5?$AAn?$AAo?$AAt?$AA?5?$AAe?$AAn?$AAo?$AAu?$AAg?$AAh?$AA?5?$AAs?$AAp?$AAa?$AAc?$AAe?$AA?5?$AAf?$AAo?$AAr?$AA?5?$AA_?$AAo@ 000000014016bfa0     LIBCMT:crt0msg.obj
 0002:00022010       ??_C@_1EM@MAADIHMB@?$AAR?$AA6?$AA0?$AA2?$AA5?$AA?$AN?$AA?6?$AA?9?$AA?5?$AAp?$AAu?$AAr?$AAe?$AA?5?$AAv?$AAi?$AAr?$AAt?$AAu?$AAa?$AAl?$AA?5?$AAf?$AAu?$AAn?$AAc?$AAt?$AAi?$AAo?$AAn?$AA?5?$AAc@ 000000014016c010     LIBCMT:crt0msg.obj
 0002:00022060       ??_C@_1GK@MCAAGJMO@?$AAR?$AA6?$AA0?$AA2?$AA6?$AA?$AN?$AA?6?$AA?9?$AA?5?$AAn?$AAo?$AAt?$AA?5?$AAe?$AAn?$AAo?$AAu?$AAg?$AAh?$AA?5?$AAs?$AAp?$AAa?$AAc?$AAe?$AA?5?$AAf?$AAo?$AAr?$AA?5?$AAs?$AAt@ 000000014016c060     LIBCMT:crt0msg.obj
 0002:000220d0       ??_C@_1GK@MFGOKLAG@?$AAR?$AA6?$AA0?$AA2?$AA7?$AA?$AN?$AA?6?$AA?9?$AA?5?$AAn?$AAo?$AAt?$AA?5?$AAe?$AAn?$AAo?$AAu?$AAg?$AAh?$AA?5?$AAs?$AAp?$AAa?$AAc?$AAe?$AA?5?$AAf?$AAo?$AAr?$AA?5?$AAl?$AAo@ 000000014016c0d0     LIBCMT:crt0msg.obj
 0002:00022140       ??_C@_1EK@HHFLMAOL@?$AAR?$AA6?$AA0?$AA2?$AA8?$AA?$AN?$AA?6?$AA?9?$AA?5?$AAu?$AAn?$AAa?$AAb?$AAl?$AAe?$AA?5?$AAt?$AAo?$AA?5?$AAi?$AAn?$AAi?$AAt?$AAi?$AAa?$AAl?$AAi?$AAz?$AAe?$AA?5?$AAh?$AAe@ 000000014016c140     LIBCMT:crt0msg.obj
 0002:00022190       ??_C@_1DO@BMFCDCD@?$AAR?$AA6?$AA0?$AA3?$AA0?$AA?$AN?$AA?6?$AA?9?$AA?5?$AAC?$AAR?$AAT?$AA?5?$AAn?$AAo?$AAt?$AA?5?$AAi?$AAn?$AAi?$AAt?$AAi?$AAa?$AAl?$AAi?$AAz?$AAe?$AAd?$AA?$AN?$AA?6?$AA?$AA@ 000000014016c190     LIBCMT:crt0msg.obj
 0002:000221d0       ??_C@_1MG@ENCOOIDF@?$AAR?$AA6?$AA0?$AA3?$AA1?$AA?$AN?$AA?6?$AA?9?$AA?5?$AAA?$AAt?$AAt?$AAe?$AAm?$AAp?$AAt?$AA?5?$AAt?$AAo?$AA?5?$AAi?$AAn?$AAi?$AAt?$AAi?$AAa?$AAl?$AAi?$AAz?$AAe?$AA?5?$AAt@ 000000014016c1d0     LIBCMT:crt0msg.obj
 0002:000222a0       ??_C@_1GG@GOPILAJP@?$AAR?$AA6?$AA0?$AA3?$AA2?$AA?$AN?$AA?6?$AA?9?$AA?5?$AAn?$AAo?$AAt?$AA?5?$AAe?$AAn?$AAo?$AAu?$AAg?$AAh?$AA?5?$AAs?$AAp?$AAa?$AAc?$AAe?$AA?5?$AAf?$AAo?$AAr?$AA?5?$AAl?$AAo@ 000000014016c2a0     LIBCMT:crt0msg.obj
 0002:00022310       ??_C@_1BOO@KGEDBGAJ@?$AAR?$AA6?$AA0?$AA3?$AA3?$AA?$AN?$AA?6?$AA?9?$AA?5?$AAA?$AAt?$AAt?$AAe?$AAm?$AAp?$AAt?$AA?5?$AAt?$AAo?$AA?5?$AAu?$AAs?$AAe?$AA?5?$AAM?$AAS?$AAI?$AAL?$AA?5?$AAc?$AAo?$AAd@ 000000014016c310     LIBCMT:crt0msg.obj
 0002:00022500       ??_C@_1GG@MKFPEKFO@?$AAR?$AA6?$AA0?$AA3?$AA4?$AA?$AN?$AA?6?$AA?9?$AA?5?$AAi?$AAn?$AAc?$AAo?$AAn?$AAs?$AAi?$AAs?$AAt?$AAe?$AAn?$AAt?$AA?5?$AAo?$AAn?$AAe?$AAx?$AAi?$AAt?$AA?5?$AAb?$AAe?$AAg@ 000000014016c500     LIBCMT:crt0msg.obj
 0002:00022568       ??_C@_1BO@BFCDCGC@?$AAD?$AAO?$AAM?$AAA?$AAI?$AAN?$AA?5?$AAe?$AAr?$AAr?$AAo?$AAr?$AA?$AN?$AA?6?$AA?$AA@ 000000014016c568     LIBCMT:crt0msg.obj
 0002:00022588       ??_C@_1BK@KMOMNAAI@?$AAS?$AAI?$AAN?$AAG?$AA?5?$AAe?$AAr?$AAr?$AAo?$AAr?$AA?$AN?$AA?6?$AA?$AA@ 000000014016c588     LIBCMT:crt0msg.obj
 0002:000225a8       ??_C@_1BM@JBBEPPHI@?$AAT?$AAL?$AAO?$AAS?$AAS?$AA?5?$AAe?$AAr?$AAr?$AAo?$AAr?$AA?$AN?$AA?6?$AA?$AA@ 000000014016c5a8     LIBCMT:crt0msg.obj
 0002:000225c4       ??_C@_15JNBOKNOG@?$AA?$AN?$AA?6?$AA?$AA@ 000000014016c5c4     LIBCMT:crt0msg.obj
 0002:000225d0       ??_C@_1BO@BKOMIGKJ@?$AAr?$AAu?$AAn?$AAt?$AAi?$AAm?$AAe?$AA?5?$AAe?$AAr?$AAr?$AAo?$AAr?$AA?5?$AA?$AA@ 000000014016c5d0     LIBCMT:crt0msg.obj
 0002:000225f0       ??_C@_1DE@JNGNBFGO@?$AAR?$AAu?$AAn?$AAt?$AAi?$AAm?$AAe?$AA?5?$AAE?$AAr?$AAr?$AAo?$AAr?$AA?$CB?$AA?6?$AA?6?$AAP?$AAr?$AAo?$AAg?$AAr?$AAa?$AAm?$AA?3?$AA?5?$AA?$AA@ 000000014016c5f0     LIBCMT:crt0msg.obj
 0002:00022628       ??_C@_1CO@EAEJAADC@?$AA?$DM?$AAp?$AAr?$AAo?$AAg?$AAr?$AAa?$AAm?$AA?5?$AAn?$AAa?$AAm?$AAe?$AA?5?$AAu?$AAn?$AAk?$AAn?$AAo?$AAw?$AAn?$AA?$DO?$AA?$AA@ 000000014016c628     LIBCMT:crt0msg.obj
 0002:00022658       ??_C@_17LGKOMLJ@?$AA?4?$AA?4?$AA?4?$AA?$AA@ 000000014016c658     LIBCMT:crt0msg.obj
 0002:00022660       ??_C@_15IABLJNFO@?$AA?6?$AA?6?$AA?$AA@ 000000014016c660     LIBCMT:crt0msg.obj
 0002:00022670       ??_C@_1EK@MBDPDCGA@?$AAM?$AAi?$AAc?$AAr?$AAo?$AAs?$AAo?$AAf?$AAt?$AA?5?$AAV?$AAi?$AAs?$AAu?$AAa?$AAl?$AA?5?$AAC?$AA?$CL?$AA?$CL?$AA?5?$AAR?$AAu?$AAn?$AAt?$AAi?$AAm?$AAe?$AA?5?$AAL?$AAi?$AAb@ 000000014016c670     LIBCMT:crt0msg.obj
 0002:000226f0       ??_C@_1M@HPNHIDJI@?$AAj?$AAa?$AA?9?$AAJ?$AAP?$AA?$AA@ 000000014016c6f0     LIBCMT:mbctype.obj
 0002:00022700       ??_C@_1M@BIBDDEMK@?$AAz?$AAh?$AA?9?$AAC?$AAN?$AA?$AA@ 000000014016c700     LIBCMT:mbctype.obj
 0002:00022710       ??_C@_1M@JLOOOEGK@?$AAk?$AAo?$AA?9?$AAK?$AAR?$AA?$AA@ 000000014016c710     LIBCMT:mbctype.obj
 0002:00022720       ??_C@_1M@CLNBBOPM@?$AAz?$AAh?$AA?9?$AAT?$AAW?$AA?$AA@ 000000014016c720     LIBCMT:mbctype.obj
 0002:0002272c       ??_C@_03KOEHGMDN@Sun?$AA@  000000014016c72c     LIBCMT:nlsdata.obj
 0002:00022730       ??_C@_03PDAGKDH@Mon?$AA@   000000014016c730     LIBCMT:nlsdata.obj
 0002:00022734       ??_C@_03NAGEINEP@Tue?$AA@  000000014016c734     LIBCMT:nlsdata.obj
 0002:00022738       ??_C@_03MHOMLAJA@Wed?$AA@  000000014016c738     LIBCMT:nlsdata.obj
 0002:0002273c       ??_C@_03IOFIKPDN@Thu?$AA@  000000014016c73c     LIBCMT:nlsdata.obj
 0002:00022740       ??_C@_03IDIOELNC@Fri?$AA@  000000014016c740     LIBCMT:nlsdata.obj
 0002:00022744       ??_C@_03FEFJNEK@Sat?$AA@   000000014016c744     LIBCMT:nlsdata.obj
 0002:00022748       ??_C@_06OOPIFAJ@Sunday?$AA@ 000000014016c748     LIBCMT:nlsdata.obj
 0002:00022750       ??_C@_06JLEDEDGH@Monday?$AA@ 000000014016c750     LIBCMT:nlsdata.obj
 0002:00022758       ??_C@_07BAAGCFCM@Tuesday?$AA@ 000000014016c758     LIBCMT:nlsdata.obj
 0002:00022760       ??_C@_09DLIGFAKA@Wednesday?$AA@ 000000014016c760     LIBCMT:nlsdata.obj
 0002:00022770       ??_C@_08HACCIKIA@Thursday?$AA@ 000000014016c770     LIBCMT:nlsdata.obj
 0002:0002277c       ??_C@_06JECMNKMI@Friday?$AA@ 000000014016c77c     LIBCMT:nlsdata.obj
 0002:00022788       ??_C@_08INBOOONO@Saturday?$AA@ 000000014016c788     LIBCMT:nlsdata.obj
 0002:00022794       ??_C@_03JIHJHPIE@Jan?$AA@  000000014016c794     LIBCMT:nlsdata.obj
 0002:00022798       ??_C@_03HJBDCHOM@Feb?$AA@  000000014016c798     LIBCMT:nlsdata.obj
 0002:0002279c       ??_C@_03ODNJBKGA@Mar?$AA@  000000014016c79c     LIBCMT:nlsdata.obj
 0002:000227a0       ??_C@_03LEOLGMJP@Apr?$AA@  000000014016c7a0     LIBCMT:nlsdata.obj
 0002:000227a4       ??_C@_03CNMDKL@May?$AA@    000000014016c7a4     LIBCMT:nlsdata.obj
 0002:000227a8       ??_C@_03IDFGHECI@Jun?$AA@  000000014016c7a8     LIBCMT:nlsdata.obj
 0002:000227ac       ??_C@_03LBGABGKK@Jul?$AA@  000000014016c7ac     LIBCMT:nlsdata.obj
 0002:000227b0       ??_C@_03IFJFEIGA@Aug?$AA@  000000014016c7b0     LIBCMT:nlsdata.obj
 0002:000227b4       ??_C@_03GGCAPAJC@Sep?$AA@  000000014016c7b4     LIBCMT:nlsdata.obj
 0002:000227b8       ??_C@_03BMAOKBAD@Oct?$AA@  000000014016c7b8     LIBCMT:nlsdata.obj
 0002:000227bc       ??_C@_03JPJOFNIA@Nov?$AA@  000000014016c7bc     LIBCMT:nlsdata.obj
 0002:000227c0       ??_C@_03MKABNOCG@Dec?$AA@  000000014016c7c0     LIBCMT:nlsdata.obj
 0002:000227c8       ??_C@_07CGJPFGJA@January?$AA@ 000000014016c7c8     LIBCMT:nlsdata.obj
 0002:000227d0       ??_C@_08GNJGEPFN@February?$AA@ 000000014016c7d0     LIBCMT:nlsdata.obj
 0002:000227dc       ??_C@_05HPCKOFNC@March?$AA@ 000000014016c7dc     LIBCMT:nlsdata.obj
 0002:000227e4       ??_C@_05DMJDNLEJ@April?$AA@ 000000014016c7e4     LIBCMT:nlsdata.obj
 0002:000227ec       ??_C@_04CNLMGBGM@June?$AA@ 000000014016c7ec     LIBCMT:nlsdata.obj
 0002:000227f4       ??_C@_04MIEPOIFP@July?$AA@ 000000014016c7f4     LIBCMT:nlsdata.obj
 0002:000227fc       ??_C@_06LBBHFDDG@August?$AA@ 000000014016c7fc     LIBCMT:nlsdata.obj
 0002:00022808       ??_C@_09BHHEALKD@September?$AA@ 000000014016c808     LIBCMT:nlsdata.obj
 0002:00022818       ??_C@_07JJNFCEND@October?$AA@ 000000014016c818     LIBCMT:nlsdata.obj
 0002:00022820       ??_C@_08HCHEGEOA@November?$AA@ 000000014016c820     LIBCMT:nlsdata.obj
 0002:00022830       ??_C@_08EDHMEBNP@December?$AA@ 000000014016c830     LIBCMT:nlsdata.obj
 0002:0002283c       ??_C@_02DEDBPAFC@AM?$AA@   000000014016c83c     LIBCMT:nlsdata.obj
 0002:00022840       ??_C@_02CJNFDJBF@PM?$AA@   000000014016c840     LIBCMT:nlsdata.obj
 0002:00022848       ??_C@_08BPBNCDIB@MM?1dd?1yy?$AA@ 000000014016c848     LIBCMT:nlsdata.obj
 0002:00022858       ??_C@_0BE@CKGJFCPC@dddd?0?5MMMM?5dd?0?5yyyy?$AA@ 000000014016c858     LIBCMT:nlsdata.obj
 0002:00022870       ??_C@_08JCCMCCIL@HH?3mm?3ss?$AA@ 000000014016c870     LIBCMT:nlsdata.obj
 0002:00022880       ??_C@_17MBGCMIPB@?$AAS?$AAu?$AAn?$AA?$AA@ 000000014016c880     LIBCMT:nlsdata.obj
 0002:00022888       ??_C@_17KBOMKBF@?$AAM?$AAo?$AAn?$AA?$AA@ 000000014016c888     LIBCMT:nlsdata.obj
 0002:00022890       ??_C@_17BMKGEGOJ@?$AAT?$AAu?$AAe?$AA?$AA@ 000000014016c890     LIBCMT:nlsdata.obj
 0002:00022898       ??_C@_17CJEDCEPE@?$AAW?$AAe?$AAd?$AA?$AA@ 000000014016c898     LIBCMT:nlsdata.obj
 0002:000228a0       ??_C@_17PDPHAADD@?$AAT?$AAh?$AAu?$AA?$AA@ 000000014016c8a0     LIBCMT:nlsdata.obj
 0002:000228a8       ??_C@_17HFOLPPLP@?$AAF?$AAr?$AAi?$AA?$AA@ 000000014016c8a8     LIBCMT:nlsdata.obj
 0002:000228b0       ??_C@_17GGIBDPIH@?$AAS?$AAa?$AAt?$AA?$AA@ 000000014016c8b0     LIBCMT:nlsdata.obj
 0002:000228b8       ??_C@_1O@IHNHDHPB@?$AAS?$AAu?$AAn?$AAd?$AAa?$AAy?$AA?$AA@ 000000014016c8b8     LIBCMT:nlsdata.obj
 0002:000228c8       ??_C@_1O@MMNBFLIA@?$AAM?$AAo?$AAn?$AAd?$AAa?$AAy?$AA?$AA@ 000000014016c8c8     LIBCMT:nlsdata.obj
 0002:000228d8       ??_C@_1BA@ENFBFFEK@?$AAT?$AAu?$AAe?$AAs?$AAd?$AAa?$AAy?$AA?$AA@ 000000014016c8d8     LIBCMT:nlsdata.obj
 0002:000228e8       ??_C@_1BE@EBOGMDOH@?$AAW?$AAe?$AAd?$AAn?$AAe?$AAs?$AAd?$AAa?$AAy?$AA?$AA@ 000000014016c8e8     LIBCMT:nlsdata.obj
 0002:00022900       ??_C@_1BC@HHMNLIHE@?$AAT?$AAh?$AAu?$AAr?$AAs?$AAd?$AAa?$AAy?$AA?$AA@ 000000014016c900     LIBCMT:nlsdata.obj
 0002:00022918       ??_C@_1O@PDICJHAG@?$AAF?$AAr?$AAi?$AAd?$AAa?$AAy?$AA?$AA@ 000000014016c918     LIBCMT:nlsdata.obj
 0002:00022928       ??_C@_1BC@ENMNNPAJ@?$AAS?$AAa?$AAt?$AAu?$AAr?$AAd?$AAa?$AAy?$AA?$AA@ 000000014016c928     LIBCMT:nlsdata.obj
 0002:00022940       ??_C@_17DKNBKCHM@?$AAJ?$AAa?$AAn?$AA?$AA@ 000000014016c940     LIBCMT:nlsdata.obj
 0002:00022948       ??_C@_17LMDJEKJN@?$AAF?$AAe?$AAb?$AA?$AA@ 000000014016c948     LIBCMT:nlsdata.obj
 0002:00022950       ??_C@_17CKNLEDEC@?$AAM?$AAa?$AAr?$AA?$AA@ 000000014016c950     LIBCMT:nlsdata.obj
 0002:00022958       ??_C@_17LFPOIHDD@?$AAA?$AAp?$AAr?$AA?$AA@ 000000014016c958     LIBCMT:nlsdata.obj
 0002:00022960       ??_C@_17PNNKMEED@?$AAM?$AAa?$AAy?$AA?$AA@ 000000014016c960     LIBCMT:nlsdata.obj
 0002:00022968       ??_C@_17KCJGOCPB@?$AAJ?$AAu?$AAn?$AA?$AA@ 000000014016c968     LIBCMT:nlsdata.obj
 0002:00022970       ??_C@_17IJPCKHK@?$AAJ?$AAu?$AAl?$AA?$AA@ 000000014016c970     LIBCMT:nlsdata.obj
 0002:00022978       ??_C@_17ICPELBCN@?$AAA?$AAu?$AAg?$AA?$AA@ 000000014016c978     LIBCMT:nlsdata.obj
 0002:00022980       ??_C@_17HCHCOKMG@?$AAS?$AAe?$AAp?$AA?$AA@ 000000014016c980     LIBCMT:nlsdata.obj
 0002:00022988       ??_C@_17FNLKOI@?$AAO?$AAc?$AAt?$AA?$AA@ 000000014016c988     LIBCMT:nlsdata.obj
 0002:00022990       ??_C@_17BBDMLCIG@?$AAN?$AAo?$AAv?$AA?$AA@ 000000014016c990     LIBCMT:nlsdata.obj
 0002:00022998       ??_C@_17EGKACKIF@?$AAD?$AAe?$AAc?$AA?$AA@ 000000014016c998     LIBCMT:nlsdata.obj
 0002:000229a0       ??_C@_1BA@EFMEIEBA@?$AAJ?$AAa?$AAn?$AAu?$AAa?$AAr?$AAy?$AA?$AA@ 000000014016c9a0     LIBCMT:nlsdata.obj
 0002:000229b0       ??_C@_1BC@JGDDFFAM@?$AAF?$AAe?$AAb?$AAr?$AAu?$AAa?$AAr?$AAy?$AA?$AA@ 000000014016c9b0     LIBCMT:nlsdata.obj
 0002:000229c8       ??_C@_1M@IKEENEDF@?$AAM?$AAa?$AAr?$AAc?$AAh?$AA?$AA@ 000000014016c9c8     LIBCMT:nlsdata.obj
 0002:000229d8       ??_C@_1M@GJNLMHFD@?$AAA?$AAp?$AAr?$AAi?$AAl?$AA?$AA@ 000000014016c9d8     LIBCMT:nlsdata.obj
 0002:000229e8       ??_C@_19EPFLPGAP@?$AAJ?$AAu?$AAn?$AAe?$AA?$AA@ 000000014016c9e8     LIBCMT:nlsdata.obj
 0002:000229f8       ??_C@_19BIFMLPCD@?$AAJ?$AAu?$AAl?$AAy?$AA?$AA@ 000000014016c9f8     LIBCMT:nlsdata.obj
 0002:00022a08       ??_C@_1O@PAHLKOAC@?$AAA?$AAu?$AAg?$AAu?$AAs?$AAt?$AA?$AA@ 000000014016ca08     LIBCMT:nlsdata.obj
 0002:00022a18       ??_C@_1BE@DKAAMBJL@?$AAS?$AAe?$AAp?$AAt?$AAe?$AAm?$AAb?$AAe?$AAr?$AA?$AA@ 000000014016ca18     LIBCMT:nlsdata.obj
 0002:00022a30       ??_C@_1BA@EPANDLNG@?$AAO?$AAc?$AAt?$AAo?$AAb?$AAe?$AAr?$AA?$AA@ 000000014016ca30     LIBCMT:nlsdata.obj
 0002:00022a40       ??_C@_1BC@BGLIFPF@?$AAN?$AAo?$AAv?$AAe?$AAm?$AAb?$AAe?$AAr?$AA?$AA@ 000000014016ca40     LIBCMT:nlsdata.obj
 0002:00022a58       ??_C@_1BC@FEMKIFH@?$AAD?$AAe?$AAc?$AAe?$AAm?$AAb?$AAe?$AAr?$AA?$AA@ 000000014016ca58     LIBCMT:nlsdata.obj
 0002:00022a6c       ??_C@_15ODEHAHHF@?$AAA?$AAM?$AA?$AA@ 000000014016ca6c     LIBCMT:nlsdata.obj
 0002:00022a74       ??_C@_15CLMNNGEL@?$AAP?$AAM?$AA?$AA@ 000000014016ca74     LIBCMT:nlsdata.obj
 0002:00022a80       ??_C@_1BC@IEBCMHCM@?$AAM?$AAM?$AA?1?$AAd?$AAd?$AA?1?$AAy?$AAy?$AA?$AA@ 000000014016ca80     LIBCMT:nlsdata.obj
 0002:00022a98       ??_C@_1CI@KNAKOEBC@?$AAd?$AAd?$AAd?$AAd?$AA?0?$AA?5?$AAM?$AAM?$AAM?$AAM?$AA?5?$AAd?$AAd?$AA?0?$AA?5?$AAy?$AAy?$AAy?$AAy?$AA?$AA@ 000000014016ca98     LIBCMT:nlsdata.obj
 0002:00022ac0       ??_C@_1BC@GDGBMEMK@?$AAH?$AAH?$AA?3?$AAm?$AAm?$AA?3?$AAs?$AAs?$AA?$AA@ 000000014016cac0     LIBCMT:nlsdata.obj
 0002:00022ad8       ??_C@_1M@BMHNFIME@?$AAe?$AAn?$AA?9?$AAU?$AAS?$AA?$AA@ 000000014016cad8     LIBCMT:nlsdata.obj
 0002:00022af0       __lc_category              000000014016caf0     LIBCMT:wsetloca.obj
 0002:00022b80       ??_C@_1O@GIFLHMA@?$AAL?$AAC?$AA_?$AAA?$AAL?$AAL?$AA?$AA@ 000000014016cb80     LIBCMT:wsetloca.obj
 0002:00022b90       ??_C@_1BG@PPOMIBNJ@?$AAL?$AAC?$AA_?$AAC?$AAO?$AAL?$AAL?$AAA?$AAT?$AAE?$AA?$AA@ 000000014016cb90     LIBCMT:wsetloca.obj
 0002:00022ba8       ??_C@_1BC@FFJGAPJM@?$AAL?$AAC?$AA_?$AAC?$AAT?$AAY?$AAP?$AAE?$AA?$AA@ 000000014016cba8     LIBCMT:wsetloca.obj
 0002:00022bc0       ??_C@_1BI@PCKFNJFB@?$AAL?$AAC?$AA_?$AAM?$AAO?$AAN?$AAE?$AAT?$AAA?$AAR?$AAY?$AA?$AA@ 000000014016cbc0     LIBCMT:wsetloca.obj
 0002:00022bd8       ??_C@_1BG@ENIEDKID@?$AAL?$AAC?$AA_?$AAN?$AAU?$AAM?$AAE?$AAR?$AAI?$AAC?$AA?$AA@ 000000014016cbd8     LIBCMT:wsetloca.obj
 0002:00022bf0       ??_C@_1BA@HAAOMIIG@?$AAL?$AAC?$AA_?$AAT?$AAI?$AAM?$AAE?$AA?$AA@ 000000014016cbf0     LIBCMT:wsetloca.obj
 0002:00022c80       ??_C@_15NBPDDFIP@?$AA?$DN?$AA?$DL?$AA?$AA@ 000000014016cc80     LIBCMT:wsetloca.obj
 0002:00022c88       ??_C@_13PJJBFPED@?$AA?$DL?$AA?$AA@ 000000014016cc88     LIBCMT:wsetloca.obj
 0002:00022c8c       ??_C@_13NMPKAAJP@?$AA?$DN?$AA?$AA@ 000000014016cc8c     LIBCMT:wsetloca.obj
 0002:00022c90       ??_C@_13FHBKNHDA@?$AAC?$AA?$AA@ 000000014016cc90     LIBCMT:wsetloca.obj
 0002:00022c98       ??_C@_17MBJJLFDM@?$AA_?$AA?4?$AA?0?$AA?$AA@ 000000014016cc98     LIBCMT:wsetloca.obj
 0002:00022ca0       ??_C@_13ENNFDPBH@?$AA_?$AA?$AA@ 000000014016cca0     LIBCMT:wsetloca.obj
 0002:00022ca4       ??_C@_13JOFGPIOO@?$AA?4?$AA?$AA@ 000000014016cca4     LIBCMT:wsetloca.obj
 0002:00022ca8       ??_C@_1BK@MGMFAEKH@?$AAk?$AAe?$AAr?$AAn?$AAe?$AAl?$AA3?$AA2?$AA?4?$AAd?$AAl?$AAl?$AA?$AA@ 000000014016cca8     LIBCMT:winapisupp.obj
 0002:00022cc8       ??_C@_08KNHFBNJ@FlsAlloc?$AA@ 000000014016ccc8     LIBCMT:winapisupp.obj
 0002:00022cd8       ??_C@_07PEJMOBNF@FlsFree?$AA@ 000000014016ccd8     LIBCMT:winapisupp.obj
 0002:00022ce0       ??_C@_0M@GDNOONDI@FlsGetValue?$AA@ 000000014016cce0     LIBCMT:winapisupp.obj
 0002:00022cf0       ??_C@_0M@JCPCPOEF@FlsSetValue?$AA@ 000000014016ccf0     LIBCMT:winapisupp.obj
 0002:00022d00       ??_C@_0BM@HCFOFFN@InitializeCriticalSectionEx?$AA@ 000000014016cd00     LIBCMT:winapisupp.obj
 0002:00022d20       ??_C@_0P@DLHPPCNH@CreateEventExW?$AA@ 000000014016cd20     LIBCMT:winapisupp.obj
 0002:00022d30       ??_C@_0BD@KIEEOEEH@CreateSemaphoreExW?$AA@ 000000014016cd30     LIBCMT:winapisupp.obj
 0002:00022d48       ??_C@_0BI@BKLFFAPO@SetThreadStackGuarantee?$AA@ 000000014016cd48     LIBCMT:winapisupp.obj
 0002:00022d60       ??_C@_0BG@OGFAJCKC@CreateThreadpoolTimer?$AA@ 000000014016cd60     LIBCMT:winapisupp.obj
 0002:00022d78       ??_C@_0BD@LPLEMMDI@SetThreadpoolTimer?$AA@ 000000014016cd78     LIBCMT:winapisupp.obj
 0002:00022d90       ??_C@_0CA@FMNJENH@WaitForThreadpoolTimerCallbacks?$AA@ 000000014016cd90     LIBCMT:winapisupp.obj
 0002:00022db0       ??_C@_0BF@DCFCCNOC@CloseThreadpoolTimer?$AA@ 000000014016cdb0     LIBCMT:winapisupp.obj
 0002:00022dc8       ??_C@_0BF@FLABGKKM@CreateThreadpoolWait?$AA@ 000000014016cdc8     LIBCMT:winapisupp.obj
 0002:00022de0       ??_C@_0BC@MGCOHNA@SetThreadpoolWait?$AA@ 000000014016cde0     LIBCMT:winapisupp.obj
 0002:00022df8       ??_C@_0BE@OCIOMIMP@CloseThreadpoolWait?$AA@ 000000014016cdf8     LIBCMT:winapisupp.obj
 0002:00022e10       ??_C@_0BJ@LKGHFHBO@FlushProcessWriteBuffers?$AA@ 000000014016ce10     LIBCMT:winapisupp.obj
 0002:00022e30       ??_C@_0BP@KALKKPMO@FreeLibraryWhenCallbackReturns?$AA@ 000000014016ce30     LIBCMT:winapisupp.obj
 0002:00022e50       ??_C@_0BK@DFNBACLA@GetCurrentProcessorNumber?$AA@ 000000014016ce50     LIBCMT:winapisupp.obj
 0002:00022e70       ??_C@_0BP@KHGALBC@GetLogicalProcessorInformation?$AA@ 000000014016ce70     LIBCMT:winapisupp.obj
 0002:00022e90       ??_C@_0BE@FKKLLFLM@CreateSymbolicLinkW?$AA@ 000000014016ce90     LIBCMT:winapisupp.obj
 0002:00022ea8       ??_C@_0BJ@OHNKDLIJ@SetDefaultDllDirectories?$AA@ 000000014016cea8     LIBCMT:winapisupp.obj
 0002:00022ec8       ??_C@_0BE@LJANKFHF@EnumSystemLocalesEx?$AA@ 000000014016cec8     LIBCMT:winapisupp.obj
 0002:00022ee0       ??_C@_0BA@IHGNDAEB@CompareStringEx?$AA@ 000000014016cee0     LIBCMT:winapisupp.obj
 0002:00022ef0       ??_C@_0BA@EPCJIIPD@GetDateFormatEx?$AA@ 000000014016cef0     LIBCMT:winapisupp.obj
 0002:00022f00       ??_C@_0BA@ONOKGCMP@GetLocaleInfoEx?$AA@ 000000014016cf00     LIBCMT:winapisupp.obj
 0002:00022f10       ??_C@_0BA@CIJJKCJJ@GetTimeFormatEx?$AA@ 000000014016cf10     LIBCMT:winapisupp.obj
 0002:00022f20       ??_C@_0BJ@PBCCBIPI@GetUserDefaultLocaleName?$AA@ 000000014016cf20     LIBCMT:winapisupp.obj
 0002:00022f40       ??_C@_0BC@CELBKLLA@IsValidLocaleName?$AA@ 000000014016cf40     LIBCMT:winapisupp.obj
 0002:00022f58       ??_C@_0O@KKBNKAPF@LCMapStringEx?$AA@ 000000014016cf58     LIBCMT:winapisupp.obj
 0002:00022f68       ??_C@_0BE@JOGNEJCI@GetCurrentPackageId?$AA@ 000000014016cf68     LIBCMT:winapisupp.obj
 0002:00022f80       ??_C@_0P@CDHHOHKP@GetTickCount64?$AA@ 000000014016cf80     LIBCMT:winapisupp.obj
 0002:00022f90       ??_C@_0BO@KPCLFDJJ@GetFileInformationByHandleExW?$AA@ 000000014016cf90     LIBCMT:winapisupp.obj
 0002:00022fb0       ??_C@_0BM@MHIDLABK@SetFileInformationByHandleW?$AA@ 000000014016cfb0     LIBCMT:winapisupp.obj
 0002:00022fd0       ??_C@_1BK@GAEMIDIL@?$AAA?$AAD?$AAV?$AAA?$AAP?$AAI?$AA3?$AA2?$AA?4?$AAD?$AAL?$AAL?$AA?$AA@ 000000014016cfd0     LIBCMT:rand_s.obj
 0002:00022ff0       ??_C@_0BC@JEAENNKH@SystemFunction036?$AA@ 000000014016cff0     LIBCMT:rand_s.obj
 0002:00023010       _sys_errlist               000000014016d010     LIBCMT:syserr.obj
 0002:00023170       ??_C@_08INEPGKHH@No?5error?$AA@ 000000014016d170     LIBCMT:syserr.obj
 0002:00023180       ??_C@_0BI@BJFCGOHL@Operation?5not?5permitted?$AA@ 000000014016d180     LIBCMT:syserr.obj
 0002:00023198       ??_C@_0BK@FMDHKPNF@No?5such?5file?5or?5directory?$AA@ 000000014016d198     LIBCMT:syserr.obj
 0002:000231b8       ??_C@_0BA@FKIAIBGA@No?5such?5process?$AA@ 000000014016d1b8     LIBCMT:syserr.obj
 0002:000231c8       ??_C@_0BK@FJBOAFDK@Interrupted?5function?5call?$AA@ 000000014016d1c8     LIBCMT:syserr.obj
 0002:000231e8       ??_C@_0BD@KKNFOBBD@Input?1output?5error?$AA@ 000000014016d1e8     LIBCMT:syserr.obj
 0002:00023200       ??_C@_0BK@DPKMCKJ@No?5such?5device?5or?5address?$AA@ 000000014016d200     LIBCMT:syserr.obj
 0002:00023220       ??_C@_0BC@MFFGCDFL@Arg?5list?5too?5long?$AA@ 000000014016d220     LIBCMT:syserr.obj
 0002:00023238       ??_C@_0BC@HKPNECK@Exec?5format?5error?$AA@ 000000014016d238     LIBCMT:syserr.obj
 0002:00023250       ??_C@_0BE@NFGDDCEF@Bad?5file?5descriptor?$AA@ 000000014016d250     LIBCMT:syserr.obj
 0002:00023268       ??_C@_0BD@LOHELEP@No?5child?5processes?$AA@ 000000014016d268     LIBCMT:syserr.obj
 0002:00023280       ??_C@_0CB@EPFKGNAK@Resource?5temporarily?5unavailable@ 000000014016d280     LIBCMT:syserr.obj
 0002:000232a8       ??_C@_0BB@IMDKMPFB@Not?5enough?5space?$AA@ 000000014016d2a8     LIBCMT:syserr.obj
 0002:000232c0       ??_C@_0BC@HFNFNKAI@Permission?5denied?$AA@ 000000014016d2c0     LIBCMT:syserr.obj
 0002:000232d8       ??_C@_0M@LOEHLCJD@Bad?5address?$AA@ 000000014016d2d8     LIBCMT:syserr.obj
 0002:000232e8       ??_C@_0O@NIPGCINC@Unknown?5error?$AA@ 000000014016d2e8     LIBCMT:syserr.obj
 0002:000232f8       ??_C@_0BA@BIBLIOEK@Resource?5device?$AA@ 000000014016d2f8     LIBCMT:syserr.obj
 0002:00023308       ??_C@_0M@NAAJNNGH@File?5exists?$AA@ 000000014016d308     LIBCMT:syserr.obj
 0002:00023318       ??_C@_0O@OAMDNOCP@Improper?5link?$AA@ 000000014016d318     LIBCMT:syserr.obj
 0002:00023328       ??_C@_0P@NLEIANHE@No?5such?5device?$AA@ 000000014016d328     LIBCMT:syserr.obj
 0002:00023338       ??_C@_0BA@CJBACOOL@Not?5a?5directory?$AA@ 000000014016d338     LIBCMT:syserr.obj
 0002:00023348       ??_C@_0P@NDHGCGKE@Is?5a?5directory?$AA@ 000000014016d348     LIBCMT:syserr.obj
 0002:00023358       ??_C@_0BB@HMGGCEBG@Invalid?5argument?$AA@ 000000014016d358     LIBCMT:syserr.obj
 0002:00023370       ??_C@_0BO@IIFBODJE@Too?5many?5open?5files?5in?5system?$AA@ 000000014016d370     LIBCMT:syserr.obj
 0002:00023390       ??_C@_0BE@INBJMKGG@Too?5many?5open?5files?$AA@ 000000014016d390     LIBCMT:syserr.obj
 0002:000233a8       ??_C@_0CE@ONOKNLPF@Inappropriate?5I?1O?5control?5operat@ 000000014016d3a8     LIBCMT:syserr.obj
 0002:000233d0       ??_C@_0P@LFMMIPAE@File?5too?5large?$AA@ 000000014016d3d0     LIBCMT:syserr.obj
 0002:000233e0       ??_C@_0BI@FEALHKLD@No?5space?5left?5on?5device?$AA@ 000000014016d3e0     LIBCMT:syserr.obj
 0002:000233f8       ??_C@_0N@FEHLOILP@Invalid?5seek?$AA@ 000000014016d3f8     LIBCMT:syserr.obj
 0002:00023408       ??_C@_0BG@DDBFNKBH@Read?9only?5file?5system?$AA@ 000000014016d408     LIBCMT:syserr.obj
 0002:00023420       ??_C@_0P@PKCJJLLM@Too?5many?5links?$AA@ 000000014016d420     LIBCMT:syserr.obj
 0002:00023430       ??_C@_0M@LHEPIIOM@Broken?5pipe?$AA@ 000000014016d430     LIBCMT:syserr.obj
 0002:00023440       ??_C@_0N@MMJPGLJK@Domain?5error?$AA@ 000000014016d440     LIBCMT:syserr.obj
 0002:00023450       ??_C@_0BB@FCBJFCAJ@Result?5too?5large?$AA@ 000000014016d450     LIBCMT:syserr.obj
 0002:00023468       ??_C@_0BK@JAEBMJJM@Resource?5deadlock?5avoided?$AA@ 000000014016d468     LIBCMT:syserr.obj
 0002:00023488       ??_C@_0BC@BEDIHIDK@Filename?5too?5long?$AA@ 000000014016d488     LIBCMT:syserr.obj
 0002:000234a0       ??_C@_0BD@CLHBCGPB@No?5locks?5available?$AA@ 000000014016d4a0     LIBCMT:syserr.obj
 0002:000234b8       ??_C@_0BJ@IHEHINLI@Function?5not?5implemented?$AA@ 000000014016d4b8     LIBCMT:syserr.obj
 0002:000234d8       ??_C@_0BE@ICMCHPHH@Directory?5not?5empty?$AA@ 000000014016d4d8     LIBCMT:syserr.obj
 0002:000234f0       ??_C@_0BG@KLEAJEFJ@Illegal?5byte?5sequence?$AA@ 000000014016d4f0     LIBCMT:syserr.obj
 0002:00023520       ??_C@_1BG@GOEBHBDC@?$AAU?$AAS?$AAE?$AAR?$AA3?$AA2?$AA?4?$AAD?$AAL?$AAL?$AA?$AA@ 000000014016d520     LIBCMT:crtmboxw.obj
 0002:00023538       ??_C@_0M@DLDCCGNP@MessageBoxW?$AA@ 000000014016d538     LIBCMT:crtmboxw.obj
 0002:00023548       ??_C@_0BA@HNOPNCHB@GetActiveWindow?$AA@ 000000014016d548     LIBCMT:crtmboxw.obj
 0002:00023558       ??_C@_0BD@HHGDFDBJ@GetLastActivePopup?$AA@ 000000014016d558     LIBCMT:crtmboxw.obj
 0002:00023570       ??_C@_0BK@DEKFELLI@GetUserObjectInformationW?$AA@ 000000014016d570     LIBCMT:crtmboxw.obj
 0002:00023590       ??_C@_0BI@DFKBFLJE@GetProcessWindowStation?$AA@ 000000014016d590     LIBCMT:crtmboxw.obj
 0002:000235b0       LcidToLocaleNameTable      000000014016d5b0     LIBCMT:winapinls.obj
 0002:000243f0       LocaleNameToIndexTable     000000014016e3f0     LIBCMT:winapinls.obj
 0002:00025230       ??_C@_15EMKDOKLE@?$AAa?$AAr?$AA?$AA@ 000000014016f230     LIBCMT:winapinls.obj
 0002:00025238       ??_C@_15KNPADPLH@?$AAb?$AAg?$AA?$AA@ 000000014016f238     LIBCMT:winapinls.obj
 0002:00025240       ??_C@_15EDMHLDMO@?$AAc?$AAa?$AA?$AA@ 000000014016f240     LIBCMT:winapinls.obj
 0002:00025248       ??_C@_1O@BPEAJADD@?$AAz?$AAh?$AA?9?$AAC?$AAH?$AAS?$AA?$AA@ 000000014016f248     LIBCMT:winapinls.obj
 0002:00025258       ??_C@_15LJNHCMNK@?$AAc?$AAs?$AA?$AA@ 000000014016f258     LIBCMT:winapinls.obj
 0002:00025260       ??_C@_15FOMCIDHG@?$AAd?$AAa?$AA?$AA@ 000000014016f260     LIBCMT:winapinls.obj
 0002:00025268       ??_C@_15NBKABECB@?$AAd?$AAe?$AA?$AA@ 000000014016f268     LIBCMT:winapinls.obj
 0002:00025270       ??_C@_15GHPEIIAO@?$AAe?$AAl?$AA?$AA@ 000000014016f270     LIBCMT:winapinls.obj
 0002:00025278       ??_C@_15MNPNEAIF@?$AAe?$AAn?$AA?$AA@ 000000014016f278     LIBCMT:winapinls.obj
 0002:00025280       ??_C@_15GPIOMPMH@?$AAe?$AAs?$AA?$AA@ 000000014016f280     LIBCMT:winapinls.obj
 0002:00025288       ??_C@_15NGLOAKJC@?$AAf?$AAi?$AA?$AA@ 000000014016f288     LIBCMT:winapinls.obj
 0002:00025290       ??_C@_15FBKGNKAM@?$AAf?$AAr?$AA?$AA@ 000000014016f290     LIBCMT:winapinls.obj
 0002:00025298       ??_C@_15KGGCNEFK@?$AAh?$AAe?$AA?$AA@ 000000014016f298     LIBCMT:winapinls.obj
 0002:000252a0       ??_C@_15PGHLIDMF@?$AAh?$AAu?$AA?$AA@ 000000014016f2a0     LIBCMT:winapinls.obj
 0002:000252a8       ??_C@_15BIEMAPLM@?$AAi?$AAs?$AA?$AA@ 000000014016f2a8     LIBCMT:winapinls.obj
 0002:000252b0       ??_C@_15IFJLDHAF@?$AAi?$AAt?$AA?$AA@ 000000014016f2b0     LIBCMT:winapinls.obj
 0002:000252b8       ??_C@_15GEMIOCAG@?$AAj?$AAa?$AA?$AA@ 000000014016f2b8     LIBCMT:winapinls.obj
 0002:000252c0       ??_C@_15EPELEGJA@?$AAk?$AAo?$AA?$AA@ 000000014016f2c0     LIBCMT:winapinls.obj
 0002:000252c8       ??_C@_15NDDHIMN@?$AAn?$AAl?$AA?$AA@ 000000014016f2c8     LIBCMT:winapinls.obj
 0002:000252d0       ??_C@_15BPIGNHCD@?$AAn?$AAo?$AA?$AA@ 000000014016f2d0     LIBCMT:winapinls.obj
 0002:000252d8       ??_C@_15DEOPBLCG@?$AAp?$AAl?$AA?$AA@ 000000014016f2d8     LIBCMT:winapinls.obj
 0002:000252e0       ??_C@_15KBECGEFG@?$AAp?$AAt?$AA?$AA@ 000000014016f2e0     LIBCMT:winapinls.obj
 0002:000252e8       ??_C@_15GLJCBFMD@?$AAr?$AAo?$AA?$AA@ 000000014016f2e8     LIBCMT:winapinls.obj
 0002:000252f0       ??_C@_15FEDGKCDI@?$AAr?$AAu?$AA?$AA@ 000000014016f2f0     LIBCMT:winapinls.obj
 0002:000252f8       ??_C@_15GLKMLLHM@?$AAh?$AAr?$AA?$AA@ 000000014016f2f8     LIBCMT:winapinls.obj
 0002:00025300       ??_C@_15CPKMFBDB@?$AAs?$AAk?$AA?$AA@ 000000014016f300     LIBCMT:winapinls.obj
 0002:00025308       ??_C@_15BAAIOGMK@?$AAs?$AAq?$AA?$AA@ 000000014016f308     LIBCMT:winapinls.obj
 0002:00025310       ??_C@_15INNPNOHD@?$AAs?$AAv?$AA?$AA@ 000000014016f310     LIBCMT:winapinls.obj
 0002:00025318       ??_C@_15CABMMOGH@?$AAt?$AAh?$AA?$AA@ 000000014016f318     LIBCMT:winapinls.obj
 0002:00025320       ??_C@_15BPLIHJJM@?$AAt?$AAr?$AA?$AA@ 000000014016f320     LIBCMT:winapinls.obj
 0002:00025328       ??_C@_15NEOEKKDJ@?$AAu?$AAr?$AA?$AA@ 000000014016f328     LIBCMT:winapinls.obj
 0002:00025330       ??_C@_15NFICGAJK@?$AAi?$AAd?$AA?$AA@ 000000014016f330     LIBCMT:winapinls.obj
 0002:00025338       ??_C@_15PJPFLCCM@?$AAu?$AAk?$AA?$AA@ 000000014016f338     LIBCMT:winapinls.obj
 0002:00025340       ??_C@_15HPJPHDM@?$AAb?$AAe?$AA?$AA@ 000000014016f340     LIBCMT:winapinls.obj
 0002:00025348       ??_C@_15LCHLGJII@?$AAs?$AAl?$AA?$AA@ 000000014016f348     LIBCMT:winapinls.obj
 0002:00025350       ??_C@_15PCFJPHHO@?$AAe?$AAt?$AA?$AA@ 000000014016f350     LIBCMT:winapinls.obj
 0002:00025358       ??_C@_15HPFPGODN@?$AAl?$AAv?$AA?$AA@ 000000014016f358     LIBCMT:winapinls.obj
 0002:00025360       ??_C@_15NFFGKGLG@?$AAl?$AAt?$AA?$AA@ 000000014016f360     LIBCMT:winapinls.obj
 0002:00025368       ??_C@_15BDAKCCHN@?$AAf?$AAa?$AA?$AA@ 000000014016f368     LIBCMT:winapinls.obj
 0002:00025370       ??_C@_15NFGIAIAJ@?$AAv?$AAi?$AA?$AA@ 000000014016f370     LIBCMT:winapinls.obj
 0002:00025378       ??_C@_15LMKNDMHN@?$AAh?$AAy?$AA?$AA@ 000000014016f378     LIBCMT:winapinls.obj
 0002:00025380       ??_C@_15IJBHMCFL@?$AAa?$AAz?$AA?$AA@ 000000014016f380     LIBCMT:winapinls.obj
 0002:00025388       ??_C@_15EKOFJABL@?$AAe?$AAu?$AA?$AA@ 000000014016f388     LIBCMT:winapinls.obj
 0002:00025390       ??_C@_15BGHADCNK@?$AAm?$AAk?$AA?$AA@ 000000014016f390     LIBCMT:winapinls.obj
 0002:00025398       ??_C@_15JDNICKHM@?$AAa?$AAf?$AA?$AA@ 000000014016f398     LIBCMT:winapinls.obj
 0002:000253a0       ??_C@_15KPJEDBKD@?$AAk?$AAa?$AA?$AA@ 000000014016f3a0     LIBCMT:winapinls.obj
 0002:000253a8       ??_C@_15PDNFFFEO@?$AAf?$AAo?$AA?$AA@ 000000014016f3a8     LIBCMT:winapinls.obj
 0002:000253b0       ??_C@_15OMLEGLOC@?$AAh?$AAi?$AA?$AA@ 000000014016f3b0     LIBCMT:winapinls.obj
 0002:000253b8       ??_C@_15IDNNENKK@?$AAm?$AAs?$AA?$AA@ 000000014016f3b8     LIBCMT:winapinls.obj
 0002:000253c0       ??_C@_15MACJNBMH@?$AAk?$AAk?$AA?$AA@ 000000014016f3c0     LIBCMT:winapinls.obj
 0002:000253c8       ??_C@_15DKDJEOND@?$AAk?$AAy?$AA?$AA@ 000000014016f3c8     LIBCMT:winapinls.obj
 0002:000253d0       ??_C@_15DFGDLJBG@?$AAs?$AAw?$AA?$AA@ 000000014016f3d0     LIBCMT:winapinls.obj
 0002:000253d8       ??_C@_15BBFAICNG@?$AAu?$AAz?$AA?$AA@ 000000014016f3d8     LIBCMT:winapinls.obj
 0002:000253e0       ??_C@_15DKNDCGEA@?$AAt?$AAt?$AA?$AA@ 000000014016f3e0     LIBCMT:winapinls.obj
 0002:000253e8       ??_C@_15MGIFMDPL@?$AAp?$AAa?$AA?$AA@ 000000014016f3e8     LIBCMT:winapinls.obj
 0002:000253f0       ??_C@_15HCNDBBA@?$AAg?$AAu?$AA?$AA@ 000000014016f3f0     LIBCMT:winapinls.obj
 0002:000253f8       ??_C@_15FNBEIBON@?$AAt?$AAa?$AA?$AA@ 000000014016f3f8     LIBCMT:winapinls.obj
 0002:00025400       ??_C@_15NCHGBGLK@?$AAt?$AAe?$AA?$AA@ 000000014016f400     LIBCMT:winapinls.obj
 0002:00025408       ??_C@_15PHPHCBPF@?$AAk?$AAn?$AA?$AA@ 000000014016f408     LIBCMT:winapinls.obj
 0002:00025410       ??_C@_15DLGBCKMP@?$AAm?$AAr?$AA?$AA@ 000000014016f410     LIBCMT:winapinls.obj
 0002:00025418       ??_C@_15EABBLBFF@?$AAs?$AAa?$AA?$AA@ 000000014016f418     LIBCMT:winapinls.obj
 0002:00025420       ??_C@_15CBKOMCOI@?$AAm?$AAn?$AA?$AA@ 000000014016f420     LIBCMT:winapinls.obj
 0002:00025428       ??_C@_15CKDMCJAF@?$AAg?$AAl?$AA?$AA@ 000000014016f428     LIBCMT:winapinls.obj
 0002:00025430       ??_C@_17CNJFBPG@?$AAk?$AAo?$AAk?$AA?$AA@ 000000014016f430     LIBCMT:winapinls.obj
 0002:00025438       ??_C@_17FFBJICPL@?$AAs?$AAy?$AAr?$AA?$AA@ 000000014016f438     LIBCMT:winapinls.obj
 0002:00025440       ??_C@_17KPNDCPAF@?$AAd?$AAi?$AAv?$AA?$AA@ 000000014016f440     LIBCMT:winapinls.obj
 0002:00025448       ??_C@_11LOCGONAA@?$AA?$AA@ 000000014016f448     LIBCMT:winapinls.obj
 0002:00025450       ??_C@_1M@OKAHONE@?$AAa?$AAr?$AA?9?$AAS?$AAA?$AA?$AA@ 000000014016f450     LIBCMT:winapinls.obj
 0002:00025460       ??_C@_1M@FFFIGIGK@?$AAb?$AAg?$AA?9?$AAB?$AAG?$AA?$AA@ 000000014016f460     LIBCMT:winapinls.obj
 0002:00025470       ??_C@_1M@BJNKEDC@?$AAc?$AAa?$AA?9?$AAE?$AAS?$AA?$AA@ 000000014016f470     LIBCMT:winapinls.obj
 0002:00025480       ??_C@_1M@IJJHFJHA@?$AAc?$AAs?$AA?9?$AAC?$AAZ?$AA?$AA@ 000000014016f480     LIBCMT:winapinls.obj
 0002:00025490       ??_C@_1M@CLPEOBGI@?$AAd?$AAa?$AA?9?$AAD?$AAK?$AA?$AA@ 000000014016f490     LIBCMT:winapinls.obj
 0002:000254a0       ??_C@_1M@MCMADGCB@?$AAd?$AAe?$AA?9?$AAD?$AAE?$AA?$AA@ 000000014016f4a0     LIBCMT:winapinls.obj
 0002:000254b0       ??_C@_1M@OOCKEMAM@?$AAe?$AAl?$AA?9?$AAG?$AAR?$AA?$AA@ 000000014016f4b0     LIBCMT:winapinls.obj
 0002:000254c0       ??_C@_1M@DDNJFGID@?$AAf?$AAi?$AA?9?$AAF?$AAI?$AA?$AA@ 000000014016f4c0     LIBCMT:winapinls.obj
 0002:000254d0       ??_C@_1M@GLIPPMAC@?$AAf?$AAr?$AA?9?$AAF?$AAR?$AA?$AA@ 000000014016f4d0     LIBCMT:winapinls.obj
 0002:000254e0       ??_C@_1M@GFMCHPE@?$AAh?$AAe?$AA?9?$AAI?$AAL?$AA?$AA@ 000000014016f4e0     LIBCMT:winapinls.obj
 0002:000254f0       ??_C@_1M@MHLPGNKM@?$AAh?$AAu?$AA?9?$AAH?$AAU?$AA?$AA@ 000000014016f4f0     LIBCMT:winapinls.obj
 0002:00025500       ??_C@_1M@LPDDNNPN@?$AAi?$AAs?$AA?9?$AAI?$AAS?$AA?$AA@ 000000014016f500     LIBCMT:winapinls.obj
 0002:00025510       ??_C@_1M@MADIPODN@?$AAi?$AAt?$AA?9?$AAI?$AAT?$AA?$AA@ 000000014016f510     LIBCMT:winapinls.obj
 0002:00025520       ??_C@_1M@IHBJJGG@?$AAn?$AAl?$AA?9?$AAN?$AAL?$AA?$AA@ 000000014016f520     LIBCMT:winapinls.obj
 0002:00025530       ??_C@_1M@EANAGDL@?$AAn?$AAb?$AA?9?$AAN?$AAO?$AA?$AA@ 000000014016f530     LIBCMT:winapinls.obj
 0002:00025540       ??_C@_1M@NEIEMEGP@?$AAp?$AAl?$AA?9?$AAP?$AAL?$AA?$AA@ 000000014016f540     LIBCMT:winapinls.obj
 0002:00025550       ??_C@_1M@BOCFIGEP@?$AAp?$AAt?$AA?9?$AAB?$AAR?$AA?$AA@ 000000014016f550     LIBCMT:winapinls.obj
 0002:00025560       ??_C@_1M@IMPFOPBG@?$AAr?$AAo?$AA?9?$AAR?$AAO?$AA?$AA@ 000000014016f560     LIBCMT:winapinls.obj
 0002:00025570       ??_C@_1M@IDNNEJMM@?$AAr?$AAu?$AA?9?$AAR?$AAU?$AA?$AA@ 000000014016f570     LIBCMT:winapinls.obj
 0002:00025580       ??_C@_1M@LILEEOGM@?$AAh?$AAr?$AA?9?$AAH?$AAR?$AA?$AA@ 000000014016f580     LIBCMT:winapinls.obj
 0002:00025590       ??_C@_1M@FKIFEHPB@?$AAs?$AAk?$AA?9?$AAS?$AAK?$AA?$AA@ 000000014016f590     LIBCMT:winapinls.obj
 0002:000255a0       ??_C@_1M@LJMAMNPJ@?$AAs?$AAq?$AA?9?$AAA?$AAL?$AA?$AA@ 000000014016f5a0     LIBCMT:winapinls.obj
 0002:000255b0       ??_C@_1M@GIAKDKJK@?$AAs?$AAv?$AA?9?$AAS?$AAE?$AA?$AA@ 000000014016f5b0     LIBCMT:winapinls.obj
 0002:000255c0       ??_C@_1M@MKJKIKCL@?$AAt?$AAh?$AA?9?$AAT?$AAH?$AA?$AA@ 000000014016f5c0     LIBCMT:winapinls.obj
 0002:000255d0       ??_C@_1M@MFLCCMPB@?$AAt?$AAr?$AA?9?$AAT?$AAR?$AA?$AA@ 000000014016f5d0     LIBCMT:winapinls.obj
 0002:000255e0       ??_C@_1M@OIJHDKJN@?$AAu?$AAr?$AA?9?$AAP?$AAK?$AA?$AA@ 000000014016f5e0     LIBCMT:winapinls.obj
 0002:000255f0       ??_C@_1M@LHIPCIEK@?$AAi?$AAd?$AA?9?$AAI?$AAD?$AA?$AA@ 000000014016f5f0     LIBCMT:winapinls.obj
 0002:00025600       ??_C@_1M@MFMOBGI@?$AAu?$AAk?$AA?9?$AAU?$AAA?$AA?$AA@ 000000014016f600     LIBCMT:winapinls.obj
 0002:00025610       ??_C@_1M@OBGLJIPL@?$AAb?$AAe?$AA?9?$AAB?$AAY?$AA?$AA@ 000000014016f610     LIBCMT:winapinls.obj
 0002:00025620       ??_C@_1M@BCFAJEAD@?$AAs?$AAl?$AA?9?$AAS?$AAI?$AA?$AA@ 000000014016f620     LIBCMT:winapinls.obj
 0002:00025630       ??_C@_1M@FKFFEDDN@?$AAe?$AAt?$AA?9?$AAE?$AAE?$AA?$AA@ 000000014016f630     LIBCMT:winapinls.obj
 0002:00025640       ??_C@_1M@KGKKAACI@?$AAl?$AAv?$AA?9?$AAL?$AAV?$AA?$AA@ 000000014016f640     LIBCMT:winapinls.obj
 0002:00025650       ??_C@_1M@IFGBIJO@?$AAl?$AAt?$AA?9?$AAL?$AAT?$AA?$AA@ 000000014016f650     LIBCMT:winapinls.obj
 0002:00025660       ??_C@_1M@FGEAHEDM@?$AAf?$AAa?$AA?9?$AAI?$AAR?$AA?$AA@ 000000014016f660     LIBCMT:winapinls.obj
 0002:00025670       ??_C@_1M@KBMAIBFN@?$AAv?$AAi?$AA?9?$AAV?$AAN?$AA?$AA@ 000000014016f670     LIBCMT:winapinls.obj
 0002:00025680       ??_C@_1M@GPCBKDJK@?$AAh?$AAy?$AA?9?$AAA?$AAM?$AA?$AA@ 000000014016f680     LIBCMT:winapinls.obj
 0002:00025690       ??_C@_1BG@BECMDDJB@?$AAa?$AAz?$AA?9?$AAA?$AAZ?$AA?9?$AAL?$AAa?$AAt?$AAn?$AA?$AA@ 000000014016f690     LIBCMT:winapinls.obj
 0002:000256a8       ??_C@_1M@MAOFCAEA@?$AAe?$AAu?$AA?9?$AAE?$AAS?$AA?$AA@ 000000014016f6a8     LIBCMT:winapinls.obj
 0002:000256b8       ??_C@_1M@IGHABKPI@?$AAm?$AAk?$AA?9?$AAM?$AAK?$AA?$AA@ 000000014016f6b8     LIBCMT:winapinls.obj
 0002:000256c8       ??_C@_1M@IAIGNEJG@?$AAt?$AAn?$AA?9?$AAZ?$AAA?$AA?$AA@ 000000014016f6c8     LIBCMT:winapinls.obj
 0002:000256d8       ??_C@_1M@IIJCOJFA@?$AAx?$AAh?$AA?9?$AAZ?$AAA?$AA?$AA@ 000000014016f6d8     LIBCMT:winapinls.obj
 0002:000256e8       ??_C@_1M@LGPJHNJH@?$AAz?$AAu?$AA?9?$AAZ?$AAA?$AA?$AA@ 000000014016f6e8     LIBCMT:winapinls.obj
 0002:000256f8       ??_C@_1M@HOKAOIO@?$AAa?$AAf?$AA?9?$AAZ?$AAA?$AA?$AA@ 000000014016f6f8     LIBCMT:winapinls.obj
 0002:00025708       ??_C@_1M@DPCLHLIE@?$AAk?$AAa?$AA?9?$AAG?$AAE?$AA?$AA@ 000000014016f708     LIBCMT:winapinls.obj
 0002:00025718       ??_C@_1M@BLKMHJBI@?$AAf?$AAo?$AA?9?$AAF?$AAO?$AA?$AA@ 000000014016f718     LIBCMT:winapinls.obj
 0002:00025728       ??_C@_1M@LGGJAPPB@?$AAh?$AAi?$AA?9?$AAI?$AAN?$AA?$AA@ 000000014016f728     LIBCMT:winapinls.obj
 0002:00025738       ??_C@_1M@FIKPIHFE@?$AAm?$AAt?$AA?9?$AAM?$AAT?$AA?$AA@ 000000014016f738     LIBCMT:winapinls.obj
 0002:00025748       ??_C@_1M@HEGGPBFA@?$AAs?$AAe?$AA?9?$AAN?$AAO?$AA?$AA@ 000000014016f748     LIBCMT:winapinls.obj
 0002:00025758       ??_C@_1M@EIBJEEPA@?$AAm?$AAs?$AA?9?$AAM?$AAY?$AA?$AA@ 000000014016f758     LIBCMT:winapinls.obj
 0002:00025768       ??_C@_1M@FHLBGMPP@?$AAk?$AAk?$AA?9?$AAK?$AAZ?$AA?$AA@ 000000014016f768     LIBCMT:winapinls.obj
 0002:00025778       ??_C@_1M@NGJJLCGI@?$AAk?$AAy?$AA?9?$AAK?$AAG?$AA?$AA@ 000000014016f778     LIBCMT:winapinls.obj
 0002:00025788       ??_C@_1M@GIENNBFC@?$AAs?$AAw?$AA?9?$AAK?$AAE?$AA?$AA@ 000000014016f788     LIBCMT:winapinls.obj
 0002:00025798       ??_C@_1BG@NDGMJIMJ@?$AAu?$AAz?$AA?9?$AAU?$AAZ?$AA?9?$AAL?$AAa?$AAt?$AAn?$AA?$AA@ 000000014016f798     LIBCMT:winapinls.obj
 0002:000257b0       ??_C@_1M@IDCCIHBC@?$AAt?$AAt?$AA?9?$AAR?$AAU?$AA?$AA@ 000000014016f7b0     LIBCMT:winapinls.obj
 0002:000257c0       ??_C@_1M@LOICPMOJ@?$AAb?$AAn?$AA?9?$AAI?$AAN?$AA?$AA@ 000000014016f7c0     LIBCMT:winapinls.obj
 0002:000257d0       ??_C@_1M@KPKKNEAH@?$AAp?$AAa?$AA?9?$AAI?$AAN?$AA?$AA@ 000000014016f7d0     LIBCMT:winapinls.obj
 0002:000257e0       ??_C@_1M@PJGPPBOG@?$AAg?$AAu?$AA?9?$AAI?$AAN?$AA?$AA@ 000000014016f7e0     LIBCMT:winapinls.obj
 0002:000257f0       ??_C@_1M@KMKMOPHI@?$AAt?$AAa?$AA?9?$AAI?$AAN?$AA?$AA@ 000000014016f7f0     LIBCMT:winapinls.obj
 0002:00025800       ??_C@_1M@KFEHEPAC@?$AAt?$AAe?$AA?9?$AAI?$AAN?$AA?$AA@ 000000014016f800     LIBCMT:winapinls.obj
 0002:00025810       ??_C@_1M@CDCLMGHI@?$AAk?$AAn?$AA?9?$AAI?$AAN?$AA?$AA@ 000000014016f810     LIBCMT:winapinls.obj
 0002:00025820       ??_C@_1M@MIODLDKF@?$AAm?$AAl?$AA?9?$AAI?$AAN?$AA?$AA@ 000000014016f820     LIBCMT:winapinls.obj
 0002:00025830       ??_C@_1M@PBIEACPO@?$AAm?$AAr?$AA?9?$AAI?$AAN?$AA?$AA@ 000000014016f830     LIBCMT:winapinls.obj
 0002:00025840       ??_C@_1M@NIDEAGPH@?$AAs?$AAa?$AA?9?$AAI?$AAN?$AA?$AA@ 000000014016f840     LIBCMT:winapinls.obj
 0002:00025850       ??_C@_1M@FHIHCBIO@?$AAm?$AAn?$AA?9?$AAM?$AAN?$AA?$AA@ 000000014016f850     LIBCMT:winapinls.obj
 0002:00025860       ??_C@_1M@JAIJPENP@?$AAc?$AAy?$AA?9?$AAG?$AAB?$AA?$AA@ 000000014016f860     LIBCMT:winapinls.obj
 0002:00025870       ??_C@_1M@PHGFBEPN@?$AAg?$AAl?$AA?9?$AAE?$AAS?$AA?$AA@ 000000014016f870     LIBCMT:winapinls.obj
 0002:00025880       ??_C@_1O@KPIPDNCP@?$AAk?$AAo?$AAk?$AA?9?$AAI?$AAN?$AA?$AA@ 000000014016f880     LIBCMT:winapinls.obj
 0002:00025890       ??_C@_1O@KNHJLDJA@?$AAs?$AAy?$AAr?$AA?9?$AAS?$AAY?$AA?$AA@ 000000014016f890     LIBCMT:winapinls.obj
 0002:000258a0       ??_C@_1O@MKEKBLAH@?$AAd?$AAi?$AAv?$AA?9?$AAM?$AAV?$AA?$AA@ 000000014016f8a0     LIBCMT:winapinls.obj
 0002:000258b0       ??_C@_1O@OHDCKDDF@?$AAq?$AAu?$AAz?$AA?9?$AAB?$AAO?$AA?$AA@ 000000014016f8b0     LIBCMT:winapinls.obj
 0002:000258c0       ??_C@_1M@LEPJNLFD@?$AAn?$AAs?$AA?9?$AAZ?$AAA?$AA?$AA@ 000000014016f8c0     LIBCMT:winapinls.obj
 0002:000258d0       ??_C@_1M@OMLEIIJB@?$AAm?$AAi?$AA?9?$AAN?$AAZ?$AA?$AA@ 000000014016f8d0     LIBCMT:winapinls.obj
 0002:000258e0       ??_C@_1M@PMPEAILG@?$AAa?$AAr?$AA?9?$AAI?$AAQ?$AA?$AA@ 000000014016f8e0     LIBCMT:winapinls.obj
 0002:000258f0       ??_C@_1M@CNKPNOEE@?$AAd?$AAe?$AA?9?$AAC?$AAH?$AA?$AA@ 000000014016f8f0     LIBCMT:winapinls.obj
 0002:00025900       ??_C@_1M@LKMGMLKO@?$AAe?$AAn?$AA?9?$AAG?$AAB?$AA?$AA@ 000000014016f900     LIBCMT:winapinls.obj
 0002:00025910       ??_C@_1M@PGKJFFGL@?$AAe?$AAs?$AA?9?$AAM?$AAX?$AA?$AA@ 000000014016f910     LIBCMT:winapinls.obj
 0002:00025920       ??_C@_1M@DNNANBDC@?$AAf?$AAr?$AA?9?$AAB?$AAE?$AA?$AA@ 000000014016f920     LIBCMT:winapinls.obj
 0002:00025930       ??_C@_1M@HLGMDFHM@?$AAi?$AAt?$AA?9?$AAC?$AAH?$AA?$AA@ 000000014016f930     LIBCMT:winapinls.obj
 0002:00025940       ??_C@_1M@CLLBGJH@?$AAn?$AAl?$AA?9?$AAB?$AAE?$AA?$AA@ 000000014016f940     LIBCMT:winapinls.obj
 0002:00025950       ??_C@_1M@BODBOGLF@?$AAn?$AAn?$AA?9?$AAN?$AAO?$AA?$AA@ 000000014016f950     LIBCMT:winapinls.obj
 0002:00025960       ??_C@_1M@HFFAHKAD@?$AAp?$AAt?$AA?9?$AAP?$AAT?$AA?$AA@ 000000014016f960     LIBCMT:winapinls.obj
 0002:00025970       ??_C@_1BG@LNOAKHIE@?$AAs?$AAr?$AA?9?$AAS?$AAP?$AA?9?$AAL?$AAa?$AAt?$AAn?$AA?$AA@ 000000014016f970     LIBCMT:winapinls.obj
 0002:00025988       ??_C@_1M@HBMHBGAK@?$AAs?$AAv?$AA?9?$AAF?$AAI?$AA?$AA@ 000000014016f988     LIBCMT:winapinls.obj
 0002:00025998       ??_C@_1BG@DGCJGJBE@?$AAa?$AAz?$AA?9?$AAA?$AAZ?$AA?9?$AAC?$AAy?$AAr?$AAl?$AA?$AA@ 000000014016f998     LIBCMT:winapinls.obj
 0002:000259b0       ??_C@_1M@KEJDAAHB@?$AAs?$AAe?$AA?9?$AAS?$AAE?$AA?$AA@ 000000014016f9b0     LIBCMT:winapinls.obj
 0002:000259c0       ??_C@_1M@HEIBJJAD@?$AAm?$AAs?$AA?9?$AAB?$AAN?$AA?$AA@ 000000014016f9c0     LIBCMT:winapinls.obj
 0002:000259d0       ??_C@_1BG@PBGJMCEM@?$AAu?$AAz?$AA?9?$AAU?$AAZ?$AA?9?$AAC?$AAy?$AAr?$AAl?$AA?$AA@ 000000014016f9d0     LIBCMT:winapinls.obj
 0002:000259e8       ??_C@_1O@LAOBCMDF@?$AAq?$AAu?$AAz?$AA?9?$AAE?$AAC?$AA?$AA@ 000000014016f9e8     LIBCMT:winapinls.obj
 0002:000259f8       ??_C@_1M@POEEMAIO@?$AAa?$AAr?$AA?9?$AAE?$AAG?$AA?$AA@ 000000014016f9f8     LIBCMT:winapinls.obj
 0002:00025a08       ??_C@_1M@EFAKDEDL@?$AAz?$AAh?$AA?9?$AAH?$AAK?$AA?$AA@ 000000014016fa08     LIBCMT:winapinls.obj
 0002:00025a18       ??_C@_1M@HKKIJHGI@?$AAd?$AAe?$AA?9?$AAA?$AAT?$AA?$AA@ 000000014016fa18     LIBCMT:winapinls.obj
 0002:00025a28       ??_C@_1M@KBFBEHJF@?$AAe?$AAn?$AA?9?$AAA?$AAU?$AA?$AA@ 000000014016fa28     LIBCMT:winapinls.obj
 0002:00025a38       ??_C@_1M@MNPLFAAH@?$AAe?$AAs?$AA?9?$AAE?$AAS?$AA?$AA@ 000000014016fa38     LIBCMT:winapinls.obj
 0002:00025a48       ??_C@_1M@HJOOJFMA@?$AAf?$AAr?$AA?9?$AAC?$AAA?$AA?$AA@ 000000014016fa48     LIBCMT:winapinls.obj
 0002:00025a58       ??_C@_1BG@JPOFPNAB@?$AAs?$AAr?$AA?9?$AAS?$AAP?$AA?9?$AAC?$AAy?$AAr?$AAl?$AA?$AA@ 000000014016fa58     LIBCMT:winapinls.obj
 0002:00025a70       ??_C@_1M@LNFOCMOB@?$AAs?$AAe?$AA?9?$AAF?$AAI?$AA?$AA@ 000000014016fa70     LIBCMT:winapinls.obj
 0002:00025a80       ??_C@_1O@MGJBOAMB@?$AAq?$AAu?$AAz?$AA?9?$AAP?$AAE?$AA?$AA@ 000000014016fa80     LIBCMT:winapinls.obj
 0002:00025a90       ??_C@_1M@GJINLBOK@?$AAa?$AAr?$AA?9?$AAL?$AAY?$AA?$AA@ 000000014016fa90     LIBCMT:winapinls.obj
 0002:00025aa0       ??_C@_1M@GGMNHJNL@?$AAz?$AAh?$AA?9?$AAS?$AAG?$AA?$AA@ 000000014016faa0     LIBCMT:winapinls.obj
 0002:00025ab0       ??_C@_1M@HOIKODND@?$AAd?$AAe?$AA?9?$AAL?$AAU?$AA?$AA@ 000000014016fab0     LIBCMT:winapinls.obj
 0002:00025ac0       ??_C@_1M@DDOCCGFG@?$AAe?$AAn?$AA?9?$AAC?$AAA?$AA?$AA@ 000000014016fac0     LIBCMT:winapinls.obj
 0002:00025ad0       ??_C@_1M@BNOEMJLF@?$AAe?$AAs?$AA?9?$AAG?$AAT?$AA?$AA@ 000000014016fad0     LIBCMT:winapinls.obj
 0002:00025ae0       ??_C@_1M@EOGNKEK@?$AAf?$AAr?$AA?9?$AAC?$AAH?$AA?$AA@ 000000014016fae0     LIBCMT:winapinls.obj
 0002:00025af0       ??_C@_1M@FLIDJFHL@?$AAh?$AAr?$AA?9?$AAB?$AAA?$AA?$AA@ 000000014016faf0     LIBCMT:winapinls.obj
 0002:00025b00       ??_C@_1O@FMCELNAJ@?$AAs?$AAm?$AAj?$AA?9?$AAN?$AAO?$AA?$AA@ 000000014016fb00     LIBCMT:winapinls.obj
 0002:00025b10       ??_C@_1M@JHGLJMGJ@?$AAa?$AAr?$AA?9?$AAD?$AAZ?$AA?$AA@ 000000014016fb10     LIBCMT:winapinls.obj
 0002:00025b20       ??_C@_1M@JKKFDCNP@?$AAz?$AAh?$AA?9?$AAM?$AAO?$AA?$AA@ 000000014016fb20     LIBCMT:winapinls.obj
 0002:00025b30       ??_C@_1M@GEEFALPE@?$AAd?$AAe?$AA?9?$AAL?$AAI?$AA?$AA@ 000000014016fb30     LIBCMT:winapinls.obj
 0002:00025b40       ??_C@_1M@IGEOFBG@?$AAe?$AAn?$AA?9?$AAN?$AAZ?$AA?$AA@ 000000014016fb40     LIBCMT:winapinls.obj
 0002:00025b50       ??_C@_1M@KDBONEHP@?$AAe?$AAs?$AA?9?$AAC?$AAR?$AA?$AA@ 000000014016fb50     LIBCMT:winapinls.obj
 0002:00025b60       ??_C@_1M@FHMDOHNN@?$AAf?$AAr?$AA?9?$AAL?$AAU?$AA?$AA@ 000000014016fb60     LIBCMT:winapinls.obj
 0002:00025b70       ??_C@_1BG@NFKKMAFG@?$AAb?$AAs?$AA?9?$AAB?$AAA?$AA?9?$AAL?$AAa?$AAt?$AAn?$AA?$AA@ 000000014016fb70     LIBCMT:winapinls.obj
 0002:00025b88       ??_C@_1O@IMNBEMCI@?$AAs?$AAm?$AAj?$AA?9?$AAS?$AAE?$AA?$AA@ 000000014016fb88     LIBCMT:winapinls.obj
 0002:00025b98       ??_C@_1M@DHHMBNDP@?$AAa?$AAr?$AA?9?$AAM?$AAA?$AA?$AA@ 000000014016fb98     LIBCMT:winapinls.obj
 0002:00025ba8       ??_C@_1M@BNBLJCGH@?$AAe?$AAn?$AA?9?$AAI?$AAE?$AA?$AA@ 000000014016fba8     LIBCMT:winapinls.obj
 0002:00025bb8       ??_C@_1M@GEPAFMDL@?$AAe?$AAs?$AA?9?$AAP?$AAA?$AA?$AA@ 000000014016fbb8     LIBCMT:winapinls.obj
 0002:00025bc8       ??_C@_1M@OJONDMDL@?$AAf?$AAr?$AA?9?$AAM?$AAC?$AA?$AA@ 000000014016fbc8     LIBCMT:winapinls.obj
 0002:00025bd8       ??_C@_1BG@OBCNFJB@?$AAs?$AAr?$AA?9?$AAB?$AAA?$AA?9?$AAL?$AAa?$AAt?$AAn?$AA?$AA@ 000000014016fbd8     LIBCMT:winapinls.obj
 0002:00025bf0       ??_C@_1O@KEMEEGPO@?$AAs?$AAm?$AAa?$AA?9?$AAN?$AAO?$AA?$AA@ 000000014016fbf0     LIBCMT:winapinls.obj
 0002:00025c00       ??_C@_1M@ELMGFODK@?$AAa?$AAr?$AA?9?$AAT?$AAN?$AA?$AA@ 000000014016fc00     LIBCMT:winapinls.obj
 0002:00025c10       ??_C@_1M@BHDLHFAF@?$AAe?$AAn?$AA?9?$AAZ?$AAA?$AA?$AA@ 000000014016fc10     LIBCMT:winapinls.obj
 0002:00025c20       ??_C@_1M@BMGIGLIF@?$AAe?$AAs?$AA?9?$AAD?$AAO?$AA?$AA@ 000000014016fc20     LIBCMT:winapinls.obj
 0002:00025c30       ??_C@_1BG@CMBHIPBE@?$AAs?$AAr?$AA?9?$AAB?$AAA?$AA?9?$AAC?$AAy?$AAr?$AAl?$AA?$AA@ 000000014016fc30     LIBCMT:winapinls.obj
 0002:00025c48       ??_C@_1O@HEDBLHNP@?$AAs?$AAm?$AAa?$AA?9?$AAS?$AAE?$AA?$AA@ 000000014016fc48     LIBCMT:winapinls.obj
 0002:00025c58       ??_C@_1M@DAGCADIM@?$AAa?$AAr?$AA?9?$AAO?$AAM?$AA?$AA@ 000000014016fc58     LIBCMT:winapinls.obj
 0002:00025c68       ??_C@_1M@FODLMICG@?$AAe?$AAn?$AA?9?$AAJ?$AAM?$AA?$AA@ 000000014016fc68     LIBCMT:winapinls.obj
 0002:00025c78       ??_C@_1M@DNMLCIHB@?$AAe?$AAs?$AA?9?$AAV?$AAE?$AA?$AA@ 000000014016fc78     LIBCMT:winapinls.obj
 0002:00025c88       ??_C@_1O@EOKHMKJK@?$AAs?$AAm?$AAs?$AA?9?$AAF?$AAI?$AA?$AA@ 000000014016fc88     LIBCMT:winapinls.obj
 0002:00025c98       ??_C@_1M@CAFJMKOF@?$AAa?$AAr?$AA?9?$AAY?$AAE?$AA?$AA@ 000000014016fc98     LIBCMT:winapinls.obj
 0002:00025ca8       ??_C@_1M@CBFHIJLI@?$AAe?$AAn?$AA?9?$AAC?$AAB?$AA?$AA@ 000000014016fca8     LIBCMT:winapinls.obj
 0002:00025cb8       ??_C@_1M@BGNFLDN@?$AAe?$AAs?$AA?9?$AAC?$AAO?$AA?$AA@ 000000014016fcb8     LIBCMT:winapinls.obj
 0002:00025cc8       ??_C@_1O@JMPHMAMC@?$AAs?$AAm?$AAn?$AA?9?$AAF?$AAI?$AA?$AA@ 000000014016fcc8     LIBCMT:winapinls.obj
 0002:00025cd8       ??_C@_1M@JLANABKE@?$AAa?$AAr?$AA?9?$AAS?$AAY?$AA?$AA@ 000000014016fcd8     LIBCMT:winapinls.obj
 0002:00025ce8       ??_C@_1M@HPKGCFGN@?$AAe?$AAn?$AA?9?$AAB?$AAZ?$AA?$AA@ 000000014016fce8     LIBCMT:winapinls.obj
 0002:00025cf8       ??_C@_1M@OLJCMLGM@?$AAe?$AAs?$AA?9?$AAP?$AAE?$AA?$AA@ 000000014016fcf8     LIBCMT:winapinls.obj
 0002:00025d08       ??_C@_1M@MKKGFKLE@?$AAa?$AAr?$AA?9?$AAJ?$AAO?$AA?$AA@ 000000014016fd08     LIBCMT:winapinls.obj
 0002:00025d18       ??_C@_1M@EKPGLDNI@?$AAe?$AAn?$AA?9?$AAT?$AAT?$AA?$AA@ 000000014016fd18     LIBCMT:winapinls.obj
 0002:00025d28       ??_C@_1M@OONGHFHE@?$AAe?$AAs?$AA?9?$AAA?$AAR?$AA?$AA@ 000000014016fd28     LIBCMT:winapinls.obj
 0002:00025d38       ??_C@_1M@OOJFGBHE@?$AAa?$AAr?$AA?9?$AAL?$AAB?$AA?$AA@ 000000014016fd38     LIBCMT:winapinls.obj
 0002:00025d48       ??_C@_1M@GCEJHNEG@?$AAe?$AAn?$AA?9?$AAZ?$AAW?$AA?$AA@ 000000014016fd48     LIBCMT:winapinls.obj
 0002:00025d58       ??_C@_1M@JNOCAHJI@?$AAe?$AAs?$AA?9?$AAE?$AAC?$AA?$AA@ 000000014016fd58     LIBCMT:winapinls.obj
 0002:00025d68       ??_C@_1M@JEFHPGGB@?$AAa?$AAr?$AA?9?$AAK?$AAW?$AA?$AA@ 000000014016fd68     LIBCMT:winapinls.obj
 0002:00025d78       ??_C@_1M@MLKIBJOJ@?$AAe?$AAn?$AA?9?$AAP?$AAH?$AA?$AA@ 000000014016fd78     LIBCMT:winapinls.obj
 0002:00025d88       ??_C@_1M@BDNIPEND@?$AAe?$AAs?$AA?9?$AAC?$AAL?$AA?$AA@ 000000014016fd88     LIBCMT:winapinls.obj
 0002:00025d98       ??_C@_1M@MPNMEKBD@?$AAa?$AAr?$AA?9?$AAA?$AAE?$AA?$AA@ 000000014016fd98     LIBCMT:winapinls.obj
 0002:00025da8       ??_C@_1M@KBJALCPI@?$AAe?$AAs?$AA?9?$AAU?$AAY?$AA?$AA@ 000000014016fda8     LIBCMT:winapinls.obj
 0002:00025db8       ??_C@_1M@LLCCOAGA@?$AAa?$AAr?$AA?9?$AAB?$AAH?$AA?$AA@ 000000014016fdb8     LIBCMT:winapinls.obj
 0002:00025dc8       ??_C@_1M@PBFNCDEL@?$AAe?$AAs?$AA?9?$AAP?$AAY?$AA?$AA@ 000000014016fdc8     LIBCMT:winapinls.obj
 0002:00025dd8       ??_C@_1M@EDGINPNP@?$AAa?$AAr?$AA?9?$AAQ?$AAA?$AA?$AA@ 000000014016fdd8     LIBCMT:winapinls.obj
 0002:00025de8       ??_C@_1M@MKDBIIJI@?$AAe?$AAs?$AA?9?$AAB?$AAO?$AA?$AA@ 000000014016fde8     LIBCMT:winapinls.obj
 0002:00025df8       ??_C@_1M@CPKKEBLD@?$AAe?$AAs?$AA?9?$AAS?$AAV?$AA?$AA@ 000000014016fdf8     LIBCMT:winapinls.obj
 0002:00025e08       ??_C@_1M@NDBGMMJL@?$AAe?$AAs?$AA?9?$AAH?$AAN?$AA?$AA@ 000000014016fe08     LIBCMT:winapinls.obj
 0002:00025e18       ??_C@_1M@JIJIBHDP@?$AAe?$AAs?$AA?9?$AAN?$AAI?$AA?$AA@ 000000014016fe18     LIBCMT:winapinls.obj
 0002:00025e28       ??_C@_1M@CGFMKEEK@?$AAe?$AAs?$AA?9?$AAP?$AAR?$AA?$AA@ 000000014016fe28     LIBCMT:winapinls.obj
 0002:00025e38       ??_C@_1O@ICJHKIIK@?$AAz?$AAh?$AA?9?$AAC?$AAH?$AAT?$AA?$AA@ 000000014016fe38     LIBCMT:winapinls.obj
 0002:00025e48       ??_C@_15CLNEJCE@?$AAs?$AAr?$AA?$AA@ 000000014016fe48     LIBCMT:winapinls.obj
 0002:00025e50       ??_C@_1M@KAHEKEIG@?$AAa?$AAf?$AA?9?$AAz?$AAa?$AA?$AA@ 000000014016fe50     LIBCMT:winapinls.obj
 0002:00025e60       ??_C@_1M@GIECOABL@?$AAa?$AAr?$AA?9?$AAa?$AAe?$AA?$AA@ 000000014016fe60     LIBCMT:winapinls.obj
 0002:00025e70       ??_C@_1M@BMLMEKGI@?$AAa?$AAr?$AA?9?$AAb?$AAh?$AA?$AA@ 000000014016fe70     LIBCMT:winapinls.obj
 0002:00025e80       ??_C@_1M@DAPFDGGB@?$AAa?$AAr?$AA?9?$AAd?$AAz?$AA?$AA@ 000000014016fe80     LIBCMT:winapinls.obj
 0002:00025e90       ??_C@_1M@FJNKGKIG@?$AAa?$AAr?$AA?9?$AAe?$AAg?$AA?$AA@ 000000014016fe90     LIBCMT:winapinls.obj
 0002:00025ea0       ??_C@_1M@FLGKKCLO@?$AAa?$AAr?$AA?9?$AAi?$AAq?$AA?$AA@ 000000014016fea0     LIBCMT:winapinls.obj
 0002:00025eb0       ??_C@_1M@GNDIPALM@?$AAa?$AAr?$AA?9?$AAj?$AAo?$AA?$AA@ 000000014016feb0     LIBCMT:winapinls.obj
 0002:00025ec0       ??_C@_1M@DDMJFMGJ@?$AAa?$AAr?$AA?9?$AAk?$AAw?$AA?$AA@ 000000014016fec0     LIBCMT:winapinls.obj
 0002:00025ed0       ??_C@_1M@EJALMLHM@?$AAa?$AAr?$AA?9?$AAl?$AAb?$AA?$AA@ 000000014016fed0     LIBCMT:winapinls.obj
 0002:00025ee0       ??_C@_1M@MOBDBLOC@?$AAa?$AAr?$AA?9?$AAl?$AAy?$AA?$AA@ 000000014016fee0     LIBCMT:winapinls.obj
 0002:00025ef0       ??_C@_1M@JAOCLHDH@?$AAa?$AAr?$AA?9?$AAm?$AAa?$AA?$AA@ 000000014016fef0     LIBCMT:winapinls.obj
 0002:00025f00       ??_C@_1M@JHPMKJIE@?$AAa?$AAr?$AA?9?$AAo?$AAm?$AA?$AA@ 000000014016ff00     LIBCMT:winapinls.obj
 0002:00025f10       ??_C@_1M@OEPGHFNH@?$AAa?$AAr?$AA?9?$AAq?$AAa?$AA?$AA@ 000000014016ff10     LIBCMT:winapinls.obj
 0002:00025f20       ??_C@_1M@KJDONENM@?$AAa?$AAr?$AA?9?$AAs?$AAa?$AA?$AA@ 000000014016ff20     LIBCMT:winapinls.obj
 0002:00025f30       ??_C@_1M@DMJDKLKM@?$AAa?$AAr?$AA?9?$AAs?$AAy?$AA?$AA@ 000000014016ff30     LIBCMT:winapinls.obj
 0002:00025f40       ??_C@_1M@OMFIPEDC@?$AAa?$AAr?$AA?9?$AAt?$AAn?$AA?$AA@ 000000014016ff40     LIBCMT:winapinls.obj
 0002:00025f50       ??_C@_1M@IHMHGAON@?$AAa?$AAr?$AA?9?$AAy?$AAe?$AA?$AA@ 000000014016ff50     LIBCMT:winapinls.obj
 0002:00025f60       ??_C@_1BG@KDCPGJGB@?$AAa?$AAz?$AA?9?$AAa?$AAz?$AA?9?$AAc?$AAy?$AAr?$AAl?$AA?$AA@ 000000014016ff60     LIBCMT:winapinls.obj
 0002:00025f78       ??_C@_1BG@IBCKDDOE@?$AAa?$AAz?$AA?9?$AAa?$AAz?$AA?9?$AAl?$AAa?$AAt?$AAn?$AA?$AA@ 000000014016ff78     LIBCMT:winapinls.obj
 0002:00025f90       ??_C@_1M@EGPFDCPD@?$AAb?$AAe?$AA?9?$AAb?$AAy?$AA?$AA@ 000000014016ff90     LIBCMT:winapinls.obj
 0002:00025fa0       ??_C@_1M@PCMGMCGC@?$AAb?$AAg?$AA?9?$AAb?$AAg?$AA?$AA@ 000000014016ffa0     LIBCMT:winapinls.obj
 0002:00025fb0       ??_C@_1M@BJBMFGOB@?$AAb?$AAn?$AA?9?$AAi?$AAn?$AA?$AA@ 000000014016ffb0     LIBCMT:winapinls.obj
 0002:00025fc0       ??_C@_1BG@EAKMMACD@?$AAb?$AAs?$AA?9?$AAb?$AAa?$AA?9?$AAl?$AAa?$AAt?$AAn?$AA?$AA@ 000000014016ffc0     LIBCMT:winapinls.obj
 0002:00025fd8       ??_C@_1M@KGADAODK@?$AAc?$AAa?$AA?9?$AAe?$AAs?$AA?$AA@ 000000014016ffd8     LIBCMT:winapinls.obj
 0002:00025fe8       ??_C@_1M@COAJPDHI@?$AAc?$AAs?$AA?9?$AAc?$AAz?$AA?$AA@ 000000014016ffe8     LIBCMT:winapinls.obj
 0002:00025ff8       ??_C@_1M@DHBHFONH@?$AAc?$AAy?$AA?9?$AAg?$AAb?$AA?$AA@ 000000014016fff8     LIBCMT:winapinls.obj
 0002:00026008       ??_C@_1M@IMGKELGA@?$AAd?$AAa?$AA?9?$AAd?$AAk?$AA?$AA@ 0000000140170008     LIBCMT:winapinls.obj
 0002:00026018       ??_C@_1M@NNDGDNGA@?$AAd?$AAe?$AA?9?$AAa?$AAt?$AA?$AA@ 0000000140170018     LIBCMT:winapinls.obj
 0002:00026028       ??_C@_1M@IKDBHEEM@?$AAd?$AAe?$AA?9?$AAc?$AAh?$AA?$AA@ 0000000140170028     LIBCMT:winapinls.obj
 0002:00026038       ??_C@_1M@GFFOJMCJ@?$AAd?$AAe?$AA?9?$AAd?$AAe?$AA?$AA@ 0000000140170038     LIBCMT:winapinls.obj
 0002:00026048       ??_C@_1M@MDNLKBPM@?$AAd?$AAe?$AA?9?$AAl?$AAi?$AA?$AA@ 0000000140170048     LIBCMT:winapinls.obj
 0002:00026058       ??_C@_1M@NJBEEJNL@?$AAd?$AAe?$AA?9?$AAl?$AAu?$AA?$AA@ 0000000140170058     LIBCMT:winapinls.obj
 0002:00026068       ??_C@_1O@GNNELBAP@?$AAd?$AAi?$AAv?$AA?9?$AAm?$AAv?$AA?$AA@ 0000000140170068     LIBCMT:winapinls.obj
 0002:00026078       ??_C@_1M@EJLEOGAE@?$AAe?$AAl?$AA?9?$AAg?$AAr?$AA?$AA@ 0000000140170078     LIBCMT:winapinls.obj
 0002:00026088       ??_C@_1M@GMPONJN@?$AAe?$AAn?$AA?9?$AAa?$AAu?$AA?$AA@ 0000000140170088     LIBCMT:winapinls.obj
 0002:00026098       ??_C@_1M@NIDIIPGF@?$AAe?$AAn?$AA?9?$AAb?$AAz?$AA?$AA@ 0000000140170098     LIBCMT:winapinls.obj
 0002:000260a8       ??_C@_1M@JEHMIMFO@?$AAe?$AAn?$AA?9?$AAc?$AAa?$AA?$AA@ 00000001401700a8     LIBCMT:winapinls.obj
 0002:000260b8       ??_C@_1M@IGMJCDLA@?$AAe?$AAn?$AA?9?$AAc?$AAb?$AA?$AA@ 00000001401700b8     LIBCMT:winapinls.obj
 0002:000260c8       ??_C@_1M@BNFIGBKG@?$AAe?$AAn?$AA?9?$AAg?$AAb?$AA?$AA@ 00000001401700c8     LIBCMT:winapinls.obj
 0002:000260d8       ??_C@_1M@LKIFDIGP@?$AAe?$AAn?$AA?9?$AAi?$AAe?$AA?$AA@ 00000001401700d8     LIBCMT:winapinls.obj
 0002:000260e8       ??_C@_1M@PJKFGCCO@?$AAe?$AAn?$AA?9?$AAj?$AAm?$AA?$AA@ 00000001401700e8     LIBCMT:winapinls.obj
 0002:000260f8       ??_C@_1M@KPPKEPBO@?$AAe?$AAn?$AA?9?$AAn?$AAz?$AA?$AA@ 00000001401700f8     LIBCMT:winapinls.obj
 0002:00026108       ??_C@_1M@GMDGLDOB@?$AAe?$AAn?$AA?9?$AAp?$AAh?$AA?$AA@ 0000000140170108     LIBCMT:winapinls.obj
 0002:00026118       ??_C@_1M@ONGIBJNA@?$AAe?$AAn?$AA?9?$AAt?$AAt?$AA?$AA@ 0000000140170118     LIBCMT:winapinls.obj
 0002:00026128       ??_C@_1M@LLODPCMM@?$AAe?$AAn?$AA?9?$AAu?$AAs?$AA?$AA@ 0000000140170128     LIBCMT:winapinls.obj
 0002:00026138       ??_C@_1M@LAKFNPAN@?$AAe?$AAn?$AA?9?$AAz?$AAa?$AA?$AA@ 0000000140170138     LIBCMT:winapinls.obj
 0002:00026148       ??_C@_1M@MFNHNHEO@?$AAe?$AAn?$AA?9?$AAz?$AAw?$AA?$AA@ 0000000140170148     LIBCMT:winapinls.obj
 0002:00026158       ??_C@_1M@EJEINPHM@?$AAe?$AAs?$AA?9?$AAa?$AAr?$AA?$AA@ 0000000140170158     LIBCMT:winapinls.obj
 0002:00026168       ??_C@_1M@GNKPCCJA@?$AAe?$AAs?$AA?9?$AAb?$AAo?$AA?$AA@ 0000000140170168     LIBCMT:winapinls.obj
 0002:00026178       ??_C@_1M@LEEGFONL@?$AAe?$AAs?$AA?9?$AAc?$AAl?$AA?$AA@ 0000000140170178     LIBCMT:winapinls.obj
 0002:00026188       ??_C@_1M@KGPDPBDF@?$AAe?$AAs?$AA?9?$AAc?$AAo?$AA?$AA@ 0000000140170188     LIBCMT:winapinls.obj
 0002:00026198       ??_C@_1M@EIAHOHH@?$AAe?$AAs?$AA?9?$AAc?$AAr?$AA?$AA@ 0000000140170198     LIBCMT:winapinls.obj
 0002:000261a8       ??_C@_1M@LLPGMBIN@?$AAe?$AAs?$AA?9?$AAd?$AAo?$AA?$AA@ 00000001401701a8     LIBCMT:winapinls.obj
 0002:000261b8       ??_C@_1M@DKHMKNJA@?$AAe?$AAs?$AA?9?$AAe?$AAc?$AA?$AA@ 00000001401701b8     LIBCMT:winapinls.obj
 0002:000261c8       ??_C@_1M@GKGFPKAP@?$AAe?$AAs?$AA?9?$AAe?$AAs?$AA?$AA@ 00000001401701c8     LIBCMT:winapinls.obj
 0002:000261d8       ??_C@_1M@LKHKGDLN@?$AAe?$AAs?$AA?9?$AAg?$AAt?$AA?$AA@ 00000001401701d8     LIBCMT:winapinls.obj
 0002:000261e8       ??_C@_1M@HEIIGGJD@?$AAe?$AAs?$AA?9?$AAh?$AAn?$AA?$AA@ 00000001401701e8     LIBCMT:winapinls.obj
 0002:000261f8       ??_C@_1M@FBDHPPGD@?$AAe?$AAs?$AA?9?$AAm?$AAx?$AA?$AA@ 00000001401701f8     LIBCMT:winapinls.obj
 0002:00026208       ??_C@_1M@DPAGLNDH@?$AAe?$AAs?$AA?9?$AAn?$AAi?$AA?$AA@ 0000000140170208     LIBCMT:winapinls.obj
 0002:00026218       ??_C@_1M@MDGOPGDD@?$AAe?$AAs?$AA?9?$AAp?$AAa?$AA?$AA@ 0000000140170218     LIBCMT:winapinls.obj
 0002:00026228       ??_C@_1M@EMAMGBGE@?$AAe?$AAs?$AA?9?$AAp?$AAe?$AA?$AA@ 0000000140170228     LIBCMT:winapinls.obj
 0002:00026238       ??_C@_1M@IBMCAOEC@?$AAe?$AAs?$AA?9?$AAp?$AAr?$AA?$AA@ 0000000140170238     LIBCMT:winapinls.obj
 0002:00026248       ??_C@_1M@FGMDIJED@?$AAe?$AAs?$AA?9?$AAp?$AAy?$AA?$AA@ 0000000140170248     LIBCMT:winapinls.obj
 0002:00026258       ??_C@_1M@IIDEOLLL@?$AAe?$AAs?$AA?9?$AAs?$AAv?$AA?$AA@ 0000000140170258     LIBCMT:winapinls.obj
 0002:00026268       ??_C@_1M@GAOBIPA@?$AAe?$AAs?$AA?9?$AAu?$AAy?$AA?$AA@ 0000000140170268     LIBCMT:winapinls.obj
 0002:00026278       ??_C@_1M@JKFFICHJ@?$AAe?$AAs?$AA?9?$AAv?$AAe?$AA?$AA@ 0000000140170278     LIBCMT:winapinls.obj
 0002:00026288       ??_C@_1M@PNMLOJDF@?$AAe?$AAt?$AA?9?$AAe?$AAe?$AA?$AA@ 0000000140170288     LIBCMT:winapinls.obj
 0002:00026298       ??_C@_1M@GHHLIKEI@?$AAe?$AAu?$AA?9?$AAe?$AAs?$AA?$AA@ 0000000140170298     LIBCMT:winapinls.obj
 0002:000262a8       ??_C@_1M@PBNONODE@?$AAf?$AAa?$AA?9?$AAi?$AAr?$AA?$AA@ 00000001401702a8     LIBCMT:winapinls.obj
 0002:000262b8       ??_C@_1M@JEEHPMIL@?$AAf?$AAi?$AA?9?$AAf?$AAi?$AA?$AA@ 00000001401702b8     LIBCMT:winapinls.obj
 0002:000262c8       ??_C@_1M@LMDCNDBA@?$AAf?$AAo?$AA?9?$AAf?$AAo?$AA?$AA@ 00000001401702c8     LIBCMT:winapinls.obj
 0002:000262d8       ??_C@_1M@JKEOHLDK@?$AAf?$AAr?$AA?9?$AAb?$AAe?$AA?$AA@ 00000001401702d8     LIBCMT:winapinls.obj
 0002:000262e8       ??_C@_1M@NOHADPMI@?$AAf?$AAr?$AA?9?$AAc?$AAa?$AA?$AA@ 00000001401702e8     LIBCMT:winapinls.obj
 0002:000262f8       ??_C@_1M@KDHIHAEC@?$AAf?$AAr?$AA?9?$AAc?$AAh?$AA?$AA@ 00000001401702f8     LIBCMT:winapinls.obj
 0002:00026308       ??_C@_1M@MMBBFGAK@?$AAf?$AAr?$AA?9?$AAf?$AAr?$AA?$AA@ 0000000140170308     LIBCMT:winapinls.obj
 0002:00026318       ??_C@_1M@PAFNENNF@?$AAf?$AAr?$AA?9?$AAl?$AAu?$AA?$AA@ 0000000140170318     LIBCMT:winapinls.obj
 0002:00026328       ??_C@_1M@EOHDJGDD@?$AAf?$AAr?$AA?9?$AAm?$AAc?$AA?$AA@ 0000000140170328     LIBCMT:winapinls.obj
 0002:00026338       ??_C@_1M@FAPLLOPF@?$AAg?$AAl?$AA?9?$AAe?$AAs?$AA?$AA@ 0000000140170338     LIBCMT:winapinls.obj
 0002:00026348       ??_C@_1M@FOPBFLOO@?$AAg?$AAu?$AA?9?$AAi?$AAn?$AA?$AA@ 0000000140170348     LIBCMT:winapinls.obj
 0002:00026358       ??_C@_1M@KBMCINPM@?$AAh?$AAe?$AA?9?$AAi?$AAl?$AA?$AA@ 0000000140170358     LIBCMT:winapinls.obj
 0002:00026368       ??_C@_1M@BBPHKFPJ@?$AAh?$AAi?$AA?9?$AAi?$AAn?$AA?$AA@ 0000000140170368     LIBCMT:winapinls.obj
 0002:00026378       ??_C@_1M@PMBNDPHD@?$AAh?$AAr?$AA?9?$AAb?$AAa?$AA?$AA@ 0000000140170378     LIBCMT:winapinls.obj
 0002:00026388       ??_C@_1M@BPCKOEGE@?$AAh?$AAr?$AA?9?$AAh?$AAr?$AA?$AA@ 0000000140170388     LIBCMT:winapinls.obj
 0002:00026398       ??_C@_1M@GACBMHKE@?$AAh?$AAu?$AA?9?$AAh?$AAu?$AA?$AA@ 0000000140170398     LIBCMT:winapinls.obj
 0002:000263a8       ??_C@_1M@MILPAJJC@?$AAh?$AAy?$AA?9?$AAa?$AAm?$AA?$AA@ 00000001401703a8     LIBCMT:winapinls.obj
 0002:000263b8       ??_C@_1M@BABBICEC@?$AAi?$AAd?$AA?9?$AAi?$AAd?$AA?$AA@ 00000001401703b8     LIBCMT:winapinls.obj
 0002:000263c8       ??_C@_1M@BIKNHHPF@?$AAi?$AAs?$AA?9?$AAi?$AAs?$AA?$AA@ 00000001401703c8     LIBCMT:winapinls.obj
 0002:000263d8       ??_C@_1M@NMPCJPHE@?$AAi?$AAt?$AA?9?$AAc?$AAh?$AA?$AA@ 00000001401703d8     LIBCMT:winapinls.obj
 0002:000263e8       ??_C@_1M@GHKGFEDF@?$AAi?$AAt?$AA?9?$AAi?$AAt?$AA?$AA@ 00000001401703e8     LIBCMT:winapinls.obj
 0002:000263f8       ??_C@_1M@NIEJCJJA@?$AAj?$AAa?$AA?9?$AAj?$AAp?$AA?$AA@ 00000001401703f8     LIBCMT:winapinls.obj
 0002:00026408       ??_C@_1M@JILFNBIM@?$AAk?$AAa?$AA?9?$AAg?$AAe?$AA?$AA@ 0000000140170408     LIBCMT:winapinls.obj
 0002:00026418       ??_C@_1M@PACPMGPH@?$AAk?$AAk?$AA?9?$AAk?$AAz?$AA?$AA@ 0000000140170418     LIBCMT:winapinls.obj
 0002:00026428       ??_C@_1M@IELFGMHA@?$AAk?$AAn?$AA?9?$AAi?$AAn?$AA?$AA@ 0000000140170428     LIBCMT:winapinls.obj
 0002:00026438       ??_C@_1O@IBBJHCH@?$AAk?$AAo?$AAk?$AA?9?$AAi?$AAn?$AA?$AA@ 0000000140170438     LIBCMT:winapinls.obj
 0002:00026448       ??_C@_1M@DMHAEOGC@?$AAk?$AAo?$AA?9?$AAk?$AAr?$AA?$AA@ 0000000140170448     LIBCMT:winapinls.obj
 0002:00026458       ??_C@_1M@HBAHBIGA@?$AAk?$AAy?$AA?9?$AAk?$AAg?$AA?$AA@ 0000000140170458     LIBCMT:winapinls.obj
 0002:00026468       ??_C@_1M@KPMILCJG@?$AAl?$AAt?$AA?9?$AAl?$AAt?$AA?$AA@ 0000000140170468     LIBCMT:winapinls.obj
 0002:00026478       ??_C@_1M@BDEKKCA@?$AAl?$AAv?$AA?9?$AAl?$AAv?$AA?$AA@ 0000000140170478     LIBCMT:winapinls.obj
 0002:00026488       ??_C@_1M@ELCKCCJJ@?$AAm?$AAi?$AA?9?$AAn?$AAz?$AA?$AA@ 0000000140170488     LIBCMT:winapinls.obj
 0002:00026498       ??_C@_1M@CBOOLAPA@?$AAm?$AAk?$AA?9?$AAm?$AAk?$AA?$AA@ 0000000140170498     LIBCMT:winapinls.obj
 0002:000264a8       ??_C@_1M@GPHNBJKN@?$AAm?$AAl?$AA?9?$AAi?$AAn?$AA?$AA@ 00000001401704a8     LIBCMT:winapinls.obj
 0002:000264b8       ??_C@_1M@PABJILIG@?$AAm?$AAn?$AA?9?$AAm?$AAn?$AA?$AA@ 00000001401704b8     LIBCMT:winapinls.obj
 0002:000264c8       ??_C@_1M@FGBKKIPG@?$AAm?$AAr?$AA?9?$AAi?$AAn?$AA?$AA@ 00000001401704c8     LIBCMT:winapinls.obj
 0002:000264d8       ??_C@_1M@NDBPDDAL@?$AAm?$AAs?$AA?9?$AAb?$AAn?$AA?$AA@ 00000001401704d8     LIBCMT:winapinls.obj
 0002:000264e8       ??_C@_1M@OPIHOOPI@?$AAm?$AAs?$AA?9?$AAm?$AAy?$AA?$AA@ 00000001401704e8     LIBCMT:winapinls.obj
 0002:000264f8       ??_C@_1M@PPDBCNFM@?$AAm?$AAt?$AA?9?$AAm?$AAt?$AA?$AA@ 00000001401704f8     LIBCMT:winapinls.obj
 0002:00026508       ??_C@_1M@KDJDKMDD@?$AAn?$AAb?$AA?9?$AAn?$AAo?$AA?$AA@ 0000000140170508     LIBCMT:winapinls.obj
 0002:00026518       ??_C@_1M@KFCFLMJP@?$AAn?$AAl?$AA?9?$AAb?$AAe?$AA?$AA@ 0000000140170518     LIBCMT:winapinls.obj
 0002:00026528       ??_C@_1M@KPOPDDGO@?$AAn?$AAl?$AA?9?$AAn?$AAl?$AA?$AA@ 0000000140170528     LIBCMT:winapinls.obj
 0002:00026538       ??_C@_1M@LJKPEMLN@?$AAn?$AAn?$AA?9?$AAn?$AAo?$AA?$AA@ 0000000140170538     LIBCMT:winapinls.obj
 0002:00026548       ??_C@_1M@BDGHHBFL@?$AAn?$AAs?$AA?9?$AAz?$AAa?$AA?$AA@ 0000000140170548     LIBCMT:winapinls.obj
 0002:00026558       ??_C@_1M@IDEHOAP@?$AAp?$AAa?$AA?9?$AAi?$AAn?$AA?$AA@ 0000000140170558     LIBCMT:winapinls.obj
 0002:00026568       ??_C@_1M@HDBKGOGH@?$AAp?$AAl?$AA?9?$AAp?$AAl?$AA?$AA@ 0000000140170568     LIBCMT:winapinls.obj
 0002:00026578       ??_C@_1M@LJLLCMEH@?$AAp?$AAt?$AA?9?$AAb?$AAr?$AA?$AA@ 0000000140170578     LIBCMT:winapinls.obj
 0002:00026588       ??_C@_1M@NCMONAAL@?$AAp?$AAt?$AA?9?$AAp?$AAt?$AA?$AA@ 0000000140170588     LIBCMT:winapinls.obj
 0002:00026598       ??_C@_1O@EAKMAJDN@?$AAq?$AAu?$AAz?$AA?9?$AAb?$AAo?$AA?$AA@ 0000000140170598     LIBCMT:winapinls.obj
 0002:000265a8       ??_C@_1O@BHHPIGDN@?$AAq?$AAu?$AAz?$AA?9?$AAe?$AAc?$AA?$AA@ 00000001401705a8     LIBCMT:winapinls.obj
 0002:000265b8       ??_C@_1O@GBAPEKMJ@?$AAq?$AAu?$AAz?$AA?9?$AAp?$AAe?$AA?$AA@ 00000001401705b8     LIBCMT:winapinls.obj
 0002:000265c8       ??_C@_1M@CLGLEFBO@?$AAr?$AAo?$AA?9?$AAr?$AAo?$AA?$AA@ 00000001401705c8     LIBCMT:winapinls.obj
 0002:000265d8       ??_C@_1M@CEEDODME@?$AAr?$AAu?$AA?9?$AAr?$AAu?$AA?$AA@ 00000001401705d8     LIBCMT:winapinls.obj
 0002:000265e8       ??_C@_1M@HPKKKMPP@?$AAs?$AAa?$AA?9?$AAi?$AAn?$AA?$AA@ 00000001401705e8     LIBCMT:winapinls.obj
 0002:000265f8       ??_C@_1M@BKMAIGOJ@?$AAs?$AAe?$AA?9?$AAf?$AAi?$AA?$AA@ 00000001401705f8     LIBCMT:winapinls.obj
 0002:00026608       ??_C@_1M@NDPIFLFI@?$AAs?$AAe?$AA?9?$AAn?$AAo?$AA?$AA@ 0000000140170608     LIBCMT:winapinls.obj
 0002:00026618       ??_C@_1M@DANKKHJ@?$AAs?$AAe?$AA?9?$AAs?$AAe?$AA?$AA@ 0000000140170618     LIBCMT:winapinls.obj
 0002:00026628       ??_C@_1M@PNBLONPJ@?$AAs?$AAk?$AA?9?$AAs?$AAk?$AA?$AA@ 0000000140170628     LIBCMT:winapinls.obj
 0002:00026638       ??_C@_1M@LFMODOAL@?$AAs?$AAl?$AA?9?$AAs?$AAi?$AA?$AA@ 0000000140170638     LIBCMT:winapinls.obj
 0002:00026648       ??_C@_1O@DFKOMPG@?$AAs?$AAm?$AAa?$AA?9?$AAn?$AAo?$AA?$AA@ 0000000140170648     LIBCMT:winapinls.obj
 0002:00026658       ??_C@_1O@NDKPBNNH@?$AAs?$AAm?$AAa?$AA?9?$AAs?$AAe?$AA?$AA@ 0000000140170658     LIBCMT:winapinls.obj
 0002:00026668       ??_C@_1O@PLLKBHAB@?$AAs?$AAm?$AAj?$AA?9?$AAn?$AAo?$AA?$AA@ 0000000140170668     LIBCMT:winapinls.obj
 0002:00026678       ??_C@_1O@CLEPOGCA@?$AAs?$AAm?$AAj?$AA?9?$AAs?$AAe?$AA?$AA@ 0000000140170678     LIBCMT:winapinls.obj
 0002:00026688       ??_C@_1O@DLGJGKMK@?$AAs?$AAm?$AAn?$AA?9?$AAf?$AAi?$AA?$AA@ 0000000140170688     LIBCMT:winapinls.obj
 0002:00026698       ??_C@_1O@OJDJGAJC@?$AAs?$AAm?$AAs?$AA?9?$AAf?$AAi?$AA?$AA@ 0000000140170698     LIBCMT:winapinls.obj
 0002:000266a8       ??_C@_1M@BOFOGHPB@?$AAs?$AAq?$AA?9?$AAa?$AAl?$AA?$AA@ 00000001401706a8     LIBCMT:winapinls.obj
 0002:000266b8       ??_C@_1BG@LJBBIPGB@?$AAs?$AAr?$AA?9?$AAb?$AAa?$AA?9?$AAc?$AAy?$AAr?$AAl?$AA?$AA@ 00000001401706b8     LIBCMT:winapinls.obj
 0002:000266d0       ??_C@_1BG@JLBENFOE@?$AAs?$AAr?$AA?9?$AAb?$AAa?$AA?9?$AAl?$AAa?$AAt?$AAn?$AA?$AA@ 00000001401706d0     LIBCMT:winapinls.obj
 0002:000266e8       ??_C@_1BG@KODPNHE@?$AAs?$AAr?$AA?9?$AAs?$AAp?$AA?9?$AAc?$AAy?$AAr?$AAl?$AA?$AA@ 00000001401706e8     LIBCMT:winapinls.obj
 0002:00026700       ??_C@_1BG@CIOGKHPB@?$AAs?$AAr?$AA?9?$AAs?$AAp?$AA?9?$AAl?$AAa?$AAt?$AAn?$AA?$AA@ 0000000140170700     LIBCMT:winapinls.obj
 0002:00026718       ??_C@_1M@NGFJLMAC@?$AAs?$AAv?$AA?9?$AAf?$AAi?$AA?$AA@ 0000000140170718     LIBCMT:winapinls.obj
 0002:00026728       ??_C@_1M@MPJEJAJC@?$AAs?$AAv?$AA?9?$AAs?$AAe?$AA?$AA@ 0000000140170728     LIBCMT:winapinls.obj
 0002:00026738       ??_C@_1M@MPNDHLFK@?$AAs?$AAw?$AA?9?$AAk?$AAe?$AA?$AA@ 0000000140170738     LIBCMT:winapinls.obj
 0002:00026748       ??_C@_1O@KOHBJJI@?$AAs?$AAy?$AAr?$AA?9?$AAs?$AAy?$AA?$AA@ 0000000140170748     LIBCMT:winapinls.obj
 0002:00026758       ??_C@_1M@LDCEFHA@?$AAt?$AAa?$AA?9?$AAi?$AAn?$AA?$AA@ 0000000140170758     LIBCMT:winapinls.obj
 0002:00026768       ??_C@_1M@CNJOFAK@?$AAt?$AAe?$AA?9?$AAi?$AAn?$AA?$AA@ 0000000140170768     LIBCMT:winapinls.obj
 0002:00026778       ??_C@_1M@GNAECACD@?$AAt?$AAh?$AA?9?$AAt?$AAh?$AA?$AA@ 0000000140170778     LIBCMT:winapinls.obj
 0002:00026788       ??_C@_1M@CHBIHOJO@?$AAt?$AAn?$AA?9?$AAz?$AAa?$AA?$AA@ 0000000140170788     LIBCMT:winapinls.obj
 0002:00026798       ??_C@_1M@GCCMIGPJ@?$AAt?$AAr?$AA?9?$AAt?$AAr?$AA?$AA@ 0000000140170798     LIBCMT:winapinls.obj
 0002:000267a8       ??_C@_1M@CELMCNBK@?$AAt?$AAt?$AA?9?$AAr?$AAu?$AA?$AA@ 00000001401707a8     LIBCMT:winapinls.obj
 0002:000267b8       ??_C@_1M@KLMCELGA@?$AAu?$AAk?$AA?9?$AAu?$AAa?$AA?$AA@ 00000001401707b8     LIBCMT:winapinls.obj
 0002:000267c8       ??_C@_1M@EPAJJAJF@?$AAu?$AAr?$AA?9?$AAp?$AAk?$AA?$AA@ 00000001401707c8     LIBCMT:winapinls.obj
 0002:000267d8       ??_C@_1BG@GEGPMCDJ@?$AAu?$AAz?$AA?9?$AAu?$AAz?$AA?9?$AAc?$AAy?$AAr?$AAl?$AA?$AA@ 00000001401707d8     LIBCMT:winapinls.obj
 0002:000267f0       ??_C@_1BG@EGGKJILM@?$AAu?$AAz?$AA?9?$AAu?$AAz?$AA?9?$AAl?$AAa?$AAt?$AAn?$AA?$AA@ 00000001401707f0     LIBCMT:winapinls.obj
 0002:00026808       ??_C@_1M@GFOCLFF@?$AAv?$AAi?$AA?9?$AAv?$AAn?$AA?$AA@ 0000000140170808     LIBCMT:winapinls.obj
 0002:00026818       ??_C@_1M@CPAMEDFI@?$AAx?$AAh?$AA?9?$AAz?$AAa?$AA?$AA@ 0000000140170818     LIBCMT:winapinls.obj
 0002:00026828       ??_C@_1O@EBKIFIGN@?$AAz?$AAh?$AA?9?$AAc?$AAh?$AAs?$AA?$AA@ 0000000140170828     LIBCMT:winapinls.obj
 0002:00026838       ??_C@_1O@NMHPGANE@?$AAz?$AAh?$AA?9?$AAc?$AAh?$AAt?$AA?$AA@ 0000000140170838     LIBCMT:winapinls.obj
 0002:00026848       ??_C@_1M@LPINJOMC@?$AAz?$AAh?$AA?9?$AAc?$AAn?$AA?$AA@ 0000000140170848     LIBCMT:winapinls.obj
 0002:00026858       ??_C@_1M@OCJEJODD@?$AAz?$AAh?$AA?9?$AAh?$AAk?$AA?$AA@ 0000000140170858     LIBCMT:winapinls.obj
 0002:00026868       ??_C@_1M@DNDLJINH@?$AAz?$AAh?$AA?9?$AAm?$AAo?$AA?$AA@ 0000000140170868     LIBCMT:winapinls.obj
 0002:00026878       ??_C@_1M@MBFDNDND@?$AAz?$AAh?$AA?9?$AAs?$AAg?$AA?$AA@ 0000000140170878     LIBCMT:winapinls.obj
 0002:00026888       ??_C@_1M@IMEPLEPE@?$AAz?$AAh?$AA?9?$AAt?$AAw?$AA?$AA@ 0000000140170888     LIBCMT:winapinls.obj
 0002:00026898       ??_C@_1M@BBGHNHJP@?$AAz?$AAu?$AA?9?$AAz?$AAa?$AA?$AA@ 0000000140170898     LIBCMT:winapinls.obj
 0002:000268b0       __newctype                 00000001401708b0     LIBCMT:ctype.obj
 0002:00026bb0       _wctype                    0000000140170bb0     LIBCMT:ctype.obj
 0002:00026dc0       __newclmap                 0000000140170dc0     LIBCMT:ctype.obj
 0002:00026f40       __newcumap                 0000000140170f40     LIBCMT:ctype.obj
 0002:000270c0       __rg_language              00000001401710c0     LIBCMT:getqloc.obj
 0002:000274d0       ??_C@_1BC@LLOKLNP@?$AAa?$AAm?$AAe?$AAr?$AAi?$AAc?$AAa?$AAn?$AA?$AA@ 00000001401714d0     LIBCMT:getqloc.obj
 0002:000274e8       ??_C@_1CC@HEIGCDGG@?$AAa?$AAm?$AAe?$AAr?$AAi?$AAc?$AAa?$AAn?$AA?5?$AAe?$AAn?$AAg?$AAl?$AAi?$AAs?$AAh?$AA?$AA@ 00000001401714e8     LIBCMT:getqloc.obj
 0002:00027510       ??_C@_1CC@IHCNOMIN@?$AAa?$AAm?$AAe?$AAr?$AAi?$AAc?$AAa?$AAn?$AA?9?$AAe?$AAn?$AAg?$AAl?$AAi?$AAs?$AAh?$AA?$AA@ 0000000140171510     LIBCMT:getqloc.obj
 0002:00027538       ??_C@_1BG@GKAGPCGG@?$AAa?$AAu?$AAs?$AAt?$AAr?$AAa?$AAl?$AAi?$AAa?$AAn?$AA?$AA@ 0000000140171538     LIBCMT:getqloc.obj
 0002:00027550       ??_C@_1BA@GMENCENF@?$AAb?$AAe?$AAl?$AAg?$AAi?$AAa?$AAn?$AA?$AA@ 0000000140171550     LIBCMT:getqloc.obj
 0002:00027560       ??_C@_1BC@PJMIIAAN@?$AAc?$AAa?$AAn?$AAa?$AAd?$AAi?$AAa?$AAn?$AA?$AA@ 0000000140171560     LIBCMT:getqloc.obj
 0002:00027578       ??_C@_17NOIMNFBF@?$AAc?$AAh?$AAh?$AA?$AA@ 0000000140171578     LIBCMT:getqloc.obj
 0002:00027580       ??_C@_17GGDALCHA@?$AAc?$AAh?$AAi?$AA?$AA@ 0000000140171580     LIBCMT:getqloc.obj
 0002:00027588       ??_C@_1BA@NPNJKIBL@?$AAc?$AAh?$AAi?$AAn?$AAe?$AAs?$AAe?$AA?$AA@ 0000000140171588     LIBCMT:getqloc.obj
 0002:00027598       ??_C@_1CC@DINBAMMJ@?$AAc?$AAh?$AAi?$AAn?$AAe?$AAs?$AAe?$AA?9?$AAh?$AAo?$AAn?$AAg?$AAk?$AAo?$AAn?$AAg?$AA?$AA@ 0000000140171598     LIBCMT:getqloc.obj
 0002:000275c0       ??_C@_1CG@IOBJPACO@?$AAc?$AAh?$AAi?$AAn?$AAe?$AAs?$AAe?$AA?9?$AAs?$AAi?$AAm?$AAp?$AAl?$AAi?$AAf?$AAi?$AAe?$AAd?$AA?$AA@ 00000001401715c0     LIBCMT:getqloc.obj
 0002:000275e8       ??_C@_1CE@GAJNDCKG@?$AAc?$AAh?$AAi?$AAn?$AAe?$AAs?$AAe?$AA?9?$AAs?$AAi?$AAn?$AAg?$AAa?$AAp?$AAo?$AAr?$AAe?$AA?$AA@ 00000001401715e8     LIBCMT:getqloc.obj
 0002:00027610       ??_C@_1CI@PAJPIOOD@?$AAc?$AAh?$AAi?$AAn?$AAe?$AAs?$AAe?$AA?9?$AAt?$AAr?$AAa?$AAd?$AAi?$AAt?$AAi?$AAo?$AAn?$AAa?$AAl?$AA?$AA@ 0000000140171610     LIBCMT:getqloc.obj
 0002:00027638       ??_C@_1BM@NILJBMMD@?$AAd?$AAu?$AAt?$AAc?$AAh?$AA?9?$AAb?$AAe?$AAl?$AAg?$AAi?$AAa?$AAn?$AA?$AA@ 0000000140171638     LIBCMT:getqloc.obj
 0002:00027658       ??_C@_1CC@OOJPJNEJ@?$AAe?$AAn?$AAg?$AAl?$AAi?$AAs?$AAh?$AA?9?$AAa?$AAm?$AAe?$AAr?$AAi?$AAc?$AAa?$AAn?$AA?$AA@ 0000000140171658     LIBCMT:getqloc.obj
 0002:00027680       ??_C@_1BI@IOLFEEM@?$AAe?$AAn?$AAg?$AAl?$AAi?$AAs?$AAh?$AA?9?$AAa?$AAu?$AAs?$AA?$AA@ 0000000140171680     LIBCMT:getqloc.obj
 0002:00027698       ??_C@_1BO@HFFNLENJ@?$AAe?$AAn?$AAg?$AAl?$AAi?$AAs?$AAh?$AA?9?$AAb?$AAe?$AAl?$AAi?$AAz?$AAe?$AA?$AA@ 0000000140171698     LIBCMT:getqloc.obj
 0002:000276b8       ??_C@_1BI@HAPKJMPO@?$AAe?$AAn?$AAg?$AAl?$AAi?$AAs?$AAh?$AA?9?$AAc?$AAa?$AAn?$AA?$AA@ 00000001401716b8     LIBCMT:getqloc.obj
 0002:000276d0       ??_C@_1CE@HLNDMIOJ@?$AAe?$AAn?$AAg?$AAl?$AAi?$AAs?$AAh?$AA?9?$AAc?$AAa?$AAr?$AAi?$AAb?$AAb?$AAe?$AAa?$AAn?$AA?$AA@ 00000001401716d0     LIBCMT:getqloc.obj
 0002:000276f8       ??_C@_1BI@LDHJHHAC@?$AAe?$AAn?$AAg?$AAl?$AAi?$AAs?$AAh?$AA?9?$AAi?$AAr?$AAe?$AA?$AA@ 00000001401716f8     LIBCMT:getqloc.obj
 0002:00027710       ??_C@_1CA@NJMMCFOC@?$AAe?$AAn?$AAg?$AAl?$AAi?$AAs?$AAh?$AA?9?$AAj?$AAa?$AAm?$AAa?$AAi?$AAc?$AAa?$AA?$AA@ 0000000140171710     LIBCMT:getqloc.obj
 0002:00027730       ??_C@_1BG@BHJEBBGG@?$AAe?$AAn?$AAg?$AAl?$AAi?$AAs?$AAh?$AA?9?$AAn?$AAz?$AA?$AA@ 0000000140171730     LIBCMT:getqloc.obj
 0002:00027748       ??_C@_1CK@FGOEJJCO@?$AAe?$AAn?$AAg?$AAl?$AAi?$AAs?$AAh?$AA?9?$AAs?$AAo?$AAu?$AAt?$AAh?$AA?5?$AAa?$AAf?$AAr?$AAi?$AAc?$AAa?$AA?$AA@ 0000000140171748     LIBCMT:getqloc.obj
 0002:00027778       ??_C@_1DE@PDBJPCJ@?$AAe?$AAn?$AAg?$AAl?$AAi?$AAs?$AAh?$AA?9?$AAt?$AAr?$AAi?$AAn?$AAi?$AAd?$AAa?$AAd?$AA?5?$AAy?$AA?5?$AAt?$AAo?$AAb?$AAa?$AAg?$AAo?$AA?$AA@ 0000000140171778     LIBCMT:getqloc.obj
 0002:000277b0       ??_C@_1BG@JGCANDME@?$AAe?$AAn?$AAg?$AAl?$AAi?$AAs?$AAh?$AA?9?$AAu?$AAk?$AA?$AA@ 00000001401717b0     LIBCMT:getqloc.obj
 0002:000277c8       ??_C@_1BG@DINKMLE@?$AAe?$AAn?$AAg?$AAl?$AAi?$AAs?$AAh?$AA?9?$AAu?$AAs?$AA?$AA@ 00000001401717c8     LIBCMT:getqloc.obj
 0002:000277e0       ??_C@_1BI@NMFDBHJE@?$AAe?$AAn?$AAg?$AAl?$AAi?$AAs?$AAh?$AA?9?$AAu?$AAs?$AAa?$AA?$AA@ 00000001401717e0     LIBCMT:getqloc.obj
 0002:000277f8       ??_C@_1BO@OIHKJKII@?$AAf?$AAr?$AAe?$AAn?$AAc?$AAh?$AA?9?$AAb?$AAe?$AAl?$AAg?$AAi?$AAa?$AAn?$AA?$AA@ 00000001401717f8     LIBCMT:getqloc.obj
 0002:00027818       ??_C@_1CA@NKAELJKI@?$AAf?$AAr?$AAe?$AAn?$AAc?$AAh?$AA?9?$AAc?$AAa?$AAn?$AAa?$AAd?$AAi?$AAa?$AAn?$AA?$AA@ 0000000140171818     LIBCMT:getqloc.obj
 0002:00027838       ??_C@_1CE@MGKCNLGN@?$AAf?$AAr?$AAe?$AAn?$AAc?$AAh?$AA?9?$AAl?$AAu?$AAx?$AAe?$AAm?$AAb?$AAo?$AAu?$AAr?$AAg?$AA?$AA@ 0000000140171838     LIBCMT:getqloc.obj
 0002:00027860       ??_C@_1BK@CEGEAILM@?$AAf?$AAr?$AAe?$AAn?$AAc?$AAh?$AA?9?$AAs?$AAw?$AAi?$AAs?$AAs?$AA?$AA@ 0000000140171860     LIBCMT:getqloc.obj
 0002:00027880       ??_C@_1CA@PAFKEOCC@?$AAg?$AAe?$AAr?$AAm?$AAa?$AAn?$AA?9?$AAa?$AAu?$AAs?$AAt?$AAr?$AAi?$AAa?$AAn?$AA?$AA@ 0000000140171880     LIBCMT:getqloc.obj
 0002:000278a0       ??_C@_1CI@HCFHGOFD@?$AAg?$AAe?$AAr?$AAm?$AAa?$AAn?$AA?9?$AAl?$AAi?$AAc?$AAh?$AAt?$AAe?$AAn?$AAs?$AAt?$AAe?$AAi?$AAn?$AA?$AA@ 00000001401718a0     LIBCMT:getqloc.obj
 0002:000278c8       ??_C@_1CE@FEDDNPDG@?$AAg?$AAe?$AAr?$AAm?$AAa?$AAn?$AA?9?$AAl?$AAu?$AAx?$AAe?$AAm?$AAb?$AAo?$AAu?$AAr?$AAg?$AA?$AA@ 00000001401718c8     LIBCMT:getqloc.obj
 0002:000278f0       ??_C@_1BK@LIMINNMN@?$AAg?$AAe?$AAr?$AAm?$AAa?$AAn?$AA?9?$AAs?$AAw?$AAi?$AAs?$AAs?$AA?$AA@ 00000001401718f0     LIBCMT:getqloc.obj
 0002:00027910       ??_C@_1BM@LGMDBEPD@?$AAi?$AAr?$AAi?$AAs?$AAh?$AA?9?$AAe?$AAn?$AAg?$AAl?$AAi?$AAs?$AAh?$AA?$AA@ 0000000140171910     LIBCMT:getqloc.obj
 0002:00027930       ??_C@_1BM@NNCFBAEE@?$AAi?$AAt?$AAa?$AAl?$AAi?$AAa?$AAn?$AA?9?$AAs?$AAw?$AAi?$AAs?$AAs?$AA?$AA@ 0000000140171930     LIBCMT:getqloc.obj
 0002:00027950       ??_C@_1BE@FEDJNPIB@?$AAn?$AAo?$AAr?$AAw?$AAe?$AAg?$AAi?$AAa?$AAn?$AA?$AA@ 0000000140171950     LIBCMT:getqloc.obj
 0002:00027968       ??_C@_1CC@CILKDEIE@?$AAn?$AAo?$AAr?$AAw?$AAe?$AAg?$AAi?$AAa?$AAn?$AA?9?$AAb?$AAo?$AAk?$AAm?$AAa?$AAl?$AA?$AA@ 0000000140171968     LIBCMT:getqloc.obj
 0002:00027990       ??_C@_1CE@DHMMHEPL@?$AAn?$AAo?$AAr?$AAw?$AAe?$AAg?$AAi?$AAa?$AAn?$AA?9?$AAn?$AAy?$AAn?$AAo?$AAr?$AAs?$AAk?$AA?$AA@ 0000000140171990     LIBCMT:getqloc.obj
 0002:000279b8       ??_C@_1CK@OPNMHECD@?$AAp?$AAo?$AAr?$AAt?$AAu?$AAg?$AAu?$AAe?$AAs?$AAe?$AA?9?$AAb?$AAr?$AAa?$AAz?$AAi?$AAl?$AAi?$AAa?$AAn?$AA?$AA@ 00000001401719b8     LIBCMT:getqloc.obj
 0002:000279e8       ??_C@_1CE@KEEHCDB@?$AAs?$AAp?$AAa?$AAn?$AAi?$AAs?$AAh?$AA?9?$AAa?$AAr?$AAg?$AAe?$AAn?$AAt?$AAi?$AAn?$AAa?$AA?$AA@ 00000001401719e8     LIBCMT:getqloc.obj
 0002:00027a10       ??_C@_1CA@GIAOLHJD@?$AAs?$AAp?$AAa?$AAn?$AAi?$AAs?$AAh?$AA?9?$AAb?$AAo?$AAl?$AAi?$AAv?$AAi?$AAa?$AA?$AA@ 0000000140171a10     LIBCMT:getqloc.obj
 0002:00027a30       ??_C@_1BM@OJNDFNPD@?$AAs?$AAp?$AAa?$AAn?$AAi?$AAs?$AAh?$AA?9?$AAc?$AAh?$AAi?$AAl?$AAe?$AA?$AA@ 0000000140171a30     LIBCMT:getqloc.obj
 0002:00027a50       ??_C@_1CC@OCOLPALL@?$AAs?$AAp?$AAa?$AAn?$AAi?$AAs?$AAh?$AA?9?$AAc?$AAo?$AAl?$AAo?$AAm?$AAb?$AAi?$AAa?$AA?$AA@ 0000000140171a50     LIBCMT:getqloc.obj
 0002:00027a78       ??_C@_1CG@BPOFMKBB@?$AAs?$AAp?$AAa?$AAn?$AAi?$AAs?$AAh?$AA?9?$AAc?$AAo?$AAs?$AAt?$AAa?$AA?5?$AAr?$AAi?$AAc?$AAa?$AA?$AA@ 0000000140171a78     LIBCMT:getqloc.obj
 0002:00027aa0       ??_C@_1DG@IGOBAPBB@?$AAs?$AAp?$AAa?$AAn?$AAi?$AAs?$AAh?$AA?9?$AAd?$AAo?$AAm?$AAi?$AAn?$AAi?$AAc?$AAa?$AAn?$AA?5?$AAr?$AAe?$AAp?$AAu?$AAb?$AAl?$AAi?$AAc?$AA?$AA@ 0000000140171aa0     LIBCMT:getqloc.obj
 0002:00027ad8       ??_C@_1CA@JHAPGEGI@?$AAs?$AAp?$AAa?$AAn?$AAi?$AAs?$AAh?$AA?9?$AAe?$AAc?$AAu?$AAa?$AAd?$AAo?$AAr?$AA?$AA@ 0000000140171ad8     LIBCMT:getqloc.obj
 0002:00027af8       ??_C@_1CI@LAPALJPP@?$AAs?$AAp?$AAa?$AAn?$AAi?$AAs?$AAh?$AA?9?$AAe?$AAl?$AA?5?$AAs?$AAa?$AAl?$AAv?$AAa?$AAd?$AAo?$AAr?$AA?$AA@ 0000000140171af8     LIBCMT:getqloc.obj
 0002:00027b20       ??_C@_1CE@PDGBOFOM@?$AAs?$AAp?$AAa?$AAn?$AAi?$AAs?$AAh?$AA?9?$AAg?$AAu?$AAa?$AAt?$AAe?$AAm?$AAa?$AAl?$AAa?$AA?$AA@ 0000000140171b20     LIBCMT:getqloc.obj
 0002:00027b48       ??_C@_1CC@NBEBAODI@?$AAs?$AAp?$AAa?$AAn?$AAi?$AAs?$AAh?$AA?9?$AAh?$AAo?$AAn?$AAd?$AAu?$AAr?$AAa?$AAs?$AA?$AA@ 0000000140171b48     LIBCMT:getqloc.obj
 0002:00027b70       ??_C@_1CA@LLKGHBMF@?$AAs?$AAp?$AAa?$AAn?$AAi?$AAs?$AAh?$AA?9?$AAm?$AAe?$AAx?$AAi?$AAc?$AAa?$AAn?$AA?$AA@ 0000000140171b70     LIBCMT:getqloc.obj
 0002:00027b90       ??_C@_1BO@LKNDOIGD@?$AAs?$AAp?$AAa?$AAn?$AAi?$AAs?$AAh?$AA?9?$AAm?$AAo?$AAd?$AAe?$AAr?$AAn?$AA?$AA@ 0000000140171b90     LIBCMT:getqloc.obj
 0002:00027bb0       ??_C@_1CE@NMDMOEEB@?$AAs?$AAp?$AAa?$AAn?$AAi?$AAs?$AAh?$AA?9?$AAn?$AAi?$AAc?$AAa?$AAr?$AAa?$AAg?$AAu?$AAa?$AA?$AA@ 0000000140171bb0     LIBCMT:getqloc.obj
 0002:00027bd8       ??_C@_1BO@LLCBEJGB@?$AAs?$AAp?$AAa?$AAn?$AAi?$AAs?$AAh?$AA?9?$AAp?$AAa?$AAn?$AAa?$AAm?$AAa?$AA?$AA@ 0000000140171bd8     LIBCMT:getqloc.obj
 0002:00027bf8       ??_C@_1CC@FKPGGIHO@?$AAs?$AAp?$AAa?$AAn?$AAi?$AAs?$AAh?$AA?9?$AAp?$AAa?$AAr?$AAa?$AAg?$AAu?$AAa?$AAy?$AA?$AA@ 0000000140171bf8     LIBCMT:getqloc.obj
 0002:00027c20       ??_C@_1BK@CDEIHOOP@?$AAs?$AAp?$AAa?$AAn?$AAi?$AAs?$AAh?$AA?9?$AAp?$AAe?$AAr?$AAu?$AA?$AA@ 0000000140171c20     LIBCMT:getqloc.obj
 0002:00027c40       ??_C@_1CI@GAHAKKGP@?$AAs?$AAp?$AAa?$AAn?$AAi?$AAs?$AAh?$AA?9?$AAp?$AAu?$AAe?$AAr?$AAt?$AAo?$AA?5?$AAr?$AAi?$AAc?$AAo?$AA?$AA@ 0000000140171c40     LIBCMT:getqloc.obj
 0002:00027c68       ??_C@_1CA@NKJBCAGP@?$AAs?$AAp?$AAa?$AAn?$AAi?$AAs?$AAh?$AA?9?$AAu?$AAr?$AAu?$AAg?$AAu?$AAa?$AAy?$AA?$AA@ 0000000140171c68     LIBCMT:getqloc.obj
 0002:00027c88       ??_C@_1CE@ODILCONM@?$AAs?$AAp?$AAa?$AAn?$AAi?$AAs?$AAh?$AA?9?$AAv?$AAe?$AAn?$AAe?$AAz?$AAu?$AAe?$AAl?$AAa?$AA?$AA@ 0000000140171c88     LIBCMT:getqloc.obj
 0002:00027cb0       ??_C@_1CA@OBNMCGFO@?$AAs?$AAw?$AAe?$AAd?$AAi?$AAs?$AAh?$AA?9?$AAf?$AAi?$AAn?$AAl?$AAa?$AAn?$AAd?$AA?$AA@ 0000000140171cb0     LIBCMT:getqloc.obj
 0002:00027cd0       ??_C@_1M@PIPDDPPI@?$AAs?$AAw?$AAi?$AAs?$AAs?$AA?$AA@ 0000000140171cd0     LIBCMT:getqloc.obj
 0002:00027cdc       ??_C@_15GMFIMNFM@?$AAu?$AAs?$AA?$AA@ 0000000140171cdc     LIBCMT:getqloc.obj
 0002:00027ce8       ??_C@_17HAEBFAGL@?$AAu?$AAs?$AAa?$AA?$AA@ 0000000140171ce8     LIBCMT:getqloc.obj
 0002:00027cf0       __rg_country               0000000140171cf0     LIBCMT:getqloc.obj
 0002:00027e60       ??_C@_1BA@DPFJEPHB@?$AAa?$AAm?$AAe?$AAr?$AAi?$AAc?$AAa?$AA?$AA@ 0000000140171e60     LIBCMT:getqloc.obj
 0002:00027e70       ??_C@_1BA@ELOGGFK@?$AAb?$AAr?$AAi?$AAt?$AAa?$AAi?$AAn?$AA?$AA@ 0000000140171e70     LIBCMT:getqloc.obj
 0002:00027e80       ??_C@_1M@GHBGIGDA@?$AAc?$AAh?$AAi?$AAn?$AAa?$AA?$AA@ 0000000140171e80     LIBCMT:getqloc.obj
 0002:00027e90       ??_C@_1M@NCHEJOPO@?$AAc?$AAz?$AAe?$AAc?$AAh?$AA?$AA@ 0000000140171e90     LIBCMT:getqloc.obj
 0002:00027ea0       ??_C@_1BA@BKPAPBLA@?$AAe?$AAn?$AAg?$AAl?$AAa?$AAn?$AAd?$AA?$AA@ 0000000140171ea0     LIBCMT:getqloc.obj
 0002:00027eb0       ??_C@_1BM@HKBCKIPC@?$AAg?$AAr?$AAe?$AAa?$AAt?$AA?5?$AAb?$AAr?$AAi?$AAt?$AAa?$AAi?$AAn?$AA?$AA@ 0000000140171eb0     LIBCMT:getqloc.obj
 0002:00027ed0       ??_C@_1BA@PPCHPGJB@?$AAh?$AAo?$AAl?$AAl?$AAa?$AAn?$AAd?$AA?$AA@ 0000000140171ed0     LIBCMT:getqloc.obj
 0002:00027ee0       ??_C@_1BE@JBMPEGDG@?$AAh?$AAo?$AAn?$AAg?$AA?9?$AAk?$AAo?$AAn?$AAg?$AA?$AA@ 0000000140171ee0     LIBCMT:getqloc.obj
 0002:00027ef8       ??_C@_1BI@KOELBBPJ@?$AAn?$AAe?$AAw?$AA?9?$AAz?$AAe?$AAa?$AAl?$AAa?$AAn?$AAd?$AA?$AA@ 0000000140171ef8     LIBCMT:getqloc.obj
 0002:00027f10       ??_C@_15HIEBHAIO@?$AAn?$AAz?$AA?$AA@ 0000000140171f10     LIBCMT:getqloc.obj
 0002:00027f18       ??_C@_1BC@CHBCPFPI@?$AAp?$AAr?$AA?5?$AAc?$AAh?$AAi?$AAn?$AAa?$AA?$AA@ 0000000140171f18     LIBCMT:getqloc.obj
 0002:00027f30       ??_C@_1BC@JAOIIFKD@?$AAp?$AAr?$AA?9?$AAc?$AAh?$AAi?$AAn?$AAa?$AA?$AA@ 0000000140171f30     LIBCMT:getqloc.obj
 0002:00027f48       ??_C@_1BI@BEHPPHKC@?$AAp?$AAu?$AAe?$AAr?$AAt?$AAo?$AA?9?$AAr?$AAi?$AAc?$AAo?$AA?$AA@ 0000000140171f48     LIBCMT:getqloc.obj
 0002:00027f60       ??_C@_1O@PAEOFKDI@?$AAs?$AAl?$AAo?$AAv?$AAa?$AAk?$AA?$AA@ 0000000140171f60     LIBCMT:getqloc.obj
 0002:00027f70       ??_C@_1BK@FIHMCKAM@?$AAs?$AAo?$AAu?$AAt?$AAh?$AA?5?$AAa?$AAf?$AAr?$AAi?$AAc?$AAa?$AA?$AA@ 0000000140171f70     LIBCMT:getqloc.obj
 0002:00027f90       ??_C@_1BI@NAEOODKB@?$AAs?$AAo?$AAu?$AAt?$AAh?$AA?5?$AAk?$AAo?$AAr?$AAe?$AAa?$AA?$AA@ 0000000140171f90     LIBCMT:getqloc.obj
 0002:00027fa8       ??_C@_1BK@FBDGGIFF@?$AAs?$AAo?$AAu?$AAt?$AAh?$AA?9?$AAa?$AAf?$AAr?$AAi?$AAc?$AAa?$AA?$AA@ 0000000140171fa8     LIBCMT:getqloc.obj
 0002:00027fc8       ??_C@_1BI@GHLEJDPK@?$AAs?$AAo?$AAu?$AAt?$AAh?$AA?9?$AAk?$AAo?$AAr?$AAe?$AAa?$AA?$AA@ 0000000140171fc8     LIBCMT:getqloc.obj
 0002:00027fe0       ??_C@_1CE@PLHLOMJF@?$AAt?$AAr?$AAi?$AAn?$AAi?$AAd?$AAa?$AAd?$AA?5?$AA?$CG?$AA?5?$AAt?$AAo?$AAb?$AAa?$AAg?$AAo?$AA?$AA@ 0000000140171fe0     LIBCMT:getqloc.obj
 0002:00028008       ??_C@_1BO@MODIMHHI@?$AAu?$AAn?$AAi?$AAt?$AAe?$AAd?$AA?9?$AAk?$AAi?$AAn?$AAg?$AAd?$AAo?$AAm?$AA?$AA@ 0000000140172008     LIBCMT:getqloc.obj
 0002:00028028       ??_C@_1BM@FFHJONBJ@?$AAu?$AAn?$AAi?$AAt?$AAe?$AAd?$AA?9?$AAs?$AAt?$AAa?$AAt?$AAe?$AAs?$AA?$AA@ 0000000140172028     LIBCMT:getqloc.obj
 0002:00028044       __rg_language_count        0000000140172044     LIBCMT:getqloc.obj
 0002:00028048       __rg_country_count         0000000140172048     LIBCMT:getqloc.obj
 0002:00028050       ??_C@_17DNCLJFIF@?$AAA?$AAC?$AAP?$AA?$AA@ 0000000140172050     LIBCMT:getqloc.obj
 0002:00028058       ??_C@_17CIKBIHLH@?$AAO?$AAC?$AAP?$AA?$AA@ 0000000140172058     LIBCMT:getqloc.obj
 0002:00028060       __rglangidNotDefault       0000000140172060     LIBCMT:getqloc_downlevel.obj
 0002:00028080       __xmm@80000000000000008000000000000000 0000000140172080     LIBCMT:strtod.obj
 0002:00028090       ??_C@_1BA@BALFACEM@?$AAC?$AAO?$AAN?$AAO?$AAU?$AAT?$AA$?$AA?$AA@ 0000000140172090     LIBCMT:initcon.obj
 0002:000280a0       ??_C@_06PGGFOGJG@1?$CDSNAN?$AA@ 00000001401720a0     LIBCMT:x10fout.obj
 0002:000280a8       ??_C@_05PHHOCPM@1?$CDIND?$AA@ 00000001401720a8     LIBCMT:x10fout.obj
 0002:000280b0       ??_C@_05DNEBIAHO@1?$CDINF?$AA@ 00000001401720b0     LIBCMT:x10fout.obj
 0002:000280b8       ??_C@_06IMKFLFPG@1?$CDQNAN?$AA@ 00000001401720b8     LIBCMT:x10fout.obj
 0002:00028280       ??_C@_0N@A@GENERIC_IA32?$AA@ 0000000140172280     libirc:new_proc_init.obj
 0002:00028290       ??_C@_03A@X87?$AA@         0000000140172290     libirc:new_proc_init.obj
 0002:00028294       ??_C@_04A@CMOV?$AA@        0000000140172294     libirc:new_proc_init.obj
 0002:0002829c       ??_C@_03A@MMX?$AA@         000000014017229c     libirc:new_proc_init.obj
 0002:000282a0       ??_C@_06A@FXSAVE?$AA@      00000001401722a0     libirc:new_proc_init.obj
 0002:000282a8       ??_C@_03A@SSE?$AA@         00000001401722a8     libirc:new_proc_init.obj
 0002:000282ac       ??_C@_04A@SSE2?$AA@        00000001401722ac     libirc:new_proc_init.obj
 0002:000282b4       ??_C@_04A@SSE3?$AA@        00000001401722b4     libirc:new_proc_init.obj
 0002:000282bc       ??_C@_05A@SSSE3?$AA@       00000001401722bc     libirc:new_proc_init.obj
 0002:000282c4       ??_C@_06A@SSE4_1?$AA@      00000001401722c4     libirc:new_proc_init.obj
 0002:000282cc       ??_C@_06A@SSE4_2?$AA@      00000001401722cc     libirc:new_proc_init.obj
 0002:000282d4       ??_C@_05A@MOVBE?$AA@       00000001401722d4     libirc:new_proc_init.obj
 0002:000282dc       ??_C@_06A@POPCNT?$AA@      00000001401722dc     libirc:new_proc_init.obj
 0002:000282e4       ??_C@_09A@PCLMULQDQ?$AA@   00000001401722e4     libirc:new_proc_init.obj
 0002:000282f0       ??_C@_03A@AES?$AA@         00000001401722f0     libirc:new_proc_init.obj
 0002:000282f4       ??_C@_04A@F16C?$AA@        00000001401722f4     libirc:new_proc_init.obj
 0002:000282fc       ??_C@_03A@AVX?$AA@         00000001401722fc     libirc:new_proc_init.obj
 0002:00028300       ??_C@_05A@RDRND?$AA@       0000000140172300     libirc:new_proc_init.obj
 0002:00028308       ??_C@_03A@FMA?$AA@         0000000140172308     libirc:new_proc_init.obj
 0002:0002830c       ??_C@_03A@BMI?$AA@         000000014017230c     libirc:new_proc_init.obj
 0002:00028310       ??_C@_05A@LZCNT?$AA@       0000000140172310     libirc:new_proc_init.obj
 0002:00028318       ??_C@_03A@HLE?$AA@         0000000140172318     libirc:new_proc_init.obj
 0002:0002831c       ??_C@_03A@RTM?$AA@         000000014017231c     libirc:new_proc_init.obj
 0002:00028320       ??_C@_04A@AVX2?$AA@        0000000140172320     libirc:new_proc_init.obj
 0002:00028328       ??_C@_08A@AVX512DQ?$AA@    0000000140172328     libirc:new_proc_init.obj
 0002:00028334       ??_C@_05A@KNCNI?$AA@       0000000140172334     libirc:new_proc_init.obj
 0002:0002833c       ??_C@_07A@AVX512F?$AA@     000000014017233c     libirc:new_proc_init.obj
 0002:00028344       ??_C@_03A@ADX?$AA@         0000000140172344     libirc:new_proc_init.obj
 0002:00028348       ??_C@_06A@RDSEED?$AA@      0000000140172348     libirc:new_proc_init.obj
 0002:00028350       ??_C@_0N@A@AVX512IFMA52?$AA@ 0000000140172350     libirc:new_proc_init.obj
 0002:00028360       ??_C@_0BI@A@FULLY?5INORDER?5PROCESSOR?$AA@ 0000000140172360     libirc:new_proc_init.obj
 0002:00028378       ??_C@_08A@AVX512ER?$AA@    0000000140172378     libirc:new_proc_init.obj
 0002:00028384       ??_C@_08A@AVX512PF?$AA@    0000000140172384     libirc:new_proc_init.obj
 0002:00028390       ??_C@_08A@AVX512CD?$AA@    0000000140172390     libirc:new_proc_init.obj
 0002:0002839c       ??_C@_03A@SHA?$AA@         000000014017239c     libirc:new_proc_init.obj
 0002:000283a0       ??_C@_03A@MPX?$AA@         00000001401723a0     libirc:new_proc_init.obj
 0002:000283a4       ??_C@_08A@AVX512BW?$AA@    00000001401723a4     libirc:new_proc_init.obj
 0002:000283b0       ??_C@_08A@AVX512VL?$AA@    00000001401723b0     libirc:new_proc_init.obj
 0002:000283bc       ??_C@_0L@A@AVX512VBMI?$AA@ 00000001401723bc     libirc:new_proc_init.obj
 0002:000283c8       ??_C@_0O@A@AVX512_4FMAPS?$AA@ 00000001401723c8     libirc:new_proc_init.obj
 0002:000283d8       ??_C@_0O@A@AVX512_4VNNIW?$AA@ 00000001401723d8     libirc:new_proc_init.obj
 0002:000283e8       ??_C@_0BB@A@AVX512_VPOPCNTDQ?$AA@ 00000001401723e8     libirc:new_proc_init.obj
 0002:000283fc       ??_C@_02A@?0?5?$AA@        00000001401723fc     libirc:new_proc_init.obj
 0002:00028400       ??_C@_06A@?$CDdummy?$AA@   0000000140172400     libirc:intel_lib_vs_wrappers_init.obj
 0002:00028408       ??_C@_07A@?$CDprintf?$AA@  0000000140172408     libirc:intel_lib_vs_wrappers_init.obj
 0002:00028410       ??_C@_09A@?$CDprintf_s?$AA@ 0000000140172410     libirc:intel_lib_vs_wrappers_init.obj
 0002:0002841c       ??_C@_0M@A@?$CD__iob_func?$AA@ 000000014017241c     libirc:intel_lib_vs_wrappers_init.obj
 0002:00028428       ??_C@_07A@?$CDfclose?$AA@  0000000140172428     libirc:intel_lib_vs_wrappers_init.obj
 0002:00028430       ??_C@_07A@?$CDfflush?$AA@  0000000140172430     libirc:intel_lib_vs_wrappers_init.obj
 0002:00028438       ??_C@_06A@?$CDfopen?$AA@   0000000140172438     libirc:intel_lib_vs_wrappers_init.obj
 0002:00028440       ??_C@_08A@?$CDfopen_s?$AA@ 0000000140172440     libirc:intel_lib_vs_wrappers_init.obj
 0002:0002844c       ??_C@_08A@?$CDfprintf?$AA@ 000000014017244c     libirc:intel_lib_vs_wrappers_init.obj
 0002:00028458       ??_C@_0L@A@?$CDfprintf_s?$AA@ 0000000140172458     libirc:intel_lib_vs_wrappers_init.obj
 0002:00028464       ??_C@_09A@?$CDfwprintf?$AA@ 0000000140172464     libirc:intel_lib_vs_wrappers_init.obj
 0002:00028470       ??_C@_0M@A@?$CDfwprintf_s?$AA@ 0000000140172470     libirc:intel_lib_vs_wrappers_init.obj
 0002:0002847c       ??_C@_0L@A@?$CD_snprintf?$AA@ 000000014017247c     libirc:intel_lib_vs_wrappers_init.obj
 0002:00028488       ??_C@_0N@A@?$CD_snprintf_s?$AA@ 0000000140172488     libirc:intel_lib_vs_wrappers_init.obj
 0002:00028498       ??_C@_08A@?$CDsprintf?$AA@ 0000000140172498     libirc:intel_lib_vs_wrappers_init.obj
 0002:000284a4       ??_C@_0L@A@?$CDsprintf_s?$AA@ 00000001401724a4     libirc:intel_lib_vs_wrappers_init.obj
 0002:000284b0       ??_C@_07A@?$CDsscanf?$AA@  00000001401724b0     libirc:intel_lib_vs_wrappers_init.obj
 0002:000284b8       ??_C@_09A@?$CDsscanf_s?$AA@ 00000001401724b8     libirc:intel_lib_vs_wrappers_init.obj
 0002:000284c4       ??_C@_0M@A@?$CDswprintf_s?$AA@ 00000001401724c4     libirc:intel_lib_vs_wrappers_init.obj
 0002:000284d0       ??_C@_09A@?$CDvfprintf?$AA@ 00000001401724d0     libirc:intel_lib_vs_wrappers_init.obj
 0002:000284dc       ??_C@_0M@A@?$CDvfprintf_s?$AA@ 00000001401724dc     libirc:intel_lib_vs_wrappers_init.obj
 0002:000284e8       ??_C@_08A@?$CDvprintf?$AA@ 00000001401724e8     libirc:intel_lib_vs_wrappers_init.obj
 0002:000284f4       ??_C@_0L@A@?$CDvprintf_s?$AA@ 00000001401724f4     libirc:intel_lib_vs_wrappers_init.obj
 0002:00028500       ??_C@_0M@A@?$CD_vscprintf?$AA@ 0000000140172500     libirc:intel_lib_vs_wrappers_init.obj
 0002:0002850c       ??_C@_09A@?$CDvsprintf?$AA@ 000000014017250c     libirc:intel_lib_vs_wrappers_init.obj
 0002:00028518       ??_C@_0M@A@?$CDvsprintf_s?$AA@ 0000000140172518     libirc:intel_lib_vs_wrappers_init.obj
 0002:00028524       ??_C@_0M@A@?$CD_vsnprintf?$AA@ 0000000140172524     libirc:intel_lib_vs_wrappers_init.obj
 0002:00028530       ??_C@_0O@A@?$CD_vsnprintf_s?$AA@ 0000000140172530     libirc:intel_lib_vs_wrappers_init.obj
 0002:00028540       ??_C@_0L@A@?$CDvswprintf?$AA@ 0000000140172540     libirc:intel_lib_vs_wrappers_init.obj
 0002:0002854c       ??_C@_08A@?$CDwprintf?$AA@ 000000014017254c     libirc:intel_lib_vs_wrappers_init.obj
 0002:00028558       ??_C@_0L@A@?$CDwprintf_s?$AA@ 0000000140172558     libirc:intel_lib_vs_wrappers_init.obj
 0002:00028564       ??_C@_08A@?$CD_wfopen?$AA@ 0000000140172564     libirc:intel_lib_vs_wrappers_init.obj
 0002:00028570       ??_C@_0L@A@?$CD_wfopen_s?$AA@ 0000000140172570     libirc:intel_lib_vs_wrappers_init.obj
 0002:0002857c       ??_C@_06A@?$CDfread?$AA@   000000014017257c     libirc:intel_lib_vs_wrappers_init.obj
 0002:00028584       ??_C@_07A@?$CDfwrite?$AA@  0000000140172584     libirc:intel_lib_vs_wrappers_init.obj
 0002:0002858c       ??_C@_06A@?$CDfgets?$AA@   000000014017258c     libirc:intel_lib_vs_wrappers_init.obj
 0002:00028594       ??_C@_07A@?$CDfgetws?$AA@  0000000140172594     libirc:intel_lib_vs_wrappers_init.obj
 0002:0002859c       ??_C@_06A@?$CDfgetc?$AA@   000000014017259c     libirc:intel_lib_vs_wrappers_init.obj
 0002:000285a4       ??_C@_07A@?$CDfgetwc?$AA@  00000001401725a4     libirc:intel_lib_vs_wrappers_init.obj
 0002:000285ac       ??_C@_06A@?$CDfputs?$AA@   00000001401725ac     libirc:intel_lib_vs_wrappers_init.obj
 0002:000285b4       ??_C@_07A@?$CDfputws?$AA@  00000001401725b4     libirc:intel_lib_vs_wrappers_init.obj
 0002:000285bc       ??_C@_06A@?$CDfputc?$AA@   00000001401725bc     libirc:intel_lib_vs_wrappers_init.obj
 0002:000285c4       ??_C@_07A@?$CDfputwc?$AA@  00000001401725c4     libirc:intel_lib_vs_wrappers_init.obj
 0002:000285cc       ??_C@_06A@?$CDftell?$AA@   00000001401725cc     libirc:intel_lib_vs_wrappers_init.obj
 0002:000285d4       ??_C@_07A@?$CDferror?$AA@  00000001401725d4     libirc:intel_lib_vs_wrappers_init.obj
 0002:000285dc       ??_C@_08A@?$CDfreopen?$AA@ 00000001401725dc     libirc:intel_lib_vs_wrappers_init.obj
 0002:000285e8       ??_C@_0L@A@?$CDfreopen_s?$AA@ 00000001401725e8     libirc:intel_lib_vs_wrappers_init.obj
 0002:000285f4       ??_C@_0L@A@?$CD_wfreopen?$AA@ 00000001401725f4     libirc:intel_lib_vs_wrappers_init.obj
 0002:00028600       ??_C@_07A@?$CDperror?$AA@  0000000140172600     libirc:intel_lib_vs_wrappers_init.obj
 0002:00028608       ??_C@_07A@?$CD_errno?$AA@  0000000140172608     libirc:intel_lib_vs_wrappers_init.obj
 0002:00028610       ??_C@_0BB@A@?$CD__acrt_iob_func?$AA@ 0000000140172610     libirc:intel_lib_vs_wrappers_init.obj
 0002:00028624       ??_C@_0BJ@A@?$CD__stdio_common_vfprintf?$AA@ 0000000140172624     libirc:intel_lib_vs_wrappers_init.obj
 0002:00028640       ??_C@_0BK@A@?$CD__stdio_common_vfwprintf?$AA@ 0000000140172640     libirc:intel_lib_vs_wrappers_init.obj
 0002:0002865c       ??_C@_0BJ@A@?$CD__stdio_common_vsprintf?$AA@ 000000014017265c     libirc:intel_lib_vs_wrappers_init.obj
 0002:00028678       ??_C@_0BK@A@?$CD__stdio_common_vswprintf?$AA@ 0000000140172678     libirc:intel_lib_vs_wrappers_init.obj
 0002:00028694       ??_C@_0BI@A@?$CD__stdio_common_vsscanf?$AA@ 0000000140172694     libirc:intel_lib_vs_wrappers_init.obj
 0002:000286ac       ??_C@_0N@A@ucrtbase?4dll?$AA@ 00000001401726ac     libirc:intel_lib_vs_wrappers_init.obj
 0002:000286bc       ??_C@_0L@A@msvcrt?4dll?$AA@ 00000001401726bc     libirc:intel_lib_vs_wrappers_init.obj
 0002:000286c8       ??_C@_0L@A@SYSTEMROOT?$AA@ 00000001401726c8     libirc:intel_lib_vs_wrappers_init.obj
 0002:000286d4       ??_C@_0L@A@?2system32?2?$AA@ 00000001401726d4     libirc:intel_lib_vs_wrappers_init.obj
 0002:000288d0       ??_C@_0CF@A@?6Stack?5trace?5terminated?5abnormally?4?6?$AA@ 00000001401728d0     libirc:tbk_display.obj
 0002:000288f8       ??_C@_0DJ@A@?6Stack?5trace?5buffer?5overflow?$DL?5further?5frames?5not?5shown?4?6?$AA@ 00000001401728f8     libirc:tbk_display.obj
 0002:00028934       ??_C@_0N@A@AddrMode1616?$AA@ 0000000140172934     libirc:tbk_display.obj
 0002:00028944       ??_C@_0N@A@AddrMode1632?$AA@ 0000000140172944     libirc:tbk_display.obj
 0002:00028954       ??_C@_0N@A@AddrModeReal?$AA@ 0000000140172954     libirc:tbk_display.obj
 0002:00028964       ??_C@_0N@A@AddrModeFlat?$AA@ 0000000140172964     libirc:tbk_display.obj
 0002:00028974       ??_C@_0CK@A@?$CF?919?419s?$CF?918?418s?$CF?919?419s?$CF?912?412s?$CF?919?419s?6?$AA@ 0000000140172974     libirc:tbk_display.obj
 0002:000289a0       ??_C@_05A@Image?$AA@       00000001401729a0     libirc:tbk_display.obj
 0002:000289a8       ??_C@_02A@PC?$AA@          00000001401729a8     libirc:tbk_display.obj
 0002:000289ac       ??_C@_07A@Routine?$AA@     00000001401729ac     libirc:tbk_display.obj
 0002:000289b4       ??_C@_04A@Line?$AA@        00000001401729b4     libirc:tbk_display.obj
 0002:000289bc       ??_C@_06A@Source?$AA@      00000001401729bc     libirc:tbk_display.obj
 0002:000289c4       ??_C@_0DC@A@?6?6Traceback?5symbolic?5or?5hex?5stack?5dump?5follows?3?6?6?$AA@ 00000001401729c4     libirc:tbk_display.obj
 0002:000289f8       ??_C@_0CN@A@?$CF?917?417s?5?5?$CF16?416I64X?5?5?$CF?917?417s?5?5?$CF10?410s?5?5?$CFs?6?$AA@ 00000001401729f8     libirc:tbk_display.obj
 0002:00028a40       ??_C@_0BDM@A@?9?9?9?9?9?9?9?9?9?5Frame?5?$CD?5?$CFs?5?9?9?9?9?9?9?9?9?9?9?9?9?9?9?9?9?9?9?9?9?9?9?9?9?9?9?9?9?9?9?9?9?9?9?9?9?9?9?9?6?6Image?3?5?5?5?5?5?5?5?5?5?$CFs?6PC?3?5?5?5?5?5?5?5?5?5?5?5?5?$CF16?416I64X?6Routine?5name?3?5?5?$CFs?6Source?5file?3?5?5?5?$CFs?6Line?5number?3?5?5?5?$CFs?6?6?$CFs?$CFs?$CF16?416I64X?$CFs?$CF4?44lX?$CFs?$CFs?6?$CFs?$CF16?416I64X?$CFs?$CF4?44lX?$CFs?$CFs?6?$CFs?$CF16?416I64X?$CFs?$CF4?44lX?$CFs?$CFs?6?$CFs?$CF16?416I64X?$CFs?$CF4?44lX?$CFs?$CFs?6?6?$CFs?$CF16?416I64X?$CFs?$CF16?416I64X?6?$CFs?$CF16?416I64X?$CFs?$CF16?416I64X?6?6?$AA@ 0000000140172a40     libirc:tbk_display.obj
 0002:00028b80       ??_C@_0BL@A@Info?5from?5StackFrame?5is?3?6?6?$AA@ 0000000140172b80     libirc:tbk_display.obj
 0002:00028b9c       ??_C@_0BC@A@PC?4Offset?3?5?5?5?5?5?5?5?$AA@ 0000000140172b9c     libirc:tbk_display.obj
 0002:00028bb0       ??_C@_0BF@A@?5?5PC?4Segment?3?5?5?5?5?5?5?5?$AA@ 0000000140172bb0     libirc:tbk_display.obj
 0002:00028bc8       ??_C@_0BC@A@?5?5PC?4Mode?3?5?5?5?5?5?5?5?$AA@ 0000000140172bc8     libirc:tbk_display.obj
 0002:00028bdc       ??_C@_0BC@A@Return?4Offset?3?5?5?5?$AA@ 0000000140172bdc     libirc:tbk_display.obj
 0002:00028bf0       ??_C@_0BF@A@?5?5Return?4Segment?3?5?5?5?$AA@ 0000000140172bf0     libirc:tbk_display.obj
 0002:00028c08       ??_C@_0BC@A@?5?5Return?4Mode?3?5?5?5?$AA@ 0000000140172c08     libirc:tbk_display.obj
 0002:00028c1c       ??_C@_0BC@A@Frame?4Offset?3?5?5?5?5?$AA@ 0000000140172c1c     libirc:tbk_display.obj
 0002:00028c30       ??_C@_0BF@A@?5?5Frame?4Segment?3?5?5?5?5?$AA@ 0000000140172c30     libirc:tbk_display.obj
 0002:00028c48       ??_C@_0BC@A@?5?5Frame?4Mode?3?5?5?5?5?$AA@ 0000000140172c48     libirc:tbk_display.obj
 0002:00028c5c       ??_C@_0BC@A@Stack?4Offset?3?5?5?5?5?$AA@ 0000000140172c5c     libirc:tbk_display.obj
 0002:00028c70       ??_C@_0BF@A@?5?5Stack?4Segment?3?5?5?5?5?$AA@ 0000000140172c70     libirc:tbk_display.obj
 0002:00028c88       ??_C@_0BC@A@?5?5Stack?4Mode?3?5?5?5?5?$AA@ 0000000140172c88     libirc:tbk_display.obj
 0002:00028c9c       ??_C@_0BC@A@Params?$FL0?$FN?3?5?5?5?5?5?5?5?$AA@ 0000000140172c9c     libirc:tbk_display.obj
 0002:00028cb0       ??_C@_0BA@A@?5?5Params?$FL1?$FN?3?5?5?5?$AA@ 0000000140172cb0     libirc:tbk_display.obj
 0002:00028cc0       ??_C@_0BC@A@Params?$FL2?$FN?3?5?5?5?5?5?5?5?$AA@ 0000000140172cc0     libirc:tbk_display.obj
 0002:00028cd4       ??_C@_0BA@A@?5?5Params?$FL3?$FN?3?5?5?5?$AA@ 0000000140172cd4     libirc:tbk_display.obj
 0002:000290e0       ??_C@_0CO@A@Constant?5propagation?5error?5?$CI?$CFs?5substitution?$CJ?3?$AA@ 00000001401730e0     libirc:irc_msg_support.obj
 0002:00029110       ??_C@_06A@FORMAL?$AA@      0000000140173110     libirc:irc_msg_support.obj
 0002:00029118       ??_C@_06A@RETURN?$AA@      0000000140173118     libirc:irc_msg_support.obj
 0002:00029120       ??_C@_06A@GLOBAL?$AA@      0000000140173120     libirc:irc_msg_support.obj
 0002:00029128       ??_C@_0BA@A@?7I32?5?$CFlx?5?$CB?$DN?5?$CFlx?$AA@ 0000000140173128     libirc:irc_msg_support.obj
 0002:00029138       ??_C@_0BB@A@?7SI32?5?$CFld?5?$CB?$DN?5?$CFld?$AA@ 0000000140173138     libirc:irc_msg_support.obj
 0002:0002914c       ??_C@_0O@A@?7F32?5?$CFf?5?$CB?$DN?5?$CFf?$AA@ 000000014017314c     libirc:irc_msg_support.obj
 0002:0002915c       ??_C@_0BI@A@?7I64?5?$CFlx?3?$CFlx?5?$CB?$DN?5?$CFlx?3?$CFlx?$AA@ 000000014017315c     libirc:irc_msg_support.obj
 0002:00029174       ??_C@_0BJ@A@?7SI64?5?$CFld?3?$CFld?5?$CB?$DN?5?$CFld?3?$CFld?$AA@ 0000000140173174     libirc:irc_msg_support.obj
 0002:00029190       ??_C@_0O@A@?7F64?5?$CFf?5?$CB?$DN?5?$CFf?$AA@ 0000000140173190     libirc:irc_msg_support.obj
 0002:000291a0       ??_C@_0BE@A@Bad?5second?5argument?$AA@ 00000001401731a0     libirc:irc_msg_support.obj
 0002:000291b4       ??_C@_0CH@A@Fatal?5Error?3?5Can?5not?5initiate?5the?5Heap?$AA@ 00000001401731b4     libirc:irc_msg_support.obj
 0002:000291dc       ??_C@_0CB@A@Usage?3?5?$CFs?5input_file?5output_file?$AA@ 00000001401731dc     libirc:irc_msg_support.obj
 0002:00029200       ??_C@_0CL@A@Usage?3?5?$CFs?5segment_size?5input_file?5?$FL?9trace?$FN?$AA@ 0000000140173200     libirc:irc_msg_support.obj
 0002:0002922c       ??_C@_0DE@A@Conversion?5from?5text?5file?5?$CFs?5to?5binary?5?$CFs?5completed?$AA@ 000000014017322c     libirc:irc_msg_support.obj
 0002:00029260       ??_C@_0BJ@A@segment_size?5?$DN?50x?$CFx?5?$DN?5?$CFd?$AA@ 0000000140173260     libirc:irc_msg_support.obj
 0002:0002927c       ??_C@_0DF@A@Cannot?5allocate?5memory?5to?5hold?5segment?5?$CIsize?5?$DN?50x?$CFx?$CJ?$AA@ 000000014017327c     libirc:irc_msg_support.obj
 0002:000292b4       ??_C@_0BJ@A@Input?5file?3?5?$CFs?5corrupted?$AA@ 00000001401732b4     libirc:irc_msg_support.obj
 0002:000292d0       ??_C@_0BE@A@routine_name?5?$DN?5?8?$CFs?8?$AA@ 00000001401732d0     libirc:irc_msg_support.obj
 0002:000292e4       ??_C@_0BE@A@file_name?5?5?5?5?$DN?5?8?$CFs?8?$AA@ 00000001401732e4     libirc:irc_msg_support.obj
 0002:000292f8       ??_C@_0BE@A@prof_dir?5?5?5?5?5?$DN?5?8?$CFs?8?$AA@ 00000001401732f8     libirc:irc_msg_support.obj
 0002:0002930c       ??_C@_0CP@A@Dynamic?5profile?5created?5from?5file?5?$CFs?5completed?$AA@ 000000014017330c     libirc:irc_msg_support.obj
 0002:00029340       ??_C@_0FA@A@Fatal?5Error?3?5This?5program?5was?5not?5built?5to?5run?5on?5the?5processor?5in?5your?5system?4?$AA@ 0000000140173340     libirc:irc_msg_support.obj
 0002:000293a0       ??_C@_0CA@A@The?5allowed?5processors?5are?3?5?$CFs?4?$AA@ 00000001401733a0     libirc:irc_msg_support.obj
 0002:000293c0       ??_C@_0FC@A@Run?9Time?5Check?5Failure?3?5The?5variable?5?8?$CFs?8?5is?5being?5used?5without?5being?5initialized?$AA@ 00000001401733c0     libirc:irc_msg_support.obj
 0002:00029420       ??_C@_0CN@A@Error?3?5?5Buffer?5overrun?5occurred?0?5forced?5exit?$AA@ 0000000140173420     libirc:irc_msg_support.obj
 0002:00029450       ??_C@_0DH@A@Initialization?5of?5symbol?5handler?5failed?4?5Error?5code?5?$CFd?$AA@ 0000000140173450     libirc:irc_msg_support.obj
 0002:00029488       ??_C@_0BH@A@NTDLL?5module?5not?5found?$AA@ 0000000140173488     libirc:irc_msg_support.obj
 0002:000294a0       ??_C@_0DC@A@RtlCaptureContext?5function?5not?5found?5in?5ntdll?4dll?$AA@ 00000001401734a0     libirc:irc_msg_support.obj
 0002:000294e0       ??_C@_0EB@A@?5Windows?5XP?564?9bit?5Edition?5Version?52003?5or?5newer?5should?5be?5used?4?$AA@ 00000001401734e0     libirc:irc_msg_support.obj
 0002:00029540       ??_C@_0DC@A@StackWalk?5is?5terminated?5abnormally?4?5Error?5code?5?$CFd?$AA@ 0000000140173540     libirc:irc_msg_support.obj
 0002:00029574       ??_C@_0CJ@A@Exception?5is?5raised?5during?5stack?5walking?$AA@ 0000000140173574     libirc:irc_msg_support.obj
 0002:000295a0       ??_C@_0BE@A@Signal?5?$CFs?5is?5raised?$AA@ 00000001401735a0     libirc:irc_msg_support.obj
 0002:000295b4       ??_C@_0BM@A@Signal?5?$CFs?5is?5raised?5at?50x?$CFp?$AA@ 00000001401735b4     libirc:irc_msg_support.obj
 0002:000295d0       ??_C@_07A@SIGSEGV?$AA@     00000001401735d0     libirc:irc_msg_support.obj
 0002:000295d8       ??_C@_06A@SIGILL?$AA@      00000001401735d8     libirc:irc_msg_support.obj
 0002:000295e0       ??_C@_06A@SIGBUS?$AA@      00000001401735e0     libirc:irc_msg_support.obj
 0002:000295e8       ??_C@_06A@SIGFPE?$AA@      00000001401735e8     libirc:irc_msg_support.obj
 0002:000295f0       ??_C@_0DM@A@You?5must?5link?5with?5libunwind?5to?5use?5traceback?5functionality?$AA@ 00000001401735f0     libirc:irc_msg_support.obj
 0002:00029640       ??_C@_0IL@A@Intel?$CIR?$CJ?5Core?$CITM?$CJ?5Duo?5processors?5and?5compatible?5Intel?5processors?5with?5supplemental?5Streaming?5SIMD?5Extensions?53?5?$CISSSE3?$CJ?5instruction?5support?$AA@ 0000000140173640     libirc:irc_msg_support.obj
 0002:000296e0       ??_C@_0IE@A@Intel?$CIR?$CJ?5Pentium?$CIR?$CJ?54?5and?5compatible?5Intel?5processors?5with?5Intel?$CIR?$CJ?5Streaming?5SIMD?5Extensions?53?5?$CIIntel?$CIR?$CJ?5SSE3?$CJ?5instruction?5support?$AA@ 00000001401736e0     libirc:irc_msg_support.obj
 0002:00029780       ??_C@_0DG@A@Intel?$CIR?$CJ?5Pentium?$CIR?$CJ?5M?5and?5compatible?5Intel?5processors?$AA@ 0000000140173780     libirc:irc_msg_support.obj
 0002:000297c0       ??_C@_0IH@A@Intel?$CIR?$CJ?5Pentium?$CIR?$CJ?54?5and?5compatible?5Intel?5processors?4?5Enables?5new?5optimizations?5in?5addition?5to?5Intel?5processor?9specific?5optimizations?$AA@ 00000001401737c0     libirc:irc_msg_support.obj
 0002:00029860       ??_C@_0DI@A@Intel?$CIR?$CJ?5processors?5with?5Swing?5New?5Instructions?5support?$AA@ 0000000140173860     libirc:irc_msg_support.obj
 0002:000298a0       ??_C@_0EA@A@Intel?$CIR?$CJ?5processors?5with?5SSE4?42?5and?5POPCNT?5instructions?5support?$AA@ 00000001401738a0     libirc:irc_msg_support.obj
 0002:000298e0       ??_C@_0DE@A@Intel?$CIR?$CJ?5processors?5with?5MOVBE?5instructions?5support?$AA@ 00000001401738e0     libirc:irc_msg_support.obj
 0002:00029914       ??_C@_0DP@A@Fatal?5Error?3?5This?5program?5was?5not?5built?5to?5run?5in?5your?5system?4?$AA@ 0000000140173914     libirc:irc_msg_support.obj
 0002:00029960       ??_C@_0FF@A@Please?5verify?5that?5both?5the?5operating?5system?5and?5the?5processor?5support?5Intel?$CIR?$CJ?5AVX?4?$AA@ 0000000140173960     libirc:irc_msg_support.obj
 0002:000299c0       ??_C@_0HD@A@Please?5verify?5that?5both?5the?5operating?5system?5and?5the?5processor?5support?5Intel?$CIR?$CJ?5AVX?0?5F16C?5and?5RDRAND?5instructions?4?$AA@ 00000001401739c0     libirc:irc_msg_support.obj
 0002:00029a40       ??_C@_0IB@A@Please?5verify?5that?5both?5the?5operating?5system?5and?5the?5processor?5support?5Intel?$CIR?$CJ?5AVX2?0?5BMI?0?5LZCNT?0?5HLE?0?5RTM?5and?5FMA?5instructions?4?$AA@ 0000000140173a40     libirc:irc_msg_support.obj
 0002:00029ae0       ??_C@_0DC@A@Boundary?5Run?9Time?5Check?5Failure?5for?5variable?5?8?$CFs?8?$AA@ 0000000140173ae0     libirc:irc_msg_support.obj
 0002:00029b14       ??_C@_0CA@A@Boundary?5Run?9Time?5Check?5Failure?$AA@ 0000000140173b14     libirc:irc_msg_support.obj
 0002:00029b34       ??_C@_0CC@A@Conversion?5Run?9Time?5Check?5Failure?$AA@ 0000000140173b34     libirc:irc_msg_support.obj
 0002:00029b60       ??_C@_0GB@A@Please?5verify?5that?5both?5the?5operating?5system?5and?5the?5processor?5support?5Intel?$CIR?$CJ?5?$CFs?5instructions?4?$AA@ 0000000140173b60     libirc:irc_msg_support.obj
 0002:00029be0       ??_C@_05A@?5and?5?$AA@     0000000140173be0     libirc:irc_msg_support.obj
 0002:00029c00       ??_C@_0FG@A@Please?5verify?5that?5your?5application?5was?5built?5with?5compatible?5Intel?$CIR?$CJ?5libirc?5library?$AA@ 0000000140173c00     libirc:irc_msg_support.obj
 0002:00029c60       ??_C@_0EH@A@Use?5of?5incompatible?5or?5internally?5inconsistent?5Intel?$CIR?$CJ?5libirc?5library?$AA@ 0000000140173c60     libirc:irc_msg_support.obj
 0002:00029cc0       ??_C@_0FI@A@Run?9Time?5Check?5Failure?3?5The?5variable?5?8?$CFs?8?5is?5being?5used?5in?5?$CFs?5without?5being?5initialized?$AA@ 0000000140173cc0     libirc:irc_msg_support.obj
 0002:00029d20       ??_C@_0M@A@irc_msg?4dll?$AA@ 0000000140173d20     libirc:irc_msg_support.obj
 0002:00029d40       __libirc_extra_right_vecs  0000000140173d40     libirc:faststring_util.obj
 0002:00029e40       __libirc_extra_left_vecs   0000000140173e40     libirc:faststring_util.obj
 0002:00029f40       __libirc_factors_64        0000000140173f40     libirc:faststring_util.obj
 0002:00029f80       __libirc_factors           0000000140173f80     libirc:faststring_util.obj
 0002:00029fc0       __libirc_excess_vecs       0000000140173fc0     libirc:faststring_util.obj
 0002:0002a0c0       __libirc_spaces_vec        00000001401740c0     libirc:faststring_util.obj
 0002:0002a0d0       __libirc_dig_range_vec     00000001401740d0     libirc:faststring_util.obj
 0002:0002a0e0       __libirc_zero_vec          00000001401740e0     libirc:faststring_util.obj
 0002:0002a0f0       __libirc_byte_factor_64    00000001401740f0     libirc:faststring_util.obj
 0002:0002a100       __libirc_word_factor_64    0000000140174100     libirc:faststring_util.obj
 0002:0002a110       __libirc_dword_factor_64   0000000140174110     libirc:faststring_util.obj
 0002:0002a120       __libirc_qword_factor_64   0000000140174120     libirc:faststring_util.obj
 0002:0002a130       __libirc_byte_factor       0000000140174130     libirc:faststring_util.obj
 0002:0002a140       __libirc_word_factor       0000000140174140     libirc:faststring_util.obj
 0002:0002a150       __libirc_dword_factor      0000000140174150     libirc:faststring_util.obj
 0002:0002a160       __libirc_vector5a41        0000000140174160     libirc:faststring_util.obj
 0002:0002a170       __libirc_vector7a61        0000000140174170     libirc:faststring_util.obj
 0002:0002a180       __libirc_vector20          0000000140174180     libirc:faststring_util.obj
 0002:0002a190       __libirc_vector40          0000000140174190     libirc:faststring_util.obj
 0002:0002a1a0       __libirc_vector5b          00000001401741a0     libirc:faststring_util.obj
 0002:0002a1b0       __libirc_vector60          00000001401741b0     libirc:faststring_util.obj
 0002:0002a1c0       __libirc_vector7b          00000001401741c0     libirc:faststring_util.obj
 0002:0002a220       ??_C@_09A@NTDLL?4DLL?$AA@  0000000140174220     libirc:tbk_backtrace.obj
 0002:0002a22c       ??_C@_0BC@A@RtlCaptureContext?$AA@ 000000014017422c     libirc:tbk_backtrace.obj
 0002:0002a240       ??_C@_05A@?$CFI64u?$AA@    0000000140174240     libirc:tbk_backtrace.obj
 0002:0002a248       ??_C@_06A@?4trace?$AA@     0000000140174248     libirc:tbk_backtrace.obj
 0002:0002a250       ??_C@_05A@?4text?$AA@      0000000140174250     libirc:tbk_backtrace.obj
 0002:0002b230       ??_C@_0BJ@DIBIJBHA@GetEnabledXStateFeatures?$AA@ 0000000140175230     LIBCMT:filter_simd.obj
 0002:0002b250       ??_C@_0N@MDJJJHMB@kernel32?4dll?$AA@ 0000000140175250     LIBCMT:filter_simd.obj
 0002:0002b260       ??_C@_0BG@IKLDMBLM@GetXStateFeaturesMask?$AA@ 0000000140175260     LIBCMT:filter_simd.obj
 0002:0002b278       ??_C@_0BE@KINNKFDA@LocateXStateFeature?$AA@ 0000000140175278     LIBCMT:filter_simd.obj
 0002:0002b290       _load_config_used          0000000140175290     LIBCMT:loadcfg.obj
 0002:0002b3a0       __rtc_iaa                  00000001401753a0     LIBCMT:initsect.obj
 0002:0002b3a8       __rtc_izz                  00000001401753a8     LIBCMT:initsect.obj
 0002:0002b3b0       __rtc_taa                  00000001401753b0     LIBCMT:initsect.obj
 0002:0002b3b8       __rtc_tzz                  00000001401753b8     LIBCMT:initsect.obj
 0002:0003524c       __IMPORT_DESCRIPTOR_SCIPtool 000000014017f24c     SCIPtool:SCIPtool.dll
 0002:00035260       __IMPORT_DESCRIPTOR_SWIM   000000014017f260     SWIM:SWIM.dll
 0002:00035274       __IMPORT_DESCRIPTOR_SYStool 000000014017f274     SYStool:SYStool.dll
 0002:00035288       __IMPORT_DESCRIPTOR_libiomp5md 000000014017f288     libiomp5md:libiomp5md.dll
 0002:0003529c       __IMPORT_DESCRIPTOR_KERNEL32 000000014017f29c     KERNEL32:KERNEL32.dll
 0002:000352b0       __IMPORT_DESCRIPTOR_imagehlp 000000014017f2b0     ImageHlp:imagehlp.dll
 0002:000352c4       __NULL_IMPORT_DESCRIPTOR   000000014017f2c4     SCIPtool:SCIPtool.dll
 0003:00000000       MPI_FI_mp_ISSERIAL         0000000140181000     MPIFunc_fi.obj
 0003:00000008       MPI_FI_mp_NUMPROCS         0000000140181008     MPIFunc_fi.obj
 0003:00000020       MPI_FI_mp_MPI_MCHEAD       0000000140181020     MPIFunc_fi.obj
 0003:00000080       MPI_FI_mp_DISP             0000000140181080     MPIFunc_fi.obj
 0003:000000e0       MPI_FI_mp_TYPELIST         00000001401810e0     MPIFunc_fi.obj
 0003:00000140       MPI_FI_mp_BLOCK_LENGTHS    0000000140181140     MPIFunc_fi.obj
 0003:000001a0       MPI_FI_mp_IPUF_END         00000001401811a0     MPIFunc_fi.obj
 0003:00000200       MPI_FI_mp_IPUF_START       0000000140181200     MPIFunc_fi.obj
 0003:00000260       MPI_FI_mp_NCHUNK           0000000140181260     MPIFunc_fi.obj
 0003:000002c0       STEPMC_MPI_FI_mp_PUFFSPLITZI 00000001401812c0     MPIFunc_fi.obj
 0003:00000320       STEPMC_MPI_FI_mp_PUFFSPLITMET 0000000140181320     MPIFunc_fi.obj
 0003:00000380       STEPMC_MPI_FI_mp_PUFFNOS   0000000140181380     MPIFunc_fi.obj
 0003:000003e0       STEPMC_MPI_FI_mp_STEPMCDAT 00000001401813e0     MPIFunc_fi.obj
 0003:00000440       STEPMC_MPI_FI_mp_STEPMCSP  0000000140181440     MPIFunc_fi.obj
 0003:000005a0       LOADSEN_FI_mp_RLSLIST      00000001401815a0     LoadSen.obj
 0003:00000600       LOADSEN_FI_mp_MATLIST      0000000140181600     LoadSen.obj
 0003:00000660       SCIPUFFDRIVER_FI_mp_MCLIST 0000000140181660     SCIPUFFdriver_fi.obj
 0003:00000a48       SCIPUFFDRIVER_FI_mp_LUN_TMP 0000000140181a48     SCIPUFFdriver_fi.obj
 0003:00000a50       SCIPUFFDRIVER_FI_mp_LUN_PRI 0000000140181a50     SCIPUFFdriver_fi.obj
 0003:00000a58       SCIPUFFDRIVER_FI_mp_LUN_EMI 0000000140181a58     SCIPUFFdriver_fi.obj
 0003:00000a60       SCIPUFFDRIVER_FI_mp_LUN_MET 0000000140181a60     SCIPUFFdriver_fi.obj
 0003:00000a68       SCIPUFFDRIVER_FI_mp_LUN_SAM 0000000140181a68     SCIPUFFdriver_fi.obj
 0003:00000a70       SCIPUFFDRIVER_FI_mp_LUN    0000000140181a70     SCIPUFFdriver_fi.obj
 0003:00000a80       SCIPUFFDRIVER_FI_mp_EMIMC2 0000000140181a80     SCIPUFFdriver_fi.obj
 0003:00000ae0       SCIPUFFDRIVER_FI_mp_EMIMC1 0000000140181ae0     SCIPUFFdriver_fi.obj
 0003:00000b40       SCIPUFFDRIVER_FI_mp_MCRATE 0000000140181b40     SCIPUFFdriver_fi.obj
 0003:00000ba0       SCIPUFFDRIVER_FI_mp_MCNAME 0000000140181ba0     SCIPUFFdriver_fi.obj
 0003:00000c00       SCIPUFFDRIVER_FI_mp_PARTMATL 0000000140181c00     SCIPUFFdriver_fi.obj
 0003:00000c60       SCIPUFFDRIVER_FI_mp_GASMATL 0000000140181c60     SCIPUFFdriver_fi.obj
 0003:00000cc0       SCIPUFFDRIVER_FI_mp_IAREASRC 0000000140181cc0     SCIPUFFdriver_fi.obj
 0003:00000d20       SCIPUFFDRIVER_FI_mp_LRELPRIME 0000000140181d20     SCIPUFFdriver_fi.obj
 0003:00000d80       SCIPUFFDRIVER_FI_mp_SRCFLAG 0000000140181d80     SCIPUFFdriver_fi.obj
 0003:00000de0       SCIPUFFDRIVER_FI_mp_EMIVEL2 0000000140181de0     SCIPUFFdriver_fi.obj
 0003:00000e40       SCIPUFFDRIVER_FI_mp_EMITEMP2 0000000140181e40     SCIPUFFdriver_fi.obj
 0003:00000ea0       SCIPUFFDRIVER_FI_mp_EMIRATE2 0000000140181ea0     SCIPUFFdriver_fi.obj
 0003:00000f00       SCIPUFFDRIVER_FI_mp_EMIVEL1 0000000140181f00     SCIPUFFdriver_fi.obj
 0003:00000f60       SCIPUFFDRIVER_FI_mp_EMITEMP1 0000000140181f60     SCIPUFFdriver_fi.obj
 0003:00000fc0       SCIPUFFDRIVER_FI_mp_EMIRATE1 0000000140181fc0     SCIPUFFdriver_fi.obj
 0003:00001020       SCIPUFFDRIVER_FI_mp_RELMCLIST 0000000140182020     SCIPUFFdriver_fi.obj
 0003:00001080       SCIPUFFDRIVER_FI_mp_RELLIST 0000000140182080     SCIPUFFdriver_fi.obj
 0003:000010e0       SCIPUFFDRIVER_FI_mp_MTLLIST 00000001401820e0     SCIPUFFdriver_fi.obj
 0003:00001140       UPDATERELLIST_FI_mp_LUN_REL0 0000000140182140     UpdateRelList_fi.obj
 0003:00003100       for__static_threadstor_private 0000000140184100     libifcoremt:for_reentrancy.obj
 0003:000031d0       for__reentrancy_mode       00000001401841d0     libifcoremt:for_reentrancy.obj
 0003:00005558       __libm_fmodf_chosen_core_func 0000000140186558     libmmt:fmodf_iface_disp.obj
 0003:00005560       __libm_expf_chosen_core_func 0000000140186560     libmmt:expf_iface_disp.obj
 0003:00005568       __libm_logf_chosen_core_func 0000000140186568     libmmt:logf_iface_disp.obj
 0003:00005570       __libm_cosf_chosen_core_func 0000000140186570     libmmt:cosf_iface_disp.obj
 0003:00005578       __libm_log10f_chosen_core_func 0000000140186578     libmmt:log10f_iface_disp.obj
 0003:00005580       __libm_sinf_chosen_core_func 0000000140186580     libmmt:sinf_iface_disp.obj
 0003:00005588       __libm_tanf_chosen_core_func 0000000140186588     libmmt:tanf_iface_disp.obj
 0003:00005590       __libm_asinf_chosen_core_func 0000000140186590     libmmt:asinf_iface_disp.obj
 0003:00005598       __libm_acosf_chosen_core_func 0000000140186598     libmmt:acosf_iface_disp.obj
 0003:000055a0       __libm_atan2f_chosen_core_func 00000001401865a0     libmmt:atan2f_iface_disp.obj
 0003:000055a8       __libm_trunc_chosen_core_func 00000001401865a8     libmmt:trunc_iface_disp.obj
 0003:000055b0       __libm_lroundf_chosen_core_func 00000001401865b0     libmmt:lroundf_iface_disp.obj
 0003:000055b8       __libm_llroundf_chosen_core_func 00000001401865b8     libmmt:llroundf_iface_disp.obj
 0003:000055c0       __libm_lround_chosen_core_func 00000001401865c0     libmmt:lround_iface_disp.obj
 0003:000055c8       __libm_llround_chosen_core_func 00000001401865c8     libmmt:llround_iface_disp.obj
 0003:000083e0       __libm_fmod_chosen_core_func 00000001401893e0     libmmt:fmod_iface_disp.obj
 0003:000083e8       __libm_pmatherrf           00000001401893e8     libmmt:libm_error.obj
 0003:000083f0       __libm_pmatherr            00000001401893f0     libmmt:libm_error.obj
 0003:000083f8       __libm_pmatherrl           00000001401893f8     libmmt:libm_error.obj
 0003:00008404       _LIB_VERSIONIMF            0000000140189404     libmmt:libm_error.obj
 0003:00008408       __libm_tan_chosen_core_func 0000000140189408     libmmt:tan_iface_disp.obj
 0003:0000b840       _fltused                   000000014018c840     LIBCMT:fpinit.obj
 0003:0000b844       _ldused                    000000014018c844     LIBCMT:fpinit.obj
 0003:0000b850       __security_cookie          000000014018c850     LIBCMT:gs_cookie.obj
 0003:0000b858       __security_cookie_complement 000000014018c858     LIBCMT:gs_cookie.obj
 0003:0000b860       __abort_behavior           000000014018c860     LIBCMT:abort.obj
 0003:0000b9e0       ?dazSupported@?1??_control87@@9@9 000000014018c9e0     LIBCMT:ieee.obj
 0003:0000b9f0       _cfltcvt_tab               000000014018c9f0     LIBCMT:cmiscdat.obj
 0003:0000ba40       __isa_available            000000014018ca40     LIBCMT:cpu_disp.obj
 0003:0000ba44       __isa_enabled              000000014018ca44     LIBCMT:cpu_disp.obj
 0003:0000ba48       __flsindex                 000000014018ca48     LIBCMT:tidtable.obj
 0003:0000ba50       __badioinfo                000000014018ca50     LIBCMT:ioinit.obj
 0003:0000bab0       _mbctype                   000000014018cab0     LIBCMT:mbctype.obj
 0003:0000bbc0       _mbcasemap                 000000014018cbc0     LIBCMT:mbctype.obj
 0003:0000bcc0       __initialmbcinfo           000000014018ccc0     LIBCMT:mbctype.obj
 0003:0000bfe0       __ptmbcinfo                000000014018cfe0     LIBCMT:mbctype.obj
 0003:0000bfe8       __mb_cur_max               000000014018cfe8     LIBCMT:nlsdata.obj
 0003:0000bfec       __wclocalestr              000000014018cfec     LIBCMT:nlsdata.obj
 0003:0000bff0       __lc_time_c                000000014018cff0     LIBCMT:nlsdata.obj
 0003:0000c2b0       __ptlocinfo                000000014018d2b0     LIBCMT:nlsdata.obj
 0003:0000c2c0       __initiallocinfo           000000014018d2c0     LIBCMT:nlsdata.obj
 0003:0000c418       __initiallocalestructinfo  000000014018d418     LIBCMT:nlsdata.obj
 0003:0000c428       __globallocalestatus       000000014018d428     LIBCMT:glstatus.obj
 0003:0000c684       _sys_nerr                  000000014018d684     LIBCMT:syserr.obj
 0003:0000c690       _iob                       000000014018d690     LIBCMT:_file.obj
 0003:0000ca50       __lconv_c                  000000014018da50     LIBCMT:lconv.obj
 0003:0000cae8       __lconv_static_decimal     000000014018dae8     LIBCMT:lconv.obj
 0003:0000caec       __lconv_static_W_decimal   000000014018daec     LIBCMT:lconv.obj
 0003:0000caf0       __lconv                    000000014018daf0     LIBCMT:lconv.obj
 0003:0000caf8       _pctype                    000000014018daf8     LIBCMT:ctype.obj
 0003:0000cb00       _pwctype                   000000014018db00     LIBCMT:ctype.obj
 0003:0000cb10       _confh                     000000014018db10     LIBCMT:initcon.obj
 0003:0000cb50       _HUGE                      000000014018db50     LIBCMT:huge.obj
 0003:0000cb60       _pow10pos                  000000014018db60     LIBCMT:constpow.obj
 0003:0000ccc0       _pow10neg                  000000014018dcc0     LIBCMT:constpow.obj
 0003:0000ce20       __intel_lib_lp_func        000000014018de20     libirc:intel_lib_vs_wrappers_init.obj
 0003:0000d9e0       __libirc_largest_cache_size 000000014018e9e0     libirc:fast_mem_ops.obj
 0003:0000d9e4       __libirc_largest_cache_size_half 000000014018e9e4     libirc:fast_mem_ops.obj
 0003:0000d9e8       __libirc_data_cache_size   000000014018e9e8     libirc:fast_mem_ops.obj
 0003:0000d9ec       __libirc_data_cache_size_half 000000014018e9ec     libirc:fast_mem_ops.obj
 0003:0000d9f0       __libirc_largest_cache_size_quoter 000000014018e9f0     libirc:fast_mem_ops.obj
 0003:0000da20       MPI_FI_mp_USEMPI           000000014018ea20     MPIFunc_fi.obj
 0003:0000da28       MPI_FI_mp_MYID             000000014018ea28     MPIFunc_fi.obj
 0003:0000da30       SCIPUFFDRIVER_FI_mp_ISPROJ 000000014018ea30     SCIPUFFdriver_fi.obj
 0003:0000da38       SCIPUFFDRIVER_FI_mp_LPRIME 000000014018ea38     SCIPUFFdriver_fi.obj
 0003:0000da40       SCIPUFFDRIVER_FI_mp_LINTRPEMISSION 000000014018ea40     SCIPUFFdriver_fi.obj
 0003:0000da48       SCIPUFFDRIVER_FI_mp_LREADEMISSION 000000014018ea48     SCIPUFFdriver_fi.obj
 0003:0000da50       SCIPUFFDRIVER_FI_mp_LEMISSIONFILE 000000014018ea50     SCIPUFFdriver_fi.obj
 0003:0000daa8       PROG_INC_mp_NPROG          000000014018eaa8     runSCI.obj
 0003:0000dab0       PROG_INC_mp_LPROG          000000014018eab0     runSCI.obj
 0003:0000dee0       for__l_exit_hand_decl      000000014018eee0     libifcoremt:for_open.obj
 0003:00016160       for__reentrancy_initialized 0000000140197160     libifcoremt:for_reentrancy.obj
 0003:000163d8       for__user_iomsg_buf        00000001401973d8     libifcoremt:for_diags_intel.obj
 0003:000163e0       for__user_iomsg_len        00000001401973e0     libifcoremt:for_diags_intel.obj
 0003:00016420       for__lub_table             0000000140197420     libifcoremt:for_lub_mgt.obj
 0003:0001edf0       for__aio_initialized       000000014019fdf0     libifcoremt:for_aio.obj
 0003:0001ee00       for__file_info_hash_table  000000014019fe00     libifcoremt:for_need_lf.obj
 0003:00024fd0       for__l_msg_hnd             00000001401a5fd0     libifcoremt:for_init.obj
 0003:00024fe0       for__l_fpe_mask            00000001401a5fe0     libifcoremt:for_init.obj
 0003:00024fe4       for__l_undcnt              00000001401a5fe4     libifcoremt:for_init.obj
 0003:00024fe8       for__l_ovfcnt              00000001401a5fe8     libifcoremt:for_init.obj
 0003:00024fec       for__l_div0cnt             00000001401a5fec     libifcoremt:for_init.obj
 0003:00024ff0       for__l_invcnt              00000001401a5ff0     libifcoremt:for_init.obj
 0003:00024ff4       for__l_inecnt              00000001401a5ff4     libifcoremt:for_init.obj
 0003:00024ff8       for__l_fmtrecl             00000001401a5ff8     libifcoremt:for_init.obj
 0003:00024ffc       for__l_ufmtrecl            00000001401a5ffc     libifcoremt:for_init.obj
 0003:00025000       for__l_blocksize           00000001401a6000     libifcoremt:for_init.obj
 0003:00025004       for__l_buffercount         00000001401a6004     libifcoremt:for_init.obj
 0003:00025008       for__l_pgm_exit_status     00000001401a6008     libifcoremt:for_init.obj
 0003:00025010       for__l_exit_termination    00000001401a6010     libifcoremt:for_exit_handler.obj
 0003:0002501c       __fortran_posix_io_flag    00000001401a601c     libifcoremt:for_portlib.obj
 0003:00026280       __libm_feature_flag        00000001401a7280     libmmt:libm_feature_flag.obj
 0003:00026298       __fastflag                 00000001401a7298     LIBCMT:fpinit.obj
 0003:000262a0       _aenvptr                   00000001401a72a0     LIBCMT:crt0.obj
 0003:000262a8       _wenvptr                   00000001401a72a8     LIBCMT:crt0.obj
 0003:000262e0       _C_Exit_Done               00000001401a72e0     LIBCMT:crt0dat.obj
 0003:000262e4       __argc                     00000001401a72e4     LIBCMT:crt0dat.obj
 0003:000262e8       __argv                     00000001401a72e8     LIBCMT:crt0dat.obj
 0003:000262f0       __wargv                    00000001401a72f0     LIBCMT:crt0dat.obj
 0003:000262f8       _environ                   00000001401a72f8     LIBCMT:crt0dat.obj
 0003:00026300       _wenviron                  00000001401a7300     LIBCMT:crt0dat.obj
 0003:00026308       _pgmptr                    00000001401a7308     LIBCMT:crt0dat.obj
 0003:00026310       _wpgmptr                   00000001401a7310     LIBCMT:crt0dat.obj
 0003:00026318       _umaskval                  00000001401a7318     LIBCMT:crt0dat.obj
 0003:0002631c       _exitflag                  00000001401a731c     LIBCMT:crt0dat.obj
 0003:00026320       _C_Termination_Done        00000001401a7320     LIBCMT:crt0dat.obj
 0003:00026328       __winitenv                 00000001401a7328     LIBCMT:crt0dat.obj
 0003:00026330       __initenv                  00000001401a7330     LIBCMT:crt0dat.obj
 0003:00026338       __favor                    00000001401a7338     LIBCMT:cpu_disp.obj
 0003:00026340       _crtheap                   00000001401a7340     LIBCMT:heapinit.obj
 0003:00026350       __pioinfo                  00000001401a7350     LIBCMT:ioinit.obj
 0003:00026660       __app_type                 00000001401a7660     LIBCMT:crt0msg.obj
 0003:00026c98       __error_mode               00000001401a7c98     LIBCMT:errmode.obj
 0003:00027218       __mbcodepage               00000001401a8218     LIBCMT:mbctype.obj
 0003:0002721c       __ismbcodepage             00000001401a821c     LIBCMT:mbctype.obj
 0003:00027220       __mbulinfo                 00000001401a8220     LIBCMT:mbctype.obj
 0003:00027230       __mblocalename             00000001401a8230     LIBCMT:mbctype.obj
 0003:0002723c       __locale_changed           00000001401a823c     LIBCMT:wsetloca.obj
 0003:00027240       ?_pnhHeap@@3P6AH_K@ZEA     00000001401a8240     LIBCMT:handler.obj
 0003:00027248       _newmode                   00000001401a8248     LIBCMT:_newmode.obj
 0003:00027250       __pInvalidArgHandler       00000001401a8250     LIBCMT:invarg.obj
 0003:00027490       _maxwait                   00000001401a8490     LIBCMT:crtheap.obj
 0003:00027498       ?__pInconsistency@@3P6AXXZEA 00000001401a8498     LIBCMT:hooks.obj
 0003:000274a0       __pPurecall                00000001401a84a0     LIBCMT:inithelp.obj
 0003:000274b0       _stdbuf                    00000001401a84b0     LIBCMT:_sftbuf.obj
 0003:000274c0       _cflush                    00000001401a84c0     LIBCMT:_file.obj
 0003:000274c4       _outputformat              00000001401a84c4     LIBCMT:outputformat.obj
 0003:000274f0       __lconv_static_null        00000001401a84f0     LIBCMT:lconv.obj
 0003:000274f4       __lconv_static_W_null      00000001401a84f4     LIBCMT:lconv.obj
 0003:00027608       __intel_cpu_feature_indicator 00000001401a8608     libirc:cpu_feature_disp.obj
 0003:00027610       __intel_cpu_feature_indicator_x 00000001401a8610     libirc:cpu_feature_disp.obj
 0003:00027d24       __libirc_mem_ops_method    00000001401a8d24     libirc:fast_mem_ops.obj
 0003:00027d28       __libirc_largest_cachelinesize 00000001401a8d28     libirc:fast_mem_ops.obj
 0003:00027d2c       __libirc_copy_loop_threshold 00000001401a8d2c     libirc:fast_mem_ops.obj
 0003:00027d30       __libirc_rep_move_threshold 00000001401a8d30     libirc:fast_mem_ops.obj
 0003:00027d34       __libirc_set_loop_threshold 00000001401a8d34     libirc:fast_mem_ops.obj
 0003:00027d40       _qw32used                  00000001401a8d40     ifconsol:for_m_console.obj
 0003:00027d60       PROG_INC_mp_NUMPUFFSTRING  00000001401a8d60     <common>
 0003:00027de0       PROG_INC_mp_FILE_STS       00000001401a8de0     <common>
 0003:00027ee0       PROG_INC_mp_TLASTCHECK     00000001401a8ee0     <common>
 0003:00027ee8       PROG_INC_mp_TLASTSAVE      00000001401a8ee8     <common>
 0003:00027f00       PROG_INC_mp_CALLBACKPROJECT 00000001401a8f00     <common>
 0003:00028120       PROG_INC_mp_STARTTIMESTRING 00000001401a9120     <common>
 0003:000281a0       PROG_INC_mp_ENDTIMESTRING  00000001401a91a0     <common>
 0003:00028220       PROG_INC_mp_OUTTIMESTRING  00000001401a9220     <common>
 0003:000282a0       PROG_INC_mp_LINITSTATUS    00000001401a92a0     <common>
 0003:000282a8       PROG_INC_mp_CHECKFILEUNIT  00000001401a92a8     <common>
 0003:000282b0       PROG_INC_mp_LUN_STS        00000001401a92b0     <common>
 0003:000282c0       UPDATERELLIST_FI_mp_LINE   00000001401a92c0     <common>
 0003:000286c0       UPDATERELLIST_FI_mp_FIRSTUPDATEREL 00000001401a96c0     <common>
 0003:000286c8       UPDATERELLIST_FI_mp_NCH    00000001401a96c8     <common>
 0003:000286d0       UPDATERELLIST_FI_mp_NARG   00000001401a96d0     <common>
 0003:000286d8       UPDATERELLIST_FI_mp_IKWRD  00000001401a96d8     <common>
 0003:000286e0       UPDATERELLIST_FI_mp_LERR   00000001401a96e0     <common>
 0003:000286f0       UPDATERELLIST_FI_mp_KWRD   00000001401a96f0     <common>
 0003:00028700       UPDATERELLIST_FI_mp_CARG   00000001401a9700     <common>
 0003:00029b00       SCIPUFFDRIVER_FI_mp_NEW    00000001401aab00     <common>
 0003:0002b660       SCIPUFFDRIVER_FI_mp_LINE   00000001401ac660     <common>
 0003:0002ba60       SCIPUFFDRIVER_FI_mp_RUN    00000001401aca60     <common>
 0003:0002bca0       SCIPUFFDRIVER_FI_mp_LIMIT  00000001401acca0     <common>
 0003:0002bcc0       SCIPUFFDRIVER_FI_mp_RELINSTDATA 00000001401accc0     <common>
 0003:0002bde0       SCIPUFFDRIVER_FI_mp_RELSTACKDATA 00000001401acde0     <common>
 0003:0002bf00       SCIPUFFDRIVER_FI_mp_RELSTACKFILEDATA 00000001401acf00     <common>
 0003:0002c020       SCIPUFFDRIVER_FI_mp_RELCONTDATA 00000001401ad020     <common>
 0003:0002c140       SCIPUFFDRIVER_FI_mp_RELCONTFILEDATA 00000001401ad140     <common>
 0003:0002c260       SCIPUFFDRIVER_FI_mp_RELAREADATA 00000001401ad260     <common>
 0003:0002c360       SCIPUFFDRIVER_FI_mp_RELAREAFILEDATA 00000001401ad360     <common>
 0003:0002c480       SCIPUFFDRIVER_FI_mp_EMIFILE 00000001401ad480     <common>
 0003:0002c680       SCIPUFFDRIVER_FI_mp_JUL0   00000001401ad680     <common>
 0003:0002c688       SCIPUFFDRIVER_FI_mp_YEAR0  00000001401ad688     <common>
 0003:0002c690       SCIPUFFDRIVER_FI_mp_HOUR0  00000001401ad690     <common>
 0003:0002c698       SCIPUFFDRIVER_FI_mp_TEMI   00000001401ad698     <common>
 0003:0002c6a0       SCIPUFFDRIVER_FI_mp_TNEXTEMI 00000001401ad6a0     <common>
 0003:0002c6a8       SCIPUFFDRIVER_FI_mp_NAREASRC 00000001401ad6a8     <common>
 0003:0002c6b0       SCIPUFFDRIVER_FI_mp_NREL0  00000001401ad6b0     <common>
 0003:0002c6c0       SCIPUFFDRIVER_FI_mp_GASMATL0 00000001401ad6c0     <common>
 0003:0002c8a0       SCIPUFFDRIVER_FI_mp_PARTMATL2P5 00000001401ad8a0     <common>
 0003:0002ca80       SCIPUFFDRIVER_FI_mp_PARTMATL10 00000001401ada80     <common>
 0003:0002cc60       SCIPUFFDRIVER_FI_mp_NMAT   00000001401adc60     <common>
 0003:0002cc68       SCIPUFFDRIVER_FI_mp_LMAPATHWAY 00000001401adc68     <common>
 0003:0002cc70       SCIPUFFDRIVER_FI_mp_NMC    00000001401adc70     <common>
 0003:0002cc78       SCIPUFFDRIVER_FI_mp_NMCREL 00000001401adc78     <common>
 0003:0002cc80       SCIPUFFDRIVER_FI_mp_N_RE   00000001401adc80     <common>
 0003:0002cc88       SCIPUFFDRIVER_FI_mp_I_RE   00000001401adc88     <common>
 0003:0002cc90       SCIPUFFDRIVER_FI_mp_NSAMP  00000001401adc90     <common>
 0003:0002cc98       SCIPUFFDRIVER_FI_mp_NDISC_RE 00000001401adc98     <common>
 0003:0002cca0       SCIPUFFDRIVER_FI_mp_NMET   00000001401adca0     <common>
 0003:0002cca8       SCIPUFFDRIVER_FI_mp_ISRF   00000001401adca8     <common>
 0003:0002ccb0       SCIPUFFDRIVER_FI_mp_IPRF   00000001401adcb0     <common>
 0003:0002ccb8       SCIPUFFDRIVER_FI_mp_NVERTLEV 00000001401adcb8     <common>
 0003:0002ccc0       SCIPUFFDRIVER_FI_mp_VDEP   00000001401adcc0     <common>
 0003:0002ccc8       SCIPUFFDRIVER_FI_mp_ZRUF   00000001401adcc8     <common>
 0003:0002ccd0       SCIPUFFDRIVER_FI_mp_ELEVCNV 00000001401adcd0     <common>
 0003:0002ccd8       SCIPUFFDRIVER_FI_mp_XFAC   00000001401adcd8     <common>
 0003:0002cce0       SCIPUFFDRIVER_FI_mp_YOFF   00000001401adce0     <common>
 0003:0002cce8       SCIPUFFDRIVER_FI_mp_XMIN   00000001401adce8     <common>
 0003:0002ccf0       SCIPUFFDRIVER_FI_mp_XMAX   00000001401adcf0     <common>
 0003:0002ccf8       SCIPUFFDRIVER_FI_mp_YMIN   00000001401adcf8     <common>
 0003:0002cd00       SCIPUFFDRIVER_FI_mp_YMAX   00000001401add00     <common>
 0003:0002cd08       SCIPUFFDRIVER_FI_mp_LTIME  00000001401add08     <common>
 0003:0002cd10       SCIPUFFDRIVER_FI_mp_LDOMREF 00000001401add10     <common>
 0003:0002cd18       SCIPUFFDRIVER_FI_mp_LDOMLIMITS 00000001401add18     <common>
 0003:0002cd20       SCIPUFFDRIVER_FI_mp_LDOMRECPTR 00000001401add20     <common>
 0003:0002cd28       SCIPUFFDRIVER_FI_mp_LSETUPONLY 00000001401add28     <common>
 0003:0002cd30       SCIPUFFDRIVER_FI_mp_LZRUF  00000001401add30     <common>
 0003:0002cd38       SCIPUFFDRIVER_FI_mp_LPRIMEFILE 00000001401add38     <common>
 0003:0002cd40       SCIPUFFDRIVER_FI_mp_LFORMAT 00000001401add40     <common>
 0003:0002cd48       SCIPUFFDRIVER_FI_mp_LSETPRJTCNV 00000001401add48     <common>
 0003:0002cd50       SCIPUFFDRIVER_FI_mp_LSETTZONE 00000001401add50     <common>
 0003:0002cd58       SCIPUFFDRIVER_FI_mp_LSETMETTCNV 00000001401add58     <common>
 0003:0002cd60       SCIPUFFDRIVER_FI_mp_LSETDT 00000001401add60     <common>
 0003:0002cd68       SCIPUFFDRIVER_FI_mp_LSETDTOUT 00000001401add68     <common>
 0003:0002cd70       SCIPUFFDRIVER_FI_mp_LSETTIMEAVG 00000001401add70     <common>
 0003:0002cd78       SCIPUFFDRIVER_FI_mp_LSETZMAX 00000001401add78     <common>
 0003:0002cd80       SCIPUFFDRIVER_FI_mp_LSETLSV 00000001401add80     <common>
 0003:0002cd88       SCIPUFFDRIVER_FI_mp_LSETUUCALM 00000001401add88     <common>
 0003:0002cd90       SCIPUFFDRIVER_FI_mp_LSETSLCALM 00000001401add90     <common>
 0003:0002cd98       SCIPUFFDRIVER_FI_mp_LSETSRFPARAM 00000001401add98     <common>
 0003:0002cda0       SCIPUFFDRIVER_FI_mp_LSETTIMEBIN 00000001401adda0     <common>
 0003:0002cda8       SCIPUFFDRIVER_FI_mp_LDELETEPRJ 00000001401adda8     <common>
 0003:0002cdb0       SCIPUFFDRIVER_FI_mp_HEMIUTM 00000001401addb0     <common>
 0003:0002cdc0       SCIPUFFDRIVER_FI_mp_LANDUSE 00000001401addc0     <common>
 0003:0002ce00       SCIPUFFDRIVER_FI_mp_SENSORCLASS 00000001401ade00     <common>
 0003:0002ce40       SCIPUFFDRIVER_FI_mp_PATH_IN 00000001401ade40     <common>
 0003:0002cec0       SCIPUFFDRIVER_FI_mp_FNAME  00000001401adec0     <common>
 0003:0002d0c0       SCIPUFFDRIVER_FI_mp_PRJNAME 00000001401ae0c0     <common>
 0003:0002d2c0       SCIPUFFDRIVER_FI_mp_PRIMEFILE 00000001401ae2c0     <common>
 0003:0002d4c0       SCIPUFFDRIVER_FI_mp_METINP 00000001401ae4c0     <common>
 0003:000739c0       SCIPUFFDRIVER_FI_mp_RECEPTOR 00000001401f49c0     <common>
 0003:00073a00       SCIPUFFDRIVER_FI_mp_RECEPTOR_NET 00000001401f4a00     <common>
 0003:00074900       SCIPUFFDRIVER_FI_mp_FIRST_DISC 00000001401f5900     <common>
 0003:00074908       SCIPUFFDRIVER_FI_mp_DISC_RE 00000001401f5908     <common>
 0003:00074920       SCIPUFFDRIVER_FI_mp_METFILE 00000001401f5920     <common>
 0003:00074b20       SCIPUFFDRIVER_FI_mp_POSTFILE 00000001401f5b20     <common>
 0003:00074d20       SCIPUFFDRIVER_FI_mp_PUFFFILE 00000001401f5d20     <common>
 0003:00074f20       SCIPUFFDRIVER_FI_mp_PRJFILE 00000001401f5f20     <common>
 0003:00075120       SCIPUFFDRIVER_FI_mp_CONCFILE 00000001401f6120     <common>
 0003:00075320       SCIPUFFDRIVER_FI_mp_DEPFILE 00000001401f6320     <common>
 0003:00075520       SCIPUFFDRIVER_FI_mp_DOSFILE 00000001401f6520     <common>
 0003:00075720       SCIPUFFDRIVER_FI_mp_SMPFILE 00000001401f6720     <common>
 0003:00075920       SCIPUFFDRIVER_FI_mp_NCH    00000001401f6920     <common>
 0003:00075928       SCIPUFFDRIVER_FI_mp_NARG   00000001401f6928     <common>
 0003:00075930       SCIPUFFDRIVER_FI_mp_IKWRD  00000001401f6930     <common>
 0003:00075938       SCIPUFFDRIVER_FI_mp_LERR   00000001401f6938     <common>
 0003:00075940       SCIPUFFDRIVER_FI_mp_KWRD   00000001401f6940     <common>
 0003:00075960       SCIPUFFDRIVER_FI_mp_CARG   00000001401f6960     <common>
 0003:00076d60       LOADSEN_FI_mp_NNULL        00000001401f7d60     <common>
 0003:00076d68       STEPMC_MPI_FI_mp_PSTEPMCDAT 00000001401f7d68     <common>
 0003:00076d70       STEPMC_MPI_FI_mp_ISTEPMC   00000001401f7d70     <common>
 0003:00076d80       MPI_FI_mp_STATUS           00000001401f7d80     <common>
 0003:00076f60       MPI_FI_mp_SOURCE           00000001401f7f60     <common>
 0003:00076f80       MPI_FI_mp_AQAERINP         00000001401f7f80     <common>
 0003:000770a0       MPI_FI_mp_STATUS_MPI       00000001401f80a0     <common>
 0003:000770a8       MPI_FI_mp_CHEMMCHEAD_MPI   00000001401f80a8     <common>
 0003:000770b0       MPI_FI_mp_CHEMAQARHD_MPI   00000001401f80b0     <common>
 0003:000770b8       MPI_FI_mp_CHEMSPECIES_MPI  00000001401f80b8     <common>
 0003:000770c0       MPI_FI_mp_CHEMREACT_MPI    00000001401f80c0     <common>
 0003:000770c8       MPI_FI_mp_STEPMCDAT_MPI    00000001401f80c8     <common>
 0003:000770d0       MPI_FI_mp_PUFFSTRUC_MPI    00000001401f80d0     <common>
 0003:000770d8       MPI_FI_mp_PUFFMET_MPI      00000001401f80d8     <common>
 0003:000770e0       MPI_FI_mp_PUFFSPEC_MPI     00000001401f80e0     <common>
 0003:000770e8       MPI_FI_mp_IERR             00000001401f80e8     <common>
 0003:000770f0       MPI_FI_mp_DEST             00000001401f80f0     <common>
 0003:000770f8       MPI_FI_mp_NPUF_CHUNK       00000001401f80f8     <common>
 0003:00077100       MPI_FI_mp_MAX_CHUNK        00000001401f8100     <common>
 0003:00077108       MPI_FI_mp_PUFNO            00000001401f8108     <common>
 0003:00077110       MPI_FI_mp_N_INT            00000001401f8110     <common>
 0003:00077118       MPI_FI_mp_N_REAL           00000001401f8118     <common>
 0003:00077120       MPI_FI_mp_N_CHAR           00000001401f8120     <common>
 0003:00077128       MPI_FI_mp_N_LGL            00000001401f8128     <common>
 0003:00077130       MPI_FI_mp_STAT             00000001401f8130     <common>
 0003:00077138       MPI_FI_mp_BASE             00000001401f8138     <common>
 0003:00077140       for__l_argc                00000001401f8140     <common>
 0003:00077148       for__a_argv                00000001401f8148     <common>
 0003:00077150       for__l_excpt_info          00000001401f8150     <common>
 0003:00077160       thread_count_mutex         00000001401f8160     <common>
 0003:000771a0       threads_in_flight_mutex    00000001401f81a0     <common>
 0003:000771e0       for__aio_lub_table         00000001401f81e0     <common>
 0003:000775e0       for__aio_global_mutex      00000001401f85e0     <common>
 0003:00077608       message_catalog            00000001401f8608     <common>
 0003:00077610       _debugger_hook_dummy       00000001401f8610     <common>
 0003:00077618       __piob                     00000001401f8618     <common>
 0003:00077620       _nstream                   00000001401f8620     <common>
 0003:00077640       _bufin                     00000001401f8640     <common>
 0003:00078640       encodedKERNEL32Functions   00000001401f9640     <common>
 0003:00078748       __unguarded_readlc_active  00000001401f9748     <common>
 0003:0007874c       __setlc_active             00000001401f974c     <common>
 0003:00078750       _pDestructExceptionObject  00000001401f9750     <common>
 0003:00078758       _nhandle                   00000001401f9758     <common>
 0003:00078760       __dyn_tls_init_callback    00000001401f9760     <common>
 0003:00078768       __onexitend                00000001401f9768     <common>
 0003:00078770       __onexitbegin              00000001401f9770     <common>
 0003:00078778       __mbctype_initialized      00000001401f9778     <common>
 0003:0007877c       __env_initialized          00000001401f977c     <common>
 0003:00078780       _acmdln                    00000001401f9780     <common>
 0005:00000000       _Fenv0                     0000000140202000     libifcoremt:for_secnds.obj

 entry point at        0001:00129360

 Static symbols

 0000:ffdf3000       .debug$S                   0000000140000000     libiomp5md:libiomp5md.dll
 0000:ffdf3000       .debug$S                   0000000140000000     libiomp5md:libiomp5md.dll
 0000:ffdf3000       .debug$S                   0000000140000000     libiomp5md:libiomp5md.dll
 0000:ffdf3000       .debug$S                   0000000140000000     KERNEL32:KERNEL32.dll
 0000:ffdf3000       .debug$S                   0000000140000000     KERNEL32:KERNEL32.dll
 0000:ffdf3000       .debug$S                   0000000140000000     KERNEL32:KERNEL32.dll
 0000:ffdf3000       .debug$S                   0000000140000000     KERNEL32:KERNEL32.dll
 0000:ffdf3000       .debug$S                   0000000140000000     KERNEL32:KERNEL32.dll
 0000:ffdf3000       .debug$S                   0000000140000000     KERNEL32:KERNEL32.dll
 0000:ffdf3000       .debug$S                   0000000140000000     KERNEL32:KERNEL32.dll
 0000:ffdf3000       .debug$S                   0000000140000000     KERNEL32:KERNEL32.dll
 0000:ffdf3000       .debug$S                   0000000140000000     KERNEL32:KERNEL32.dll
 0000:ffdf3000       .debug$S                   0000000140000000     KERNEL32:KERNEL32.dll
 0000:ffdf3000       .debug$S                   0000000140000000     KERNEL32:KERNEL32.dll
 0000:ffdf3000       .debug$S                   0000000140000000     KERNEL32:KERNEL32.dll
 0000:ffdf3000       .debug$S                   0000000140000000     KERNEL32:KERNEL32.dll
 0000:ffdf3000       .debug$S                   0000000140000000     KERNEL32:KERNEL32.dll
 0000:ffdf3000       .debug$S                   0000000140000000     KERNEL32:KERNEL32.dll
 0000:ffdf3000       .debug$S                   0000000140000000     KERNEL32:KERNEL32.dll
 0000:ffdf3000       .debug$S                   0000000140000000     KERNEL32:KERNEL32.dll
 0000:ffdf3000       .debug$S                   0000000140000000     KERNEL32:KERNEL32.dll
 0000:ffdf3000       .debug$S                   0000000140000000     KERNEL32:KERNEL32.dll
 0000:ffdf3000       .debug$S                   0000000140000000     KERNEL32:KERNEL32.dll
 0000:ffdf3000       .debug$S                   0000000140000000     KERNEL32:KERNEL32.dll
 0000:ffdf3000       .debug$S                   0000000140000000     KERNEL32:KERNEL32.dll
 0000:ffdf3000       .debug$S                   0000000140000000     KERNEL32:KERNEL32.dll
 0000:ffdf3000       .debug$S                   0000000140000000     KERNEL32:KERNEL32.dll
 0000:ffdf3000       .debug$S                   0000000140000000     KERNEL32:KERNEL32.dll
 0000:ffdf3000       .debug$S                   0000000140000000     KERNEL32:KERNEL32.dll
 0000:ffdf3000       .debug$S                   0000000140000000     KERNEL32:KERNEL32.dll
 0000:ffdf3000       .debug$S                   0000000140000000     KERNEL32:KERNEL32.dll
 0000:ffdf3000       .debug$S                   0000000140000000     KERNEL32:KERNEL32.dll
 0000:ffdf3000       .debug$S                   0000000140000000     KERNEL32:KERNEL32.dll
 0000:ffdf3000       .debug$S                   0000000140000000     KERNEL32:KERNEL32.dll
 0000:ffdf3000       .debug$S                   0000000140000000     KERNEL32:KERNEL32.dll
 0000:ffdf3000       .debug$S                   0000000140000000     KERNEL32:KERNEL32.dll
 0000:ffdf3000       .debug$S                   0000000140000000     SCIPtool:SCIPtool.dll
 0000:ffdf3000       .debug$S                   0000000140000000     SCIPtool:SCIPtool.dll
 0000:ffdf3000       .debug$S                   0000000140000000     SCIPtool:SCIPtool.dll
 0000:ffdf3000       .debug$S                   0000000140000000     SCIPtool:SCIPtool.dll
 0000:ffdf3000       .debug$S                   0000000140000000     SCIPtool:SCIPtool.dll
 0000:ffdf3000       .debug$S                   0000000140000000     SCIPtool:SCIPtool.dll
 0000:ffdf3000       .debug$S                   0000000140000000     SCIPtool:SCIPtool.dll
 0000:ffdf3000       .debug$S                   0000000140000000     SCIPtool:SCIPtool.dll
 0000:ffdf3000       .debug$S                   0000000140000000     SCIPtool:SCIPtool.dll
 0000:ffdf3000       .debug$S                   0000000140000000     SCIPtool:SCIPtool.dll
 0000:ffdf3000       .debug$S                   0000000140000000     SCIPtool:SCIPtool.dll
 0000:ffdf3000       .debug$S                   0000000140000000     SCIPtool:SCIPtool.dll
 0000:ffdf3000       .debug$S                   0000000140000000     SCIPtool:SCIPtool.dll
 0000:ffdf3000       .debug$S                   0000000140000000     ImageHlp:imagehlp.dll
 0000:ffdf3000       .debug$S                   0000000140000000     SCIPtool:SCIPtool.dll
 0002:ffeb6000       $unwind$_invoke_watson_if_error 0000000140000000     LIBCMT:getqloc.obj
 0004:ffe06000       $pdata$_invoke_watson_if_error 0000000140000000     LIBCMT:getqloc.obj
 0002:ffeb6000       $unwind$_invoke_watson_if_error 0000000140000000     LIBCMT:inithelp.obj
 0004:ffe06000       $pdata$_invoke_watson_if_error 0000000140000000     LIBCMT:inithelp.obj
 0000:ffdf3000       .debug$S                   0000000140000000     SCIPtool:SCIPtool.dll
 0000:ffdf3000       .debug$S                   0000000140000000     SCIPtool:SCIPtool.dll
 0000:ffdf3000       .debug$S                   0000000140000000     KERNEL32:KERNEL32.dll
 0000:ffdf3000       .debug$S                   0000000140000000     SWIM:SWIM.dll
 0000:ffdf3000       .debug$S                   0000000140000000     SWIM:SWIM.dll
 0000:ffdf3000       .debug$S                   0000000140000000     SWIM:SWIM.dll
 0000:ffdf3000       .debug$S                   0000000140000000     KERNEL32:KERNEL32.dll
 0000:ffdf3000       .debug$S                   0000000140000000     KERNEL32:KERNEL32.dll
 0000:ffdf3000       .debug$S                   0000000140000000     KERNEL32:KERNEL32.dll
 0000:ffdf3000       .debug$S                   0000000140000000     ImageHlp:imagehlp.dll
 0000:ffdf3000       .debug$S                   0000000140000000     KERNEL32:KERNEL32.dll
 0000:ffdf3000       .debug$S                   0000000140000000     KERNEL32:KERNEL32.dll
 0000:ffdf3000       .debug$S                   0000000140000000     KERNEL32:KERNEL32.dll
 0000:ffdf3000       .debug$S                   0000000140000000     KERNEL32:KERNEL32.dll
 0000:ffdf3000       .debug$S                   0000000140000000     KERNEL32:KERNEL32.dll
 0000:ffdf3000       .debug$S                   0000000140000000     KERNEL32:KERNEL32.dll
 0000:ffdf3000       .debug$S                   0000000140000000     ImageHlp:imagehlp.dll
 0000:ffdf3000       .debug$S                   0000000140000000     KERNEL32:KERNEL32.dll
 0002:ffeb6000       $unwind$_invoke_watson_if_error 0000000140000000     LIBCMT:winapinls.obj
 0004:ffe06000       $pdata$_invoke_watson_if_error 0000000140000000     LIBCMT:winapinls.obj
 0000:ffdf3000       .debug$S                   0000000140000000     KERNEL32:KERNEL32.dll
 0000:ffdf3000       .debug$S                   0000000140000000     KERNEL32:KERNEL32.dll
 0000:ffdf3000       .debug$S                   0000000140000000     SYStool:SYStool.dll
 0000:ffdf3000       .debug$S                   0000000140000000     KERNEL32:KERNEL32.dll
 0000:ffdf3000       .debug$S                   0000000140000000     SYStool:SYStool.dll
 0000:ffdf3000       .debug$S                   0000000140000000     SYStool:SYStool.dll
 0000:ffdf3000       .debug$S                   0000000140000000     SYStool:SYStool.dll
 0000:ffdf3000       .debug$S                   0000000140000000     SYStool:SYStool.dll
 0000:ffdf3000       .debug$S                   0000000140000000     SYStool:SYStool.dll
 0000:ffdf3000       .debug$S                   0000000140000000     SYStool:SYStool.dll
 0000:ffdf3000       .debug$S                   0000000140000000     SYStool:SYStool.dll
 0000:ffdf3000       .debug$S                   0000000140000000     SYStool:SYStool.dll
 0000:ffdf3000       .debug$S                   0000000140000000     SYStool:SYStool.dll
 0000:ffdf3000       .debug$S                   0000000140000000     SYStool:SYStool.dll
 0000:ffdf3000       .debug$S                   0000000140000000     SYStool:SYStool.dll
 0000:ffdf3000       .debug$S                   0000000140000000     KERNEL32:KERNEL32.dll
 0000:ffdf3000       .debug$S                   0000000140000000     KERNEL32:KERNEL32.dll
 0000:ffdf3000       .debug$S                   0000000140000000     KERNEL32:KERNEL32.dll
 0000:ffdf3000       .debug$S                   0000000140000000     KERNEL32:KERNEL32.dll
 0002:ffeb6000       $unwind$_invoke_watson_if_error 0000000140000000     LIBCMT:wsetloca.obj
 0004:ffe06000       $pdata$_invoke_watson_if_error 0000000140000000     LIBCMT:wsetloca.obj
 0000:ffdf3000       .debug$S                   0000000140000000     KERNEL32:KERNEL32.dll
 0000:ffdf3000       .debug$S                   0000000140000000     KERNEL32:KERNEL32.dll
 0000:ffdf3000       .debug$S                   0000000140000000     KERNEL32:KERNEL32.dll
 0000:ffdf3000       .debug$S                   0000000140000000     KERNEL32:KERNEL32.dll
 0000:ffdf3000       .debug$S                   0000000140000000     KERNEL32:KERNEL32.dll
 0002:ffeb6000       $unwind$_invoke_watson_if_error 0000000140000000     LIBCMT:getenv.obj
 0004:ffe06000       $pdata$_invoke_watson_if_error 0000000140000000     LIBCMT:getenv.obj
 0000:ffdf3000       .debug$S                   0000000140000000     KERNEL32:KERNEL32.dll
 0000:ffdf3000       .debug$S                   0000000140000000     KERNEL32:KERNEL32.dll
 0000:ffdf3000       .debug$S                   0000000140000000     KERNEL32:KERNEL32.dll
 0000:ffdf3000       .debug$S                   0000000140000000     KERNEL32:KERNEL32.dll
 0000:ffdf3000       .debug$S                   0000000140000000     KERNEL32:KERNEL32.dll
 0000:ffdf3000       .debug$S                   0000000140000000     KERNEL32:KERNEL32.dll
 0000:ffdf3000       .debug$S                   0000000140000000     KERNEL32:KERNEL32.dll
 0000:ffdf3000       .debug$S                   0000000140000000     KERNEL32:KERNEL32.dll
 0000:ffdf3000       .debug$S                   0000000140000000     KERNEL32:KERNEL32.dll
 0000:ffdf3000       .debug$S                   0000000140000000     KERNEL32:KERNEL32.dll
 0000:ffdf3000       .debug$S                   0000000140000000     KERNEL32:KERNEL32.dll
 0000:ffdf3000       .debug$S                   0000000140000000     KERNEL32:KERNEL32.dll
 0000:ffdf3000       .debug$S                   0000000140000000     KERNEL32:KERNEL32.dll
 0000:ffdf3000       .debug$S                   0000000140000000     KERNEL32:KERNEL32.dll
 0000:ffdf3000       .debug$S                   0000000140000000     KERNEL32:KERNEL32.dll
 0000:ffdf3000       .debug$S                   0000000140000000     KERNEL32:KERNEL32.dll
 0000:ffdf3000       .debug$S                   0000000140000000     KERNEL32:KERNEL32.dll
 0000:ffdf3000       .debug$S                   0000000140000000     KERNEL32:KERNEL32.dll
 0000:ffdf3000       .debug$S                   0000000140000000     KERNEL32:KERNEL32.dll
 0002:ffeb6000       $unwind$_invoke_watson_if_error 0000000140000000     LIBCMT:setenv.obj
 0004:ffe06000       $pdata$_invoke_watson_if_error 0000000140000000     LIBCMT:setenv.obj
 0000:ffdf3000       .debug$S                   0000000140000000     KERNEL32:KERNEL32.dll
 0000:ffdf3000       .debug$S                   0000000140000000     KERNEL32:KERNEL32.dll
 0000:ffdf3000       .debug$S                   0000000140000000     KERNEL32:KERNEL32.dll
 0000:ffdf3000       .debug$S                   0000000140000000     KERNEL32:KERNEL32.dll
 0000:ffdf3000       .debug$S                   0000000140000000     KERNEL32:KERNEL32.dll
 0000:ffdf3000       .debug$S                   0000000140000000     KERNEL32:KERNEL32.dll
 0000:ffdf3000       .debug$S                   0000000140000000     KERNEL32:KERNEL32.dll
 0000:ffdf3000       .debug$S                   0000000140000000     KERNEL32:KERNEL32.dll
 0000:ffdf3000       .debug$S                   0000000140000000     KERNEL32:KERNEL32.dll
 0000:ffdf3000       .debug$S                   0000000140000000     KERNEL32:KERNEL32.dll
 0002:ffeb6000       $unwind$_invoke_watson_if_error 0000000140000000     LIBCMT:strdup.obj
 0004:ffe06000       $pdata$_invoke_watson_if_error 0000000140000000     LIBCMT:strdup.obj
 0000:ffdf3000       .debug$S                   0000000140000000     KERNEL32:KERNEL32.dll
 0000:ffdf3000       .debug$S                   0000000140000000     KERNEL32:KERNEL32.dll
 0000:ffdf3000       .debug$S                   0000000140000000     KERNEL32:KERNEL32.dll
 0000:ffdf3000       .debug$S                   0000000140000000     KERNEL32:KERNEL32.dll
 0000:ffdf3000       .debug$S                   0000000140000000     KERNEL32:KERNEL32.dll
 0000:ffdf3000       .debug$S                   0000000140000000     KERNEL32:KERNEL32.dll
 0000:ffdf3000       .debug$S                   0000000140000000     KERNEL32:KERNEL32.dll
 0000:ffdf3000       .debug$S                   0000000140000000     KERNEL32:KERNEL32.dll
 0000:ffdf3000       .debug$S                   0000000140000000     KERNEL32:KERNEL32.dll
 0000:ffdf3000       .debug$S                   0000000140000000     KERNEL32:KERNEL32.dll
 0000:ffdf3000       .debug$S                   0000000140000000     KERNEL32:KERNEL32.dll
 0002:ffeb6000       $unwind$??0_LocaleUpdate@@QEAA@PEAUlocaleinfo_struct@@@Z 0000000140000000     LIBCMT:_ctype.obj
 0000:ffdf3000       .debug$S                   0000000140000000     KERNEL32:KERNEL32.dll
 0004:ffe06000       $pdata$??0_LocaleUpdate@@QEAA@PEAUlocaleinfo_struct@@@Z 0000000140000000     LIBCMT:_ctype.obj
 0000:ffdf3000       .debug$S                   0000000140000000     KERNEL32:KERNEL32.dll
 0002:ffeb6000       $unwind$??0_LocaleUpdate@@QEAA@PEAUlocaleinfo_struct@@@Z 0000000140000000     LIBCMT:_wctype.obj
 0000:ffdf3000       .debug$S                   0000000140000000     KERNEL32:KERNEL32.dll
 0004:ffe06000       $pdata$??0_LocaleUpdate@@QEAA@PEAUlocaleinfo_struct@@@Z 0000000140000000     LIBCMT:_wctype.obj
 0000:ffdf3000       .debug$S                   0000000140000000     KERNEL32:KERNEL32.dll
 0002:ffeb6000       $unwind$??0_LocaleUpdate@@QEAA@PEAUlocaleinfo_struct@@@Z 0000000140000000     LIBCMT:atodbl.obj
 0004:ffe06000       $pdata$??0_LocaleUpdate@@QEAA@PEAUlocaleinfo_struct@@@Z 0000000140000000     LIBCMT:atodbl.obj
 0002:ffeb6000       $unwind$??0_LocaleUpdate@@QEAA@PEAUlocaleinfo_struct@@@Z 0000000140000000     LIBCMT:isctype.obj
 0004:ffe06000       $pdata$??0_LocaleUpdate@@QEAA@PEAUlocaleinfo_struct@@@Z 0000000140000000     LIBCMT:isctype.obj
 0002:ffeb6000       $unwind$??0_LocaleUpdate@@QEAA@PEAUlocaleinfo_struct@@@Z 0000000140000000     LIBCMT:mbtowc.obj
 0000:ffdf3000       .debug$S                   0000000140000000     KERNEL32:KERNEL32.dll
 0004:ffe06000       $pdata$??0_LocaleUpdate@@QEAA@PEAUlocaleinfo_struct@@@Z 0000000140000000     LIBCMT:mbtowc.obj
 0002:ffeb6000       $unwind$??0_LocaleUpdate@@QEAA@PEAUlocaleinfo_struct@@@Z 0000000140000000     LIBCMT:strtod.obj
 0004:ffe06000       $pdata$??0_LocaleUpdate@@QEAA@PEAUlocaleinfo_struct@@@Z 0000000140000000     LIBCMT:strtod.obj
 0000:ffdf3000       .debug$S                   0000000140000000     KERNEL32:KERNEL32.dll
 0002:ffeb6000       $unwind$??0_LocaleUpdate@@QEAA@PEAUlocaleinfo_struct@@@Z 0000000140000000     LIBCMT:strtol.obj
 0004:ffe06000       $pdata$??0_LocaleUpdate@@QEAA@PEAUlocaleinfo_struct@@@Z 0000000140000000     LIBCMT:strtol.obj
 0000:ffdf3000       .debug$S                   0000000140000000     KERNEL32:KERNEL32.dll
 0002:ffeb6000       $unwind$??0_LocaleUpdate@@QEAA@PEAUlocaleinfo_struct@@@Z 0000000140000000     LIBCMT:strtoq.obj
 0004:ffe06000       $pdata$??0_LocaleUpdate@@QEAA@PEAUlocaleinfo_struct@@@Z 0000000140000000     LIBCMT:strtoq.obj
 0002:ffeb6000       $unwind$??0_LocaleUpdate@@QEAA@PEAUlocaleinfo_struct@@@Z 0000000140000000     LIBCMT:tolower.obj
 0004:ffe06000       $pdata$??0_LocaleUpdate@@QEAA@PEAUlocaleinfo_struct@@@Z 0000000140000000     LIBCMT:tolower.obj
 0000:ffdf3000       .debug$S                   0000000140000000     KERNEL32:KERNEL32.dll
 0002:ffeb6000       $unwind$??0_LocaleUpdate@@QEAA@PEAUlocaleinfo_struct@@@Z 0000000140000000     LIBCMT:towlower.obj
 0004:ffe06000       $pdata$??0_LocaleUpdate@@QEAA@PEAUlocaleinfo_struct@@@Z 0000000140000000     LIBCMT:towlower.obj
 0002:ffeb6000       $unwind$??0_LocaleUpdate@@QEAA@PEAUlocaleinfo_struct@@@Z 0000000140000000     LIBCMT:wcstod.obj
 0004:ffe06000       $pdata$??0_LocaleUpdate@@QEAA@PEAUlocaleinfo_struct@@@Z 0000000140000000     LIBCMT:wcstod.obj
 0000:ffdf3000       .debug$S                   0000000140000000     KERNEL32:KERNEL32.dll
 0000:ffdf3000       .debug$S                   0000000140000000     KERNEL32:KERNEL32.dll
 0000:ffdf3000       .debug$S                   0000000140000000     KERNEL32:KERNEL32.dll
 0002:ffeb6000       $unwind$??0_LocaleUpdate@@QEAA@PEAUlocaleinfo_struct@@@Z 0000000140000000     LIBCMT:wcstoq.obj
 0000:ffdf3000       .debug$S                   0000000140000000     KERNEL32:KERNEL32.dll
 0004:ffe06000       $pdata$??0_LocaleUpdate@@QEAA@PEAUlocaleinfo_struct@@@Z 0000000140000000     LIBCMT:wcstoq.obj
 0000:ffdf3000       .debug$S                   0000000140000000     KERNEL32:KERNEL32.dll
 0002:ffeb6000       $unwind$??0_LocaleUpdate@@QEAA@PEAUlocaleinfo_struct@@@Z 0000000140000000     LIBCMT:ismbbyte.obj
 0004:ffe06000       $pdata$??0_LocaleUpdate@@QEAA@PEAUlocaleinfo_struct@@@Z 0000000140000000     LIBCMT:ismbbyte.obj
 0000:ffdf3000       .debug$S                   0000000140000000     KERNEL32:KERNEL32.dll
 0000:ffdf3000       .debug$S                   0000000140000000     KERNEL32:KERNEL32.dll
 0000:ffdf3000       .debug$S                   0000000140000000     KERNEL32:KERNEL32.dll
 0000:ffdf3000       .debug$S                   0000000140000000     KERNEL32:KERNEL32.dll
 0000:ffdf3000       .debug$S                   0000000140000000     KERNEL32:KERNEL32.dll
 0000:ffdf3000       .debug$S                   0000000140000000     KERNEL32:KERNEL32.dll
 0000:ffdf3000       .debug$S                   0000000140000000     KERNEL32:KERNEL32.dll
 0000:ffdf3000       .debug$S                   0000000140000000     KERNEL32:KERNEL32.dll
 0002:ffeb6000       $unwind$??0_LocaleUpdate@@QEAA@PEAUlocaleinfo_struct@@@Z 0000000140000000     LIBCMT:mbctype.obj
 0004:ffe06000       $pdata$??0_LocaleUpdate@@QEAA@PEAUlocaleinfo_struct@@@Z 0000000140000000     LIBCMT:mbctype.obj
 0002:ffeb6000       $unwind$??0_LocaleUpdate@@QEAA@PEAUlocaleinfo_struct@@@Z 0000000140000000     LIBCMT:mbsnbcpy_s_l.obj
 0004:ffe06000       $pdata$??0_LocaleUpdate@@QEAA@PEAUlocaleinfo_struct@@@Z 0000000140000000     LIBCMT:mbsnbcpy_s_l.obj
 0002:ffeb6000       $unwind$??0_LocaleUpdate@@QEAA@PEAUlocaleinfo_struct@@@Z 0000000140000000     LIBCMT:mbschr.obj
 0004:ffe06000       $pdata$??0_LocaleUpdate@@QEAA@PEAUlocaleinfo_struct@@@Z 0000000140000000     LIBCMT:mbschr.obj
 0002:ffeb6000       $unwind$??0_LocaleUpdate@@QEAA@PEAUlocaleinfo_struct@@@Z 0000000140000000     LIBCMT:mbsnbico.obj
 0000:ffdf3000       .debug$S                   0000000140000000     KERNEL32:KERNEL32.dll
 0000:ffdf3000       .debug$S                   0000000140000000     KERNEL32:KERNEL32.dll
 0000:ffdf3000       .debug$S                   0000000140000000     KERNEL32:KERNEL32.dll
 0000:ffdf3000       .debug$S                   0000000140000000     KERNEL32:KERNEL32.dll
 0000:ffdf3000       .debug$S                   0000000140000000     KERNEL32:KERNEL32.dll
 0004:ffe06000       $pdata$??0_LocaleUpdate@@QEAA@PEAUlocaleinfo_struct@@@Z 0000000140000000     LIBCMT:mbsnbico.obj
 0000:ffdf3000       .debug$S                   0000000140000000     KERNEL32:KERNEL32.dll
 0000:ffdf3000       .debug$S                   0000000140000000     KERNEL32:KERNEL32.dll
 0002:ffeb6000       $unwind$_freea             0000000140000000     LIBCMT:a_cmp.obj
 0004:ffe06000       $pdata$_freea              0000000140000000     LIBCMT:a_cmp.obj
 0000:ffdf3000       .debug$S                   0000000140000000     KERNEL32:KERNEL32.dll
 0000:ffdf3000       .debug$S                   0000000140000000     KERNEL32:KERNEL32.dll
 0000:ffdf3000       .debug$S                   0000000140000000     KERNEL32:KERNEL32.dll
 0002:ffeb6000       $unwind$??0_LocaleUpdate@@QEAA@PEAUlocaleinfo_struct@@@Z 0000000140000000     LIBCMT:a_cmp.obj
 0004:ffe06000       $pdata$??0_LocaleUpdate@@QEAA@PEAUlocaleinfo_struct@@@Z 0000000140000000     LIBCMT:a_cmp.obj
 0004:ffe06000       $pdata$_invoke_watson_if_error 0000000140000000     LIBCMT:cfout.obj
 0002:ffeb6000       $unwind$_freea             0000000140000000     LIBCMT:a_loc.obj
 0004:ffe06000       $pdata$_freea              0000000140000000     LIBCMT:a_loc.obj
 0000:ffdf3000       .debug$S                   0000000140000000     KERNEL32:KERNEL32.dll
 0002:ffeb6000       $unwind$??0_LocaleUpdate@@QEAA@PEAUlocaleinfo_struct@@@Z 0000000140000000     LIBCMT:a_loc.obj
 0004:ffe06000       $pdata$??0_LocaleUpdate@@QEAA@PEAUlocaleinfo_struct@@@Z 0000000140000000     LIBCMT:a_loc.obj
 0002:ffeb6000       $unwind$_invoke_watson_if_error 0000000140000000     LIBCMT:cfout.obj
 0004:ffe06000       $pdata$__ld12mul           0000000140000000     LIBCMT:wstrgtold.obj
 0002:ffeb6000       $unwind$??0_LocaleUpdate@@QEAA@PEAUlocaleinfo_struct@@@Z 0000000140000000     LIBCMT:a_map.obj
 0004:ffe06000       $pdata$??0_LocaleUpdate@@QEAA@PEAUlocaleinfo_struct@@@Z 0000000140000000     LIBCMT:a_map.obj
 0002:ffeb6000       $unwind$__ld12mul          0000000140000000     LIBCMT:wstrgtold.obj
 0002:ffeb6000       $unwind$_freea             0000000140000000     LIBCMT:a_str.obj
 0004:ffe06000       $pdata$_freea              0000000140000000     LIBCMT:a_str.obj
 0002:ffeb6000       $unwind$??0_LocaleUpdate@@QEAA@PEAUlocaleinfo_struct@@@Z 0000000140000000     LIBCMT:a_str.obj
 0004:ffe06000       $pdata$??0_LocaleUpdate@@QEAA@PEAUlocaleinfo_struct@@@Z 0000000140000000     LIBCMT:a_str.obj
 0002:ffeb6000       $unwind$??0_LocaleUpdate@@QEAA@PEAUlocaleinfo_struct@@@Z 0000000140000000     LIBCMT:strnicmp.obj
 0004:ffe06000       $pdata$??0_LocaleUpdate@@QEAA@PEAUlocaleinfo_struct@@@Z 0000000140000000     LIBCMT:strnicmp.obj
 0002:ffeb6000       $unwind$??0_LocaleUpdate@@QEAA@PEAUlocaleinfo_struct@@@Z 0000000140000000     LIBCMT:strnicol.obj
 0004:ffe06000       $pdata$??0_LocaleUpdate@@QEAA@PEAUlocaleinfo_struct@@@Z 0000000140000000     LIBCMT:strnicol.obj
 0000:ffdf3000       .debug$S                   0000000140000000     KERNEL32:KERNEL32.dll
 0002:ffeb6000       $unwind$??0_LocaleUpdate@@QEAA@PEAUlocaleinfo_struct@@@Z 0000000140000000     LIBCMT:wcsicmp.obj
 0004:ffe06000       $pdata$??0_LocaleUpdate@@QEAA@PEAUlocaleinfo_struct@@@Z 0000000140000000     LIBCMT:wcsicmp.obj
 0002:ffeb6000       $unwind$??0_LocaleUpdate@@QEAA@PEAUlocaleinfo_struct@@@Z 0000000140000000     LIBCMT:wcsnicmp.obj
 0004:ffe06000       $pdata$??0_LocaleUpdate@@QEAA@PEAUlocaleinfo_struct@@@Z 0000000140000000     LIBCMT:wcsnicmp.obj
 0004:ffe06000       $pdata$__multtenpow12      0000000140000000     LIBCMT:wstrgtold.obj
 0002:ffeb6000       $unwind$__multtenpow12     0000000140000000     LIBCMT:wstrgtold.obj
 0004:ffe06000       $pdata$_invoke_watson_if_error 0000000140000000     LIBCMT:x10fout.obj
 0002:ffeb6000       $unwind$_invoke_watson_if_error 0000000140000000     LIBCMT:stdenvp.obj
 0004:ffe06000       $pdata$_invoke_watson_if_error 0000000140000000     LIBCMT:stdenvp.obj
 0002:ffeb6000       $unwind$_invoke_watson_if_error 0000000140000000     LIBCMT:x10fout.obj
 0004:ffe06000       $pdata$__ld12mul           0000000140000000     LIBCMT:x10fout.obj
 0002:ffeb6000       $unwind$__ld12mul          0000000140000000     LIBCMT:x10fout.obj
 0004:ffe06000       $pdata$__multtenpow12      0000000140000000     LIBCMT:x10fout.obj
 0002:ffeb6000       $unwind$__multtenpow12     0000000140000000     LIBCMT:x10fout.obj
 0002:ffeb6000       $unwind$_invoke_watson_if_error 0000000140000000     LIBCMT:crt0msg.obj
 0004:ffe06000       $pdata$_invoke_watson_if_error 0000000140000000     LIBCMT:crt0msg.obj
 0004:ffe06000       $pdata$_invoke_watson_if_error 0000000140000000     LIBCMT:cvt.obj
 0002:ffeb6000       $unwind$_invoke_watson_if_error 0000000140000000     LIBCMT:cvt.obj
 0004:ffe06000       $pdata$??0_LocaleUpdate@@QEAA@PEAUlocaleinfo_struct@@@Z 0000000140000000     LIBCMT:cvt.obj
 0002:ffeb6000       $unwind$??0_LocaleUpdate@@QEAA@PEAUlocaleinfo_struct@@@Z 0000000140000000     LIBCMT:cvt.obj
 0001:000610b0       ri_find_field              00000001400620b0 f   libifcoremt:for_rint_lis.obj
 0001:000615a0       ri_get_field               00000001400625a0 f   libifcoremt:for_rint_lis.obj
 0001:000620b0       reentrancy_cleanup         00000001400630b0 f   libifcoremt:for_reentrancy.obj
 0001:00062110       kill_resource              0000000140063110 f   libifcoremt:for_reentrancy.obj
 0001:00062120       kill_resource_recurschk    0000000140063120 f   libifcoremt:for_reentrancy.obj
 0001:00062310       create_threadstor_key      0000000140063310 f   libifcoremt:for_reentrancy.obj
 0001:00062cd0       reentrancy_init            0000000140063cd0 f   libifcoremt:for_reentrancy.obj
 0001:00062db0       init_resource_recurschk    0000000140063db0 f   libifcoremt:for_reentrancy.obj
 0001:00062dd0       init_resource              0000000140063dd0 f   libifcoremt:for_reentrancy.obj
 0001:00069750       wseq_complex               000000014006a750 f   libifcoremt:for_wseq_lis.obj
 0001:0007cb00       for__ignore_space          000000014007db00 f   libifcoremt:for_rseq_lis.obj
 0001:0007cd90       rs_cvt_2step               000000014007dd90 f   libifcoremt:for_rseq_lis.obj
 0001:0007d0b0       rs_find_field              000000014007e0b0 f   libifcoremt:for_rseq_lis.obj
 0001:0007d470       rs_get_field               000000014007e470 f   libifcoremt:for_rseq_lis.obj
 0001:00098be0       for__read_ufseq            0000000140099be0 f   libifcoremt:for_rseq.obj
 0001:0009ceb0       get_message                000000014009deb0 f   libifcoremt:for_diags_intel.obj
 0001:0009d750       for__perror                000000014009e750 f   libifcoremt:for_diags_intel.obj
 0001:0009dd10       for__dump_msg_buff         000000014009ed10 f   libifcoremt:for_diags_intel.obj
 0001:0009e220       redirect_stderr            000000014009f220 f   libifcoremt:for_diags_intel.obj
 0001:0009e310       for__icaf_abort            000000014009f310 f   libifcoremt:for_diags_intel.obj
 0001:0009ee30       for_gerror_i               000000014009fe30 f   libifcoremt:for_diags_intel.obj
 0001:000a3900       enter_cr_and_find_lub      00000001400a4900 f   libifcoremt:for_lub_mgt.obj
 0001:000a5350       find_min_lun               00000001400a6350 f   libifcoremt:for_lub_mgt.obj
 0001:000a5390       process_existing_lub       00000001400a6390 f   libifcoremt:for_lub_mgt.obj
 0001:000a6730       aio__routine               00000001400a7730 f   libifcoremt:for_aio.obj
 0001:000b6d20       emit_comp_fmt              00000001400b7d20 f   libifcoremt:for_fmt_comp.obj
 0001:000c11b0       backup_critical_fields     00000001400c21b0 f   libifcoremt:for_udio.obj
 0001:000c1530       restore_critical_fields    00000001400c2530 f   libifcoremt:for_udio.obj
 0001:000c1f20       udio_fmt_or_nml            00000001400c2f20 f   libifcoremt:for_udio.obj
 0001:000cbf90       write_UFSEQD_record_to_file 00000001400ccf90 f   libifcoremt:for_wseq.obj
 0001:000cc230       for__finish_direct_write   00000001400cd230 f   libifcoremt:for_wseq.obj
 0001:000cd7f0       for__console_control_handler 00000001400ce7f0 f   libifcoremt:for_init.obj
 0001:000d2080       tbk__dump_context          00000001400d3080 f   libifcoremt:tbk_traceback.obj
 0001:000d271c       tbk_stack_trace_impl       00000001400d371c f   libifcoremt:tbk_traceback.obj
 0001:0010b0a0       __libm_fmodf_dispatch_table_init 000000014010c0a0 f   libmmt:fmodf_iface_disp.obj
 0001:0010b160       __libm_expf_dispatch_table_init 000000014010c160 f   libmmt:expf_iface_disp.obj
 0001:0010b210       __libm_logf_dispatch_table_init 000000014010c210 f   libmmt:logf_iface_disp.obj
 0001:0010b2c0       __libm_cosf_dispatch_table_init 000000014010c2c0 f   libmmt:cosf_iface_disp.obj
 0001:0010b370       __libm_log10f_dispatch_table_init 000000014010c370 f   libmmt:log10f_iface_disp.obj
 0001:0010b420       __libm_sinf_dispatch_table_init 000000014010c420 f   libmmt:sinf_iface_disp.obj
 0001:0010b4d0       __libm_tanf_dispatch_table_init 000000014010c4d0 f   libmmt:tanf_iface_disp.obj
 0001:0010b580       __libm_asinf_dispatch_table_init 000000014010c580 f   libmmt:asinf_iface_disp.obj
 0001:0010b630       __libm_acosf_dispatch_table_init 000000014010c630 f   libmmt:acosf_iface_disp.obj
 0001:0010b6e0       __libm_atan2f_dispatch_table_init 000000014010c6e0 f   libmmt:atan2f_iface_disp.obj
 0001:0010b880       __libm_trunc_dispatch_table_init 000000014010c880 f   libmmt:trunc_iface_disp.obj
 0001:0010b930       __libm_lroundf_dispatch_table_init 000000014010c930 f   libmmt:lroundf_iface_disp.obj
 0001:0010b9e0       __libm_llroundf_dispatch_table_init 000000014010c9e0 f   libmmt:llroundf_iface_disp.obj
 0001:0010ba90       __libm_lround_dispatch_table_init 000000014010ca90 f   libmmt:lround_iface_disp.obj
 0001:0010bb40       __libm_llround_dispatch_table_init 000000014010cb40 f   libmmt:llround_iface_disp.obj
 0001:00110e20       __libm_fmod_dispatch_table_init 0000000140111e20 f   libmmt:fmod_iface_disp.obj
 0001:00111040       write_message              0000000140112040 f   libmmt:libm_error.obj
 0001:00111cc0       __libm_tan_dispatch_table_init 0000000140112cc0 f   libmmt:tan_iface_disp.obj
 0001:00114440       wrapper_sprintf_s          0000000140115440 f   libirc:intel_lib_vs_wrappers_init.obj
 0001:00114480       wrapper_snprintf_s         0000000140115480 f   libirc:intel_lib_vs_wrappers_init.obj
 0001:001144c0       wrapper_swprintf_s         00000001401154c0 f   libirc:intel_lib_vs_wrappers_init.obj
 0001:00114500       wrapper_vsprintf_s         0000000140115500 f   libirc:intel_lib_vs_wrappers_init.obj
 0001:00114520       wrapper__vsnprintf_s       0000000140115520 f   libirc:intel_lib_vs_wrappers_init.obj
 0001:00114550       wrapper_fopen_s            0000000140115550 f   libirc:intel_lib_vs_wrappers_init.obj
 0001:00114590       wrapper_freopen_s          0000000140115590 f   libirc:intel_lib_vs_wrappers_init.obj
 0001:001145d0       wrapper__wfopen_s          00000001401155d0 f   libirc:intel_lib_vs_wrappers_init.obj
 0001:00114610       wrapper_oc___iob_func      0000000140115610 f   libirc:intel_lib_vs_wrappers_init.obj
 0001:00114620       wrapper_oc_printf          0000000140115620 f   libirc:intel_lib_vs_wrappers_init.obj
 0001:001146c0       wrapper_oc_fprintf         00000001401156c0 f   libirc:intel_lib_vs_wrappers_init.obj
 0001:00114760       wrapper_oc_vprintf         0000000140115760 f   libirc:intel_lib_vs_wrappers_init.obj
 0001:001147e0       wrapper_oc_vfprintf        00000001401157e0 f   libirc:intel_lib_vs_wrappers_init.obj
 0001:00114860       wrapper_oc_wprintf         0000000140115860 f   libirc:intel_lib_vs_wrappers_init.obj
 0001:00114900       wrapper_oc_fwprintf        0000000140115900 f   libirc:intel_lib_vs_wrappers_init.obj
 0001:001149a0       wrapper_oc_sprintf         00000001401159a0 f   libirc:intel_lib_vs_wrappers_init.obj
 0001:00114a00       wrapper_oc__snprintf       0000000140115a00 f   libirc:intel_lib_vs_wrappers_init.obj
 0001:00114a60       wrapper_oc_vsprintf        0000000140115a60 f   libirc:intel_lib_vs_wrappers_init.obj
 0001:00114aa0       wrapper_oc__vsnprintf      0000000140115aa0 f   libirc:intel_lib_vs_wrappers_init.obj
 0001:00114ae0       wrapper_oc__vscprintf      0000000140115ae0 f   libirc:intel_lib_vs_wrappers_init.obj
 0001:00114b20       wrapper_oc_vswprintf       0000000140115b20 f   libirc:intel_lib_vs_wrappers_init.obj
 0001:00114b60       wrapper_oc_sscanf          0000000140115b60 f   libirc:intel_lib_vs_wrappers_init.obj
 0001:00115100       error__errno               0000000140116100 f   libirc:intel_lib_vs_wrappers_init.obj
 0001:00115110       error_1                    0000000140116110 f   libirc:intel_lib_vs_wrappers_init.obj
 0001:00115120       error_0                    0000000140116120 f   libirc:intel_lib_vs_wrappers_init.obj
 0001:00117590       addq_abs.L                 0000000140118590 f   libirc:ia32_addsubq.obj
 0001:00118020       subq_abs.L                 0000000140119020 f   libirc:ia32_addsubq.obj
 0001:00118950       subq_abs                   0000000140119950 f   libirc:ia32_addsubq.obj
 0001:00118980       addq_abs                   0000000140119980 f   libirc:ia32_addsubq.obj
 0001:001189d0       addq_abs.A                 00000001401199d0 f   libirc:ia32_addsubq.obj
 0001:001199a0       subq_abs.A                 000000014011a9a0 f   libirc:ia32_addsubq.obj
 0001:0011c3b0       stackwalk_cb               000000014011d3b0 f   libirc:tbk_display.obj
 0001:0011ce60       __intel_cpu_features_init_body 000000014011de60 f   libirc:cpu_feature_disp.obj
 0001:00126f70       __sti____libirc_copy_loop_threshold 0000000140127f70 f   libirc:fast_mem_ops.obj
 0001:00126f90       __sti____libirc_rep_move_threshold 0000000140127f90 f   libirc:fast_mem_ops.obj
 0001:00126fb0       __sti____libirc_set_loop_threshold 0000000140127fb0 f   libirc:fast_mem_ops.obj
 0001:00126fd0       __sti____libirc_tmp        0000000140127fd0 f   libirc:fast_mem_ops.obj
 0001:00128b90       $$000000                   0000000140129b90     LIBCMT:chkstk.obj
 0001:00128bf0       $$000000                   0000000140129bf0     LIBCMT:memcpy.obj
 0001:00128ce0       MoveSmall                  0000000140129ce0     LIBCMT:memcpy.obj
 0001:00129168       __tmainCRTStartup          000000014012a168 f   LIBCMT:crt0.obj
 0001:001292e8       check_managed_app          000000014012a2e8 f   LIBCMT:crt0.obj
 0001:00129334       fast_error_exit            000000014012a334 f   LIBCMT:crt0.obj
 0001:00129380       $$000000                   000000014012a380     LIBCMT:amdsecgs.obj
 0001:00129850       $$000000                   000000014012a850     LIBCMT:strncpy.obj
 0001:0012a070       ctrlevent_capture          000000014012b070 f   LIBCMT:winsig.obj
 0001:0012a338       siglookup                  000000014012b338 f   LIBCMT:winsig.obj
 0001:0012a750       _onexit_nolock             000000014012b750 f   LIBCMT:onexit.obj
 0001:0012a950       _callthreadstart           000000014012b950 f   LIBCMT:thread.obj
 0001:0012a9b0       _threadstart               000000014012b9b0 f   LIBCMT:thread.obj
 0001:0012b000       _initterm                  000000014012c000 f   LIBCMT:crt0dat.obj
 0001:0012b0b4       doexit                     000000014012c0b4 f   LIBCMT:crt0dat.obj
 0001:0012d448       _dupenv_s_helper           000000014012e448 f   LIBCMT:getenv.obj
 0001:0012d5c0       _getenv_s_helper           000000014012e5c0 f   LIBCMT:getenv.obj
 0001:0012d7ec       _abstract_cw               000000014012e7ec f   LIBCMT:ieee.obj
 0001:0012d888       _abstract_sw               000000014012e888 f   LIBCMT:ieee.obj
 0001:0012dbbc       _hw_cw                     000000014012ebbc f   LIBCMT:ieee.obj
 0001:0012e290       _cftoe2_l                  000000014012f290 f   LIBCMT:cvt.obj
 0001:0012e598       _cftof2_l                  000000014012f598 f   LIBCMT:cvt.obj
 0001:0012eaa4       _shift                     000000014012faa4 f   LIBCMT:cvt.obj
 0001:0012eee8       xcptlookup                 000000014012fee8 f   LIBCMT:winxfltr.obj
 0001:0012f784       parse_cmdline              0000000140130784 f   LIBCMT:stdargv.obj
 0001:0013084c       ?CPtoLocaleName@@YAPEB_WH@Z 000000014013184c f   LIBCMT:mbctype.obj
 0001:00130888       ?getSystemCP@@YAHH@Z       0000000140131888 f   LIBCMT:mbctype.obj
 0001:00130908       ?setSBCS@@YAXPEAUthreadmbcinfostruct@@@Z 0000000140131908 f   LIBCMT:mbctype.obj
 0001:00130998       ?setSBUpLow@@YAXPEAUthreadmbcinfostruct@@@Z 0000000140131998 f   LIBCMT:mbctype.obj
 0001:001314ec       ?__crtLCMapStringA_stat@@YAHPEAUlocaleinfo_struct@@PEB_WKPEBDHPEADHHH@Z 00000001401324ec f   LIBCMT:a_map.obj
 0001:001317d8       ?strncnt@@YAHPEBDH@Z       00000001401327d8 f   LIBCMT:a_map.obj
 0001:00131c8c       _copytlocinfo_nolock       0000000140132c8c f   LIBCMT:wsetloca.obj
 0001:001325d0       _wsetlocale_get_all        00000001401335d0 f   LIBCMT:wsetloca.obj
 0001:001327a4       _wsetlocale_nolock         00000001401337a4 f   LIBCMT:wsetloca.obj
 0001:00132a10       _wsetlocale_set_cat        0000000140133a10 f   LIBCMT:wsetloca.obj
 0001:00132d20       sync_legacy_variables_lk   0000000140133d20 f   LIBCMT:wsetloca.obj
 0001:00133050       $$000000                   0000000140134050     LIBCMT:memset.obj
 0001:001331f5       MsetTab                    00000001401341f5     LIBCMT:memset.obj
 0001:00133388       _is_LFH_enabled            0000000140134388 f   LIBCMT:expand.obj
 0001:00133878       __IsPackagedAppHelper      0000000140134878 f   LIBCMT:winapisupp.obj
 0001:0013480c       ?strtoxq@@YA_KPEAUlocaleinfo_struct@@PEBDPEAPEBDHH@Z 000000014013580c f   LIBCMT:strtoq.obj
 0001:00134c18       ?strtoxl@@YAKPEAUlocaleinfo_struct@@PEBDPEAPEBDHH@Z 0000000140135c18 f   LIBCMT:strtol.obj
 0001:00135390       $$000000                   0000000140136390     LIBCMT:strlen.obj
 0001:001356a0       $$000000                   00000001401366a0     LIBCMT:fpsr.obj
 0001:00136170       $$000000                   0000000140137170     LIBCMT:jmpuwind.obj
 0001:001361e4       ?x_ismbbtype_l@@YAHPEAUlocaleinfo_struct@@IHH@Z 00000001401371e4 f   LIBCMT:ismbbyte.obj
 0001:00136f6c       fix_grouping               0000000140137f6c f   LIBCMT:initmon.obj
 0001:001372dc       fix_grouping               00000001401382dc f   LIBCMT:initnum.obj
 0001:001377b4       _get_lc_time               00000001401387b4 f   LIBCMT:inittime.obj
 0001:00138368       ?__crtGetStringTypeA_stat@@YAHPEAUlocaleinfo_struct@@KPEBDHPEAGHH@Z 0000000140139368 f   LIBCMT:a_str.obj
 0001:00138818       __crtEnumLocalesProc       0000000140139818 f   LIBCMT:winapinls.obj
 0001:00139080       $$000000                   000000014013a080     LIBCMT:memcmp.obj
 0001:00139258       GetLocaleNameFromDefault   000000014013a258 f   LIBCMT:getqloc.obj
 0001:001392e8       GetLocaleNameFromLangCountry 000000014013a2e8 f   LIBCMT:getqloc.obj
 0001:00139398       GetLocaleNameFromLanguage  000000014013a398 f   LIBCMT:getqloc.obj
 0001:00139420       GetPrimaryLen              000000014013a420 f   LIBCMT:getqloc.obj
 0001:00139450       LangCountryEnumProcEx      000000014013a450 f   LIBCMT:getqloc.obj
 0001:001397dc       LanguageEnumProcEx         000000014013a7dc f   LIBCMT:getqloc.obj
 0001:001398bc       ProcessCodePage            000000014013a8bc f   LIBCMT:getqloc.obj
 0001:00139970       TestDefaultCountry         000000014013a970 f   LIBCMT:getqloc.obj
 0001:001399d8       TestDefaultLanguage        000000014013a9d8 f   LIBCMT:getqloc.obj
 0001:00139a48       TranslateName              000000014013aa48 f   LIBCMT:getqloc.obj
 0001:00139d70       CountryEnumProc            000000014013ad70 f   LIBCMT:getqloc_downlevel.obj
 0001:00139e5c       GetLcidFromCountry         000000014013ae5c f   LIBCMT:getqloc_downlevel.obj
 0001:00139eb4       GetLcidFromDefault         000000014013aeb4 f   LIBCMT:getqloc_downlevel.obj
 0001:00139ed8       GetLcidFromLangCountry     000000014013aed8 f   LIBCMT:getqloc_downlevel.obj
 0001:00139f8c       GetLcidFromLanguage        000000014013af8c f   LIBCMT:getqloc_downlevel.obj
 0001:0013a020       GetPrimaryLen              000000014013b020 f   LIBCMT:getqloc_downlevel.obj
 0001:0013a048       LangCountryEnumProc        000000014013b048 f   LIBCMT:getqloc_downlevel.obj
 0001:0013a278       LanguageEnumProc           000000014013b278 f   LIBCMT:getqloc_downlevel.obj
 0001:0013a374       LcidFromHexString          000000014013b374 f   LIBCMT:getqloc_downlevel.obj
 0001:0013a3c4       ProcessCodePage            000000014013b3c4 f   LIBCMT:getqloc_downlevel.obj
 0001:0013a474       TestDefaultCountry         000000014013b474 f   LIBCMT:getqloc_downlevel.obj
 0001:0013a49c       TestDefaultLanguage        000000014013b49c f   LIBCMT:getqloc_downlevel.obj
 0001:0013a544       TranslateName              000000014013b544 f   LIBCMT:getqloc_downlevel.obj
 0001:0013a99c       ?__crtGetLocaleInfoA_stat@@YAHPEAUlocaleinfo_struct@@PEB_WKPEADH@Z 000000014013b99c f   LIBCMT:a_loc.obj
 0001:0013ac88       flsall                     000000014013bc88 f   LIBCMT:fflush.obj
 0001:0013b2dc       copy_environ               000000014013c2dc f   LIBCMT:setenv.obj
 0001:0013b364       findenv                    000000014013c364 f   LIBCMT:setenv.obj
 0001:0013b500       ?__crtCompareStringA_stat@@YAHPEAUlocaleinfo_struct@@PEB_WKPEBDH2HH@Z 000000014013c500 f   LIBCMT:a_cmp.obj
 0001:0013b868       ?strncnt@@YAHPEBDH@Z       000000014013c868 f   LIBCMT:a_cmp.obj
 0001:0013ec54       x64tow_s                   000000014013fc54 f   LIBCMT:xtows.obj
 0001:0013ed68       xtow_s                     000000014013fd68 f   LIBCMT:xtows.obj
 0001:0013fa48       ?wcstoxl@@YAKPEB_WPEAPEB_WHH@Z 0000000140140a48 f   LIBCMT:wcstol.obj
 0001:0013fc58       ?wcstoxq@@YA_KPEAUlocaleinfo_struct@@PEB_WPEAPEB_WHH@Z 0000000140140c58 f   LIBCMT:wcstoq.obj
 0001:00141560       $$000000                   0000000140142560     LIBCMT:strncat.obj
 0001:00141880       $$000000                   0000000140142880     LIBCMT:strcat.obj
 0001:00141a70       _splitpath_helper          0000000140142a70 f   LIBCMT:splitpat.obj
 0001:00141d30       ax0                        0000000140142d30 f   LIBCMT:filter_simd.obj
 0001:00141d3c       ax8                        0000000140142d3c f   LIBCMT:filter_simd.obj
 0001:00141d50       ax32                       0000000140142d50 f   LIBCMT:filter_simd.obj
 0001:00141d60       cx0                        0000000140142d60 f   LIBCMT:filter_simd.obj
 0001:00141d70       cx8                        0000000140142d70 f   LIBCMT:filter_simd.obj
 0001:00141d84       cx32                       0000000140142d84 f   LIBCMT:filter_simd.obj
 0001:00141d98       dx0                        0000000140142d98 f   LIBCMT:filter_simd.obj
 0001:00141da8       dx8                        0000000140142da8 f   LIBCMT:filter_simd.obj
 0001:00141dbc       dx32                       0000000140142dbc f   LIBCMT:filter_simd.obj
 0001:00141dd0       bx0                        0000000140142dd0 f   LIBCMT:filter_simd.obj
 0001:00141de0       bx8                        0000000140142de0 f   LIBCMT:filter_simd.obj
 0001:00141df4       bx32                       0000000140142df4 f   LIBCMT:filter_simd.obj
 0001:00141e08       sib0                       0000000140142e08 f   LIBCMT:filter_simd.obj
 0001:00142098       sib8                       0000000140143098 f   LIBCMT:filter_simd.obj
 0001:00142334       sib32                      0000000140143334 f   LIBCMT:filter_simd.obj
 0001:001425cc       d32                        00000001401435cc f   LIBCMT:filter_simd.obj
 0001:001425e0       bp8                        00000001401435e0 f   LIBCMT:filter_simd.obj
 0001:001425f4       bp32                       00000001401435f4 f   LIBCMT:filter_simd.obj
 0001:00142608       si0                        0000000140143608 f   LIBCMT:filter_simd.obj
 0001:00142618       si8                        0000000140143618 f   LIBCMT:filter_simd.obj
 0001:0014262c       si32                       000000014014362c f   LIBCMT:filter_simd.obj
 0001:00142640       di0                        0000000140143640 f   LIBCMT:filter_simd.obj
 0001:00142650       di8                        0000000140143650 f   LIBCMT:filter_simd.obj
 0001:00142664       di32                       0000000140143664 f   LIBCMT:filter_simd.obj
 0001:00142678       reg                        0000000140143678 f   LIBCMT:filter_simd.obj
 0001:0014267c       AdjustExceptionResult      000000014014367c f   LIBCMT:filter_simd.obj
 0001:00142864       DppxEmulationWrapper       0000000140143864 f   LIBCMT:filter_simd.obj
 0001:00142a68       LoadOperand                0000000140143a68 f   LIBCMT:filter_simd.obj
 0001:00142d88       LoopDppxSimdValue          0000000140143d88 f   LIBCMT:filter_simd.obj
 0001:00142fe4       SetPniOperation            0000000140143fe4 f   LIBCMT:filter_simd.obj
 0001:00143044       UpdateResult               0000000140144044 f   LIBCMT:filter_simd.obj
 0001:00144778       RoundFloatToIntegral       0000000140145778 f   LIBCMT:xmmi_fp_emul.obj
 0001:00145af8       __Fill_FPIEEE_RECORD       0000000140146af8 f   LIBCMT:xmmi_fp_emul.obj
 0001:00145bec       __isnanf                   0000000140146bec f   LIBCMT:xmmi_fp_emul.obj
 0001:00145c0c       fp32_is_denormal           0000000140146c0c f   LIBCMT:xmmi_fp_emul.obj
 0001:00145c48       fp32_is_qnan               0000000140146c48 f   LIBCMT:xmmi_fp_emul.obj
 0001:00145c64       fp32_is_snan               0000000140146c64 f   LIBCMT:xmmi_fp_emul.obj
 0001:00147758       __Fill_FPIEEE_RECORD2      0000000140148758 f   LIBCMT:xmmi2_fp_emul.obj
 0001:0014784c       __isnand                   000000014014884c f   LIBCMT:xmmi2_fp_emul.obj
 0001:001479d0       $$000000                   00000001401489d0     LIBCMT:sse_funcs.obj
 0001:00147e00       __tmainCRTStartup$filt$0   0000000140148e00 f   LIBCMT:crt0.obj
 0001:00147e1e       ctrlevent_capture$fin$0    0000000140148e1e f   LIBCMT:winsig.obj
 0001:00147e34       raise$fin$0                0000000140148e34 f   LIBCMT:winsig.obj
 0001:00147e52       signal$fin$0               0000000140148e52 f   LIBCMT:winsig.obj
 0001:00147e68       _onexit$fin$0              0000000140148e68 f   LIBCMT:onexit.obj
 0001:00147e7c       _callthreadstart$filt$0    0000000140148e7c f   LIBCMT:thread.obj
 0001:00147e9a       doexit$fin$0               0000000140148e9a f   LIBCMT:crt0dat.obj
 0001:00147ebe       __lock_fhandle$fin$0       0000000140148ebe f   LIBCMT:osfinfo.obj
 0001:00147ed7       _alloc_osfhnd$fin$0        0000000140148ed7 f   LIBCMT:osfinfo.obj
 0001:00147ef2       _alloc_osfhnd$fin$1        0000000140148ef2 f   LIBCMT:osfinfo.obj
 0001:00147f0b       _open_osfhandle$fin$0      0000000140148f0b f   LIBCMT:osfinfo.obj
 0001:00147f4c       _write$fin$0               0000000140148f4c f   LIBCMT:write.obj
 0001:00147f63       _dupenv_s$fin$0            0000000140148f63 f   LIBCMT:getenv.obj
 0001:00147f7c       getenv$fin$0               0000000140148f7c f   LIBCMT:getenv.obj
 0001:00147f95       getenv_s$fin$0             0000000140148f95 f   LIBCMT:getenv.obj
 0001:00147fae       _control87$filt$0          0000000140148fae f   LIBCMT:ieee.obj
 0001:00147fda       fputs$fin$0                0000000140148fda f   LIBCMT:fputs.obj
 0001:00147ff2       _freefls$fin$1             0000000140148ff2 f   LIBCMT:tidtable.obj
 0001:0014800b       _freefls$fin$0             000000014014900b f   LIBCMT:tidtable.obj
 0001:00148024       _initptd$fin$1             0000000140149024 f   LIBCMT:tidtable.obj
 0001:0014803d       _initptd$fin$0             000000014014903d f   LIBCMT:tidtable.obj
 0001:00148056       _ioinit$fin$0              0000000140149056 f   LIBCMT:ioinit.obj
 0001:00148071       __updatetlocinfo$fin$0     0000000140149071 f   LIBCMT:localref.obj
 0001:0014808a       __updatetmbcinfo$fin$0     000000014014908a f   LIBCMT:mbctype.obj
 0001:001480a3       _setmbcp$fin$0             00000001401490a3 f   LIBCMT:mbctype.obj
 0001:001480bc       _free_locale$fin$1         00000001401490bc f   LIBCMT:wsetloca.obj
 0001:001480d5       _free_locale$fin$0         00000001401490d5 f   LIBCMT:wsetloca.obj
 0001:001480ee       _get_current_locale$fin$1  00000001401490ee f   LIBCMT:wsetloca.obj
 0001:00148107       _get_current_locale$fin$0  0000000140149107 f   LIBCMT:wsetloca.obj
 0001:00148120       _locterm$fin$0             0000000140149120 f   LIBCMT:wsetloca.obj
 0001:00148139       _wsetlocale$fin$1          0000000140149139 f   LIBCMT:wsetloca.obj
 0001:00148154       _wsetlocale$fin$0          0000000140149154 f   LIBCMT:wsetloca.obj
 0001:0014816f       _wsetlocale$fin$2          000000014014916f f   LIBCMT:wsetloca.obj
 0001:0014818a       _mtinitlocknum$fin$0       000000014014918a f   LIBCMT:mlock.obj
 0001:001481b0       _IsNonwritableInCurrentImage$filt$0 00000001401491b0 f   LIBCMT:pesect.obj
 0001:001481d0       _lseeki64$fin$0            00000001401491d0 f   LIBCMT:lseeki64.obj
 0001:001481e7       _putwch$fin$0              00000001401491e7 f   LIBCMT:putwch.obj
 0001:00148200       fwrite$fin$0               0000000140149200 f   LIBCMT:fwrite.obj
 0001:00148218       fflush$fin$0               0000000140149218 f   LIBCMT:fflush.obj
 0001:00148230       flsall$fin$0               0000000140149230 f   LIBCMT:fflush.obj
 0001:00148258       flsall$fin$1               0000000140149258 f   LIBCMT:fflush.obj
 0001:00148271       _fcloseall$fin$0           0000000140149271 f   LIBCMT:closeall.obj
 0001:0014828a       _commit$fin$0              000000014014928a f   LIBCMT:commit.obj
 0001:001482a1       fclose$fin$0               00000001401492a1 f   LIBCMT:fclose.obj
 0001:001482b9       _close$fin$0               00000001401492b9 f   LIBCMT:close.obj
 0002:000005a0       pinit                      000000014014a5a0     LIBCMT:onexit.obj
 0002:000005a8       pinit                      000000014014a5a8     LIBCMT:clock.obj
 0002:000005b0       pinit                      000000014014a5b0     LIBCMT:cpu_disp.obj
 0002:000005b8       pinit                      000000014014a5b8     LIBCMT:mbctype.obj
 0002:000005c0       pinit                      000000014014a5c0     LIBCMT:_file.obj
 0002:000005c8       pinit                      000000014014a5c8     LIBCMT:crt0.obj
 0002:000005e0       pterm                      000000014014a5e0     LIBCMT:wsetloca.obj
 0002:000005e8       pterm                      000000014014a5e8     LIBCMT:initcon.obj
 0002:000005f0       pterm                      000000014014a5f0     LIBCMT:_file.obj
 0002:00000660       _2il0floatpacket.15        000000014014a660     datums_mod.obj
 0002:00000670       _2il0floatpacket.16        000000014014a670     datums_mod.obj
 0002:00000680       _2il0floatpacket.0         000000014014a680     datums_mod.obj
 0002:00000684       _2il0floatpacket.1         000000014014a684     datums_mod.obj
 0002:00000688       _2il0floatpacket.2         000000014014a688     datums_mod.obj
 0002:0000068c       _2il0floatpacket.3         000000014014a68c     datums_mod.obj
 0002:00000690       _2il0floatpacket.4         000000014014a690     datums_mod.obj
 0002:00000694       _2il0floatpacket.5         000000014014a694     datums_mod.obj
 0002:00000698       _2il0floatpacket.6         000000014014a698     datums_mod.obj
 0002:0000069c       _2il0floatpacket.7         000000014014a69c     datums_mod.obj
 0002:000006a0       _2il0floatpacket.8         000000014014a6a0     datums_mod.obj
 0002:000006a4       _2il0floatpacket.9         000000014014a6a4     datums_mod.obj
 0002:000006a8       _2il0floatpacket.10        000000014014a6a8     datums_mod.obj
 0002:000006ac       _2il0floatpacket.11        000000014014a6ac     datums_mod.obj
 0002:000006b0       _2il0floatpacket.12        000000014014a6b0     datums_mod.obj
 0002:000006b4       _2il0floatpacket.13        000000014014a6b4     datums_mod.obj
 0002:000006b8       _2il0floatpacket.14        000000014014a6b8     datums_mod.obj
 0002:000006bc       _2il0floatpacket.17        000000014014a6bc     datums_mod.obj
 0002:000006c0       _2il0floatpacket.18        000000014014a6c0     datums_mod.obj
 0002:000006c4       _2il0floatpacket.19        000000014014a6c4     datums_mod.obj
 0002:000006c8       _2il0floatpacket.20        000000014014a6c8     datums_mod.obj
 0002:000006cc       _2il0floatpacket.21        000000014014a6cc     datums_mod.obj
 0002:000006d0       _2il0floatpacket.22        000000014014a6d0     datums_mod.obj
 0002:000006d4       _2il0floatpacket.23        000000014014a6d4     datums_mod.obj
 0002:000006d8       _2il0floatpacket.24        000000014014a6d8     datums_mod.obj
 0002:000006e0       .T647_.0.2                 000000014014a6e0     LoadSen.obj
 0002:00000728       __STRLITPACK_69.0.2        000000014014a728     LoadSen.obj
 0002:00000738       __STRLITPACK_70.0.2        000000014014a738     LoadSen.obj
 0002:00000740       __STRLITPACK_71.0.2        000000014014a740     LoadSen.obj
 0002:00000748       __STRLITPACK_73.0.2        000000014014a748     LoadSen.obj
 0002:00000750       __STRLITPACK_74.0.2        000000014014a750     LoadSen.obj
 0002:00000758       __STRLITPACK_75.0.2        000000014014a758     LoadSen.obj
 0002:00000760       __STRLITPACK_76.0.2        000000014014a760     LoadSen.obj
 0002:00000768       __STRLITPACK_77.0.2        000000014014a768     LoadSen.obj
 0002:00000770       __STRLITPACK_78.0.2        000000014014a770     LoadSen.obj
 0002:00000778       __STRLITPACK_79.0.2        000000014014a778     LoadSen.obj
 0002:00000780       __STRLITPACK_80.0.2        000000014014a780     LoadSen.obj
 0002:00000788       __STRLITPACK_81.0.2        000000014014a788     LoadSen.obj
 0002:00000790       __STRLITPACK_82.0.2        000000014014a790     LoadSen.obj
 0002:00000798       __STRLITPACK_83.0.2        000000014014a798     LoadSen.obj
 0002:000007a0       __STRLITPACK_84.0.2        000000014014a7a0     LoadSen.obj
 0002:000007a8       __STRLITPACK_85.0.2        000000014014a7a8     LoadSen.obj
 0002:000007b0       __STRLITPACK_86.0.2        000000014014a7b0     LoadSen.obj
 0002:000007b8       __STRLITPACK_87.0.2        000000014014a7b8     LoadSen.obj
 0002:000007c0       __STRLITPACK_88.0.2        000000014014a7c0     LoadSen.obj
 0002:000007c8       __STRLITPACK_89.0.2        000000014014a7c8     LoadSen.obj
 0002:000007d0       __STRLITPACK_90.0.2        000000014014a7d0     LoadSen.obj
 0002:000007e0       _2il0floatpacket.30        000000014014a7e0     LoadSen.obj
 0002:000007f0       _2il0floatpacket.32        000000014014a7f0     LoadSen.obj
 0002:00000800       _2il0floatpacket.33        000000014014a800     LoadSen.obj
 0002:00000810       _2il0floatpacket.39        000000014014a810     LoadSen.obj
 0002:00000820       _2il0floatpacket.31        000000014014a820     LoadSen.obj
 0002:00000828       _2il0floatpacket.28        000000014014a828     LoadSen.obj
 0002:0000082c       _2il0floatpacket.29        000000014014a82c     LoadSen.obj
 0002:00000830       _2il0floatpacket.34        000000014014a830     LoadSen.obj
 0002:00000834       _2il0floatpacket.35        000000014014a834     LoadSen.obj
 0002:00000838       _2il0floatpacket.36        000000014014a838     LoadSen.obj
 0002:0000083c       _2il0floatpacket.37        000000014014a83c     LoadSen.obj
 0002:00000840       _2il0floatpacket.38        000000014014a840     LoadSen.obj
 0002:00000844       __STRLITPACK_62            000000014014a844     LoadSen.obj
 0002:00000850       __STRLITPACK_59            000000014014a850     LoadSen.obj
 0002:00000858       __STRLITPACK_58            000000014014a858     LoadSen.obj
 0002:00000874       __STRLITPACK_57            000000014014a874     LoadSen.obj
 0002:0000087c       __STRLITPACK_56            000000014014a87c     LoadSen.obj
 0002:00000898       __STRLITPACK_53            000000014014a898     LoadSen.obj
 0002:0000089c       __STRLITPACK_52            000000014014a89c     LoadSen.obj
 0002:000008a0       __STRLITPACK_51            000000014014a8a0     LoadSen.obj
 0002:000008a8       __STRLITPACK_50            000000014014a8a8     LoadSen.obj
 0002:000008c4       __STRLITPACK_46            000000014014a8c4     LoadSen.obj
 0002:000008d0       __STRLITPACK_45            000000014014a8d0     LoadSen.obj
 0002:000008ec       __STRLITPACK_44            000000014014a8ec     LoadSen.obj
 0002:000008f8       __STRLITPACK_43            000000014014a8f8     LoadSen.obj
 0002:00000914       __STRLITPACK_38            000000014014a914     LoadSen.obj
 0002:00000920       __STRLITPACK_33            000000014014a920     LoadSen.obj
 0002:00000924       __STRLITPACK_30            000000014014a924     LoadSen.obj
 0002:00000928       __STRLITPACK_29            000000014014a928     LoadSen.obj
 0002:0000092c       __STRLITPACK_28            000000014014a92c     LoadSen.obj
 0002:00000930       __STRLITPACK_27            000000014014a930     LoadSen.obj
 0002:00000934       __STRLITPACK_14            000000014014a934     LoadSen.obj
 0002:00000938       __STRLITPACK_9             000000014014a938     LoadSen.obj
 0002:0000093c       __STRLITPACK_8             000000014014a93c     LoadSen.obj
 0002:00000940       __STRLITPACK_7             000000014014a940     LoadSen.obj
 0002:00000944       __STRLITPACK_6             000000014014a944     LoadSen.obj
 0002:00000948       __STRLITPACK_1             000000014014a948     LoadSen.obj
 0002:00000950       __STRLITPACK_0             000000014014a950     LoadSen.obj
 0002:0000096c       __STRLITPACK_35            000000014014a96c     LoadSen.obj
 0002:00000974       __STRLITPACK_34            000000014014a974     LoadSen.obj
 0002:00000990       __STRLITPACK_40            000000014014a990     LoadSen.obj
 0002:00000998       __STRLITPACK_39            000000014014a998     LoadSen.obj
 0002:000009b4       __STRLITPACK_47            000000014014a9b4     LoadSen.obj
 0002:000009bc       __STRLITPACK_64            000000014014a9bc     LoadSen.obj
 0002:000009c4       __STRLITPACK_63            000000014014a9c4     LoadSen.obj
 0002:000009e0       __STRLITPACK_68            000000014014a9e0     LoadSen.obj
 0002:000009e8       __STRLITPACK_67            000000014014a9e8     LoadSen.obj
 0002:00000a20       __NLITPACK_0.0.2           000000014014aa20     runSCI.obj
 0002:00000a28       __STRLITPACK_585.0.2       000000014014aa28     runSCI.obj
 0002:00000a30       __STRLITPACK_586.0.2       000000014014aa30     runSCI.obj
 0002:00000a38       __STRLITPACK_587.0.2       000000014014aa38     runSCI.obj
 0002:00000a48       __NLITPACK_1.0.2           000000014014aa48     runSCI.obj
 0002:00000a4c       __STRLITPACK_588.0.2       000000014014aa4c     runSCI.obj
 0002:00000a50       __STRLITPACK_589.0.2       000000014014aa50     runSCI.obj
 0002:00000a54       __STRLITPACK_590.0.2       000000014014aa54     runSCI.obj
 0002:00000a5c       __STRLITPACK_591.0.2       000000014014aa5c     runSCI.obj
 0002:00000a6c       __STRLITPACK_592.0.2       000000014014aa6c     runSCI.obj
 0002:00000a7c       __STRLITPACK_593.0.2       000000014014aa7c     runSCI.obj
 0002:00000a84       __STRLITPACK_594.0.2       000000014014aa84     runSCI.obj
 0002:00000a94       __STRLITPACK_595.0.2       000000014014aa94     runSCI.obj
 0002:00000a98       __STRLITPACK_596.0.2       000000014014aa98     runSCI.obj
 0002:00000aa0       __STRLITPACK_597.0.2       000000014014aaa0     runSCI.obj
 0002:00000aa4       __STRLITPACK_598.0.2       000000014014aaa4     runSCI.obj
 0002:00000aac       __STRLITPACK_599.0.2       000000014014aaac     runSCI.obj
 0002:00000ab4       __STRLITPACK_600.0.2       000000014014aab4     runSCI.obj
 0002:00000abc       __STRLITPACK_601.0.2       000000014014aabc     runSCI.obj
 0002:00000ac4       __STRLITPACK_602.0.2       000000014014aac4     runSCI.obj
 0002:00000ac8       __STRLITPACK_603.0.2       000000014014aac8     runSCI.obj
 0002:00000ad0       __STRLITPACK_604.0.2       000000014014aad0     runSCI.obj
 0002:00000ae0       __STRLITPACK_608.0.2       000000014014aae0     runSCI.obj
 0002:00000ae4       __STRLITPACK_609.0.2       000000014014aae4     runSCI.obj
 0002:00000aec       __STRLITPACK_632.0.2       000000014014aaec     runSCI.obj
 0002:00000af4       __STRLITPACK_633.0.2       000000014014aaf4     runSCI.obj
 0002:00000af8       __STRLITPACK_634.0.2       000000014014aaf8     runSCI.obj
 0002:00000b00       __STRLITPACK_635.0.2       000000014014ab00     runSCI.obj
 0002:00000b08       __STRLITPACK_636.0.2       000000014014ab08     runSCI.obj
 0002:00000b10       __STRLITPACK_637.0.2       000000014014ab10     runSCI.obj
 0002:00000b18       __STRLITPACK_638.0.2       000000014014ab18     runSCI.obj
 0002:00000b20       __STRLITPACK_639.0.2       000000014014ab20     runSCI.obj
 0002:00000b28       __STRLITPACK_640.0.2       000000014014ab28     runSCI.obj
 0002:00000b30       __STRLITPACK_641.0.2       000000014014ab30     runSCI.obj
 0002:00000b38       __STRLITPACK_642.0.2       000000014014ab38     runSCI.obj
 0002:00000b48       __STRLITPACK_643.0.2       000000014014ab48     runSCI.obj
 0002:00000b58       __STRLITPACK_644.0.2       000000014014ab58     runSCI.obj
 0002:00000b60       __STRLITPACK_645.0.2       000000014014ab60     runSCI.obj
 0002:00000b68       __STRLITPACK_646.0.2       000000014014ab68     runSCI.obj
 0002:00000b70       __STRLITPACK_647.0.2       000000014014ab70     runSCI.obj
 0002:00000b78       __STRLITPACK_648.0.2       000000014014ab78     runSCI.obj
 0002:00000b80       __STRLITPACK_649.0.2       000000014014ab80     runSCI.obj
 0002:00000b88       __STRLITPACK_650.0.2       000000014014ab88     runSCI.obj
 0002:00000b90       __STRLITPACK_628.0.2       000000014014ab90     runSCI.obj
 0002:00000b94       __STRLITPACK_629.0.2       000000014014ab94     runSCI.obj
 0002:00000b9c       __STRLITPACK_630.0.2       000000014014ab9c     runSCI.obj
 0002:00000ba4       __STRLITPACK_610.0.2       000000014014aba4     runSCI.obj
 0002:00000bb4       __STRLITPACK_611.0.2       000000014014abb4     runSCI.obj
 0002:00000bbc       __STRLITPACK_612.0.2       000000014014abbc     runSCI.obj
 0002:00000bc4       __STRLITPACK_614.0.2       000000014014abc4     runSCI.obj
 0002:00000bcc       __STRLITPACK_615.0.2       000000014014abcc     runSCI.obj
 0002:00000bd4       __STRLITPACK_616.0.2       000000014014abd4     runSCI.obj
 0002:00000bdc       __STRLITPACK_617.0.2       000000014014abdc     runSCI.obj
 0002:00000be0       __STRLITPACK_618.0.2       000000014014abe0     runSCI.obj
 0002:00000be8       __STRLITPACK_619.0.2       000000014014abe8     runSCI.obj
 0002:00000bec       __STRLITPACK_620.0.2       000000014014abec     runSCI.obj
 0002:00000bf4       __STRLITPACK_623.0.2       000000014014abf4     runSCI.obj
 0002:00000bf8       __STRLITPACK_624.0.2       000000014014abf8     runSCI.obj
 0002:00000c00       __STRLITPACK_625.0.2       000000014014ac00     runSCI.obj
 0002:00000c08       __STRLITPACK_621.0.2       000000014014ac08     runSCI.obj
 0002:00000c0c       __STRLITPACK_622.0.2       000000014014ac0c     runSCI.obj
 0002:00000c14       __STRLITPACK_626.0.2       000000014014ac14     runSCI.obj
 0002:00000c18       __STRLITPACK_627.0.2       000000014014ac18     runSCI.obj
 0002:00000c20       __STRLITPACK_605.0.2       000000014014ac20     runSCI.obj
 0002:00000c34       __STRLITPACK_606.0.2       000000014014ac34     runSCI.obj
 0002:00000c3c       __STRLITPACK_607.0.2       000000014014ac3c     runSCI.obj
 0002:00000c44       __STRLITPACK_985.0.6       000000014014ac44     runSCI.obj
 0002:00000c4c       __STRLITPACK_986.0.6       000000014014ac4c     runSCI.obj
 0002:00000c54       __STRLITPACK_987.0.6       000000014014ac54     runSCI.obj
 0002:00000c5c       __STRLITPACK_988.0.6       000000014014ac5c     runSCI.obj
 0002:00000c64       __STRLITPACK_989.0.6       000000014014ac64     runSCI.obj
 0002:00000c6c       __STRLITPACK_990.0.6       000000014014ac6c     runSCI.obj
 0002:00000c74       __STRLITPACK_991.0.6       000000014014ac74     runSCI.obj
 0002:00000c7c       __STRLITPACK_992.0.6       000000014014ac7c     runSCI.obj
 0002:00000c84       __STRLITPACK_993.0.6       000000014014ac84     runSCI.obj
 0002:00000c8c       __STRLITPACK_994.0.6       000000014014ac8c     runSCI.obj
 0002:00000c94       __STRLITPACK_995.0.6       000000014014ac94     runSCI.obj
 0002:00000c9c       __STRLITPACK_996.0.6       000000014014ac9c     runSCI.obj
 0002:00000ca4       __STRLITPACK_997.0.6       000000014014aca4     runSCI.obj
 0002:00000cac       __STRLITPACK_998.0.6       000000014014acac     runSCI.obj
 0002:00000cb4       __STRLITPACK_999.0.6       000000014014acb4     runSCI.obj
 0002:00000cbc       __STRLITPACK_1000.0.6      000000014014acbc     runSCI.obj
 0002:00000cc4       __STRLITPACK_1001.0.6      000000014014acc4     runSCI.obj
 0002:00000ccc       __STRLITPACK_1002.0.6      000000014014accc     runSCI.obj
 0002:00000cd4       __STRLITPACK_1003.0.6      000000014014acd4     runSCI.obj
 0002:00000cdc       __STRLITPACK_1004.0.6      000000014014acdc     runSCI.obj
 0002:00000ce4       __STRLITPACK_935.0.4       000000014014ace4     runSCI.obj
 0002:00000cf4       __STRLITPACK_939.0.4       000000014014acf4     runSCI.obj
 0002:00000cfc       __STRLITPACK_940.0.4       000000014014acfc     runSCI.obj
 0002:00000d04       __STRLITPACK_941.0.4       000000014014ad04     runSCI.obj
 0002:00000d0c       __STRLITPACK_944.0.4       000000014014ad0c     runSCI.obj
 0002:00000d14       __STRLITPACK_955.0.4       000000014014ad14     runSCI.obj
 0002:00000d1c       __STRLITPACK_956.0.4       000000014014ad1c     runSCI.obj
 0002:00000d24       __STRLITPACK_957.0.4       000000014014ad24     runSCI.obj
 0002:00000d2c       __STRLITPACK_929.0.4       000000014014ad2c     runSCI.obj
 0002:00000d34       __STRLITPACK_930.0.4       000000014014ad34     runSCI.obj
 0002:00000d3c       __STRLITPACK_931.0.4       000000014014ad3c     runSCI.obj
 0002:00000d40       __STRLITPACK_936.0.4       000000014014ad40     runSCI.obj
 0002:00000d48       __STRLITPACK_937.0.4       000000014014ad48     runSCI.obj
 0002:00000d50       __STRLITPACK_938.0.4       000000014014ad50     runSCI.obj
 0002:00000d58       __STRLITPACK_942.0.4       000000014014ad58     runSCI.obj
 0002:00000d60       __STRLITPACK_943.0.4       000000014014ad60     runSCI.obj
 0002:00000d68       __STRLITPACK_945.0.4       000000014014ad68     runSCI.obj
 0002:00000d70       __STRLITPACK_946.0.4       000000014014ad70     runSCI.obj
 0002:00000d78       __STRLITPACK_947.0.4       000000014014ad78     runSCI.obj
 0002:00000d80       __STRLITPACK_948.0.4       000000014014ad80     runSCI.obj
 0002:00000d88       __STRLITPACK_949.0.4       000000014014ad88     runSCI.obj
 0002:00000d90       __STRLITPACK_950.0.4       000000014014ad90     runSCI.obj
 0002:00000d98       __STRLITPACK_951.0.4       000000014014ad98     runSCI.obj
 0002:00000da0       __STRLITPACK_952.0.4       000000014014ada0     runSCI.obj
 0002:00000da8       __STRLITPACK_953.0.4       000000014014ada8     runSCI.obj
 0002:00000dac       __STRLITPACK_954.0.4       000000014014adac     runSCI.obj
 0002:00000db0       __STRLITPACK_932.0.4       000000014014adb0     runSCI.obj
 0002:00000db8       __STRLITPACK_933.0.4       000000014014adb8     runSCI.obj
 0002:00000dc0       __STRLITPACK_934.0.4       000000014014adc0     runSCI.obj
 0002:00000dc4       __NLITPACK_2.0.3           000000014014adc4     runSCI.obj
 0002:00000dc8       __NLITPACK_3.0.3           000000014014adc8     runSCI.obj
 0002:00000dcc       __STRLITPACK_801.0.3       000000014014adcc     runSCI.obj
 0002:00000dd4       __STRLITPACK_802.0.3       000000014014add4     runSCI.obj
 0002:00000ddc       __STRLITPACK_829.0.3       000000014014addc     runSCI.obj
 0002:00000de4       __STRLITPACK_830.0.3       000000014014ade4     runSCI.obj
 0002:00000de8       __STRLITPACK_831.0.3       000000014014ade8     runSCI.obj
 0002:00000df0       __STRLITPACK_832.0.3       000000014014adf0     runSCI.obj
 0002:00000df8       __STRLITPACK_833.0.3       000000014014adf8     runSCI.obj
 0002:00000e00       __STRLITPACK_834.0.3       000000014014ae00     runSCI.obj
 0002:00000e08       __STRLITPACK_835.0.3       000000014014ae08     runSCI.obj
 0002:00000e10       __STRLITPACK_836.0.3       000000014014ae10     runSCI.obj
 0002:00000e18       __STRLITPACK_819.0.3       000000014014ae18     runSCI.obj
 0002:00000e20       __STRLITPACK_820.0.3       000000014014ae20     runSCI.obj
 0002:00000e24       __STRLITPACK_821.0.3       000000014014ae24     runSCI.obj
 0002:00000e2c       __STRLITPACK_822.0.3       000000014014ae2c     runSCI.obj
 0002:00000e34       __STRLITPACK_823.0.3       000000014014ae34     runSCI.obj
 0002:00000e3c       __STRLITPACK_824.0.3       000000014014ae3c     runSCI.obj
 0002:00000e44       __STRLITPACK_825.0.3       000000014014ae44     runSCI.obj
 0002:00000e4c       __STRLITPACK_826.0.3       000000014014ae4c     runSCI.obj
 0002:00000e54       __STRLITPACK_827.0.3       000000014014ae54     runSCI.obj
 0002:00000e58       __STRLITPACK_828.0.3       000000014014ae58     runSCI.obj
 0002:00000e60       __STRLITPACK_811.0.3       000000014014ae60     runSCI.obj
 0002:00000e68       __STRLITPACK_812.0.3       000000014014ae68     runSCI.obj
 0002:00000e6c       __STRLITPACK_813.0.3       000000014014ae6c     runSCI.obj
 0002:00000e74       __STRLITPACK_814.0.3       000000014014ae74     runSCI.obj
 0002:00000e7c       __STRLITPACK_815.0.3       000000014014ae7c     runSCI.obj
 0002:00000e84       __STRLITPACK_816.0.3       000000014014ae84     runSCI.obj
 0002:00000e8c       __STRLITPACK_817.0.3       000000014014ae8c     runSCI.obj
 0002:00000e94       __STRLITPACK_818.0.3       000000014014ae94     runSCI.obj
 0002:00000e9c       __STRLITPACK_803.0.3       000000014014ae9c     runSCI.obj
 0002:00000ea4       __STRLITPACK_804.0.3       000000014014aea4     runSCI.obj
 0002:00000ea8       __STRLITPACK_805.0.3       000000014014aea8     runSCI.obj
 0002:00000eb0       __STRLITPACK_806.0.3       000000014014aeb0     runSCI.obj
 0002:00000eb8       __STRLITPACK_807.0.3       000000014014aeb8     runSCI.obj
 0002:00000ec0       __STRLITPACK_808.0.3       000000014014aec0     runSCI.obj
 0002:00000ec8       __STRLITPACK_809.0.3       000000014014aec8     runSCI.obj
 0002:00000ed0       __STRLITPACK_810.0.3       000000014014aed0     runSCI.obj
 0002:00000ed8       __STRLITPACK_840.0.3       000000014014aed8     runSCI.obj
 0002:00000ee0       __STRLITPACK_841.0.3       000000014014aee0     runSCI.obj
 0002:00000ee8       __STRLITPACK_842.0.3       000000014014aee8     runSCI.obj
 0002:00000ef0       __STRLITPACK_843.0.3       000000014014aef0     runSCI.obj
 0002:00000efc       __STRLITPACK_844.0.3       000000014014aefc     runSCI.obj
 0002:00000f10       __STRLITPACK_845.0.3       000000014014af10     runSCI.obj
 0002:00000f18       __NLITPACK_4.0.3           000000014014af18     runSCI.obj
 0002:00000f1c       __NLITPACK_5.0.3           000000014014af1c     runSCI.obj
 0002:00000f20       __STRLITPACK_846.0.3       000000014014af20     runSCI.obj
 0002:00000f28       __STRLITPACK_847.0.3       000000014014af28     runSCI.obj
 0002:00000f30       __STRLITPACK_848.0.3       000000014014af30     runSCI.obj
 0002:00000f38       __STRLITPACK_849.0.3       000000014014af38     runSCI.obj
 0002:00000f40       __STRLITPACK_850.0.3       000000014014af40     runSCI.obj
 0002:00000f48       __STRLITPACK_851.0.3       000000014014af48     runSCI.obj
 0002:00000f50       __STRLITPACK_852.0.3       000000014014af50     runSCI.obj
 0002:00000f58       __STRLITPACK_853.0.3       000000014014af58     runSCI.obj
 0002:00000f80       __STRLITPACK_431           000000014014af80     runSCI.obj
 0002:00000fe0       __STRLITPACK_427           000000014014afe0     runSCI.obj
 0002:00001040       __STRLITPACK_391           000000014014b040     runSCI.obj
 0002:00001090       _2il0floatpacket.22        000000014014b090     runSCI.obj
 0002:000010a0       _2il0floatpacket.23        000000014014b0a0     runSCI.obj
 0002:000010b0       _2il0floatpacket.26        000000014014b0b0     runSCI.obj
 0002:000010c0       _2il0floatpacket.25        000000014014b0c0     runSCI.obj
 0002:000010c8       _2il0floatpacket.24        000000014014b0c8     runSCI.obj
 0002:000010cc       _2il0floatpacket.27        000000014014b0cc     runSCI.obj
 0002:000010d0       __STRLITPACK_584           000000014014b0d0     runSCI.obj
 0002:000010d4       __STRLITPACK_583           000000014014b0d4     runSCI.obj
 0002:000010d8       __STRLITPACK_578           000000014014b0d8     runSCI.obj
 0002:000010dc       __STRLITPACK_577           000000014014b0dc     runSCI.obj
 0002:000010e0       __STRLITPACK_576           000000014014b0e0     runSCI.obj
 0002:000010e4       __STRLITPACK_574           000000014014b0e4     runSCI.obj
 0002:000010fc       __STRLITPACK_573           000000014014b0fc     runSCI.obj
 0002:00001104       __STRLITPACK_572           000000014014b104     runSCI.obj
 0002:0000111c       __STRLITPACK_571           000000014014b11c     runSCI.obj
 0002:00001124       __STRLITPACK_570           000000014014b124     runSCI.obj
 0002:00001140       __STRLITPACK_569           000000014014b140     runSCI.obj
 0002:00001148       __STRLITPACK_564           000000014014b148     runSCI.obj
 0002:00001154       __STRLITPACK_563           000000014014b154     runSCI.obj
 0002:0000115c       __STRLITPACK_562           000000014014b15c     runSCI.obj
 0002:00001164       __STRLITPACK_561           000000014014b164     runSCI.obj
 0002:00001170       __STRLITPACK_559           000000014014b170     runSCI.obj
 0002:00001180       __STRLITPACK_558           000000014014b180     runSCI.obj
 0002:00001184       __STRLITPACK_557           000000014014b184     runSCI.obj
 0002:0000118c       __STRLITPACK_556           000000014014b18c     runSCI.obj
 0002:000011ac       __STRLITPACK_555           000000014014b1ac     runSCI.obj
 0002:000011c4       __STRLITPACK_554           000000014014b1c4     runSCI.obj
 0002:000011d0       __STRLITPACK_553           000000014014b1d0     runSCI.obj
 0002:000011dc       __STRLITPACK_552           000000014014b1dc     runSCI.obj
 0002:000011e4       __STRLITPACK_551           000000014014b1e4     runSCI.obj
 0002:000011f0       __STRLITPACK_550           000000014014b1f0     runSCI.obj
 0002:000011fc       __STRLITPACK_549           000000014014b1fc     runSCI.obj
 0002:00001208       __STRLITPACK_548           000000014014b208     runSCI.obj
 0002:00001214       __STRLITPACK_547           000000014014b214     runSCI.obj
 0002:00001220       __STRLITPACK_546           000000014014b220     runSCI.obj
 0002:0000122c       __STRLITPACK_545           000000014014b22c     runSCI.obj
 0002:00001234       __STRLITPACK_544           000000014014b234     runSCI.obj
 0002:0000123c       __STRLITPACK_542           000000014014b23c     runSCI.obj
 0002:00001258       __STRLITPACK_536           000000014014b258     runSCI.obj
 0002:0000127c       __STRLITPACK_526           000000014014b27c     runSCI.obj
 0002:00001284       __STRLITPACK_525           000000014014b284     runSCI.obj
 0002:0000128c       __STRLITPACK_524           000000014014b28c     runSCI.obj
 0002:00001294       __STRLITPACK_512           000000014014b294     runSCI.obj
 0002:000012a8       __STRLITPACK_508           000000014014b2a8     runSCI.obj
 0002:000012b0       __STRLITPACK_507           000000014014b2b0     runSCI.obj
 0002:000012cc       __STRLITPACK_409           000000014014b2cc     runSCI.obj
 0002:000012e4       __STRLITPACK_407           000000014014b2e4     runSCI.obj
 0002:000012f0       __STRLITPACK_405           000000014014b2f0     runSCI.obj
 0002:000012fc       __STRLITPACK_403           000000014014b2fc     runSCI.obj
 0002:00001308       __STRLITPACK_401           000000014014b308     runSCI.obj
 0002:00001314       __STRLITPACK_399           000000014014b314     runSCI.obj
 0002:00001320       __STRLITPACK_397           000000014014b320     runSCI.obj
 0002:0000133c       __STRLITPACK_396           000000014014b33c     runSCI.obj
 0002:00001344       __STRLITPACK_392           000000014014b344     runSCI.obj
 0002:0000135c       __STRLITPACK_419           000000014014b35c     runSCI.obj
 0002:0000136c       __STRLITPACK_418           000000014014b36c     runSCI.obj
 0002:0000137c       __STRLITPACK_417           000000014014b37c     runSCI.obj
 0002:000013a4       __STRLITPACK_416           000000014014b3a4     runSCI.obj
 0002:000013d0       __STRLITPACK_415           000000014014b3d0     runSCI.obj
 0002:000013e4       __STRLITPACK_631           000000014014b3e4     runSCI.obj
 0002:000013e8       __STRLITPACK_504           000000014014b3e8     runSCI.obj
 0002:000013ec       __STRLITPACK_503           000000014014b3ec     runSCI.obj
 0002:000013f0       __STRLITPACK_496           000000014014b3f0     runSCI.obj
 0002:000013f8       __STRLITPACK_485           000000014014b3f8     runSCI.obj
 0002:000013fc       __STRLITPACK_492           000000014014b3fc     runSCI.obj
 0002:00001404       __STRLITPACK_491           000000014014b404     runSCI.obj
 0002:00001420       __STRLITPACK_476           000000014014b420     runSCI.obj
 0002:00001438       __STRLITPACK_466           000000014014b438     runSCI.obj
 0002:00001450       __STRLITPACK_455           000000014014b450     runSCI.obj
 0002:00001458       __STRLITPACK_453           000000014014b458     runSCI.obj
 0002:00001464       __STRLITPACK_449           000000014014b464     runSCI.obj
 0002:00001470       __STRLITPACK_448           000000014014b470     runSCI.obj
 0002:0000147c       __STRLITPACK_446           000000014014b47c     runSCI.obj
 0002:0000148c       __STRLITPACK_445           000000014014b48c     runSCI.obj
 0002:00001490       __STRLITPACK_444           000000014014b490     runSCI.obj
 0002:00001494       __STRLITPACK_443           000000014014b494     runSCI.obj
 0002:0000149c       __STRLITPACK_442           000000014014b49c     runSCI.obj
 0002:000014c8       __STRLITPACK_432           000000014014b4c8     runSCI.obj
 0002:000014d0       __STRLITPACK_464           000000014014b4d0     runSCI.obj
 0002:000014e8       __STRLITPACK_463           000000014014b4e8     runSCI.obj
 0002:000014f0       __STRLITPACK_462           000000014014b4f0     runSCI.obj
 0002:0000150c       __STRLITPACK_490           000000014014b50c     runSCI.obj
 0002:00001514       __STRLITPACK_489           000000014014b514     runSCI.obj
 0002:00001530       __STRLITPACK_495           000000014014b530     runSCI.obj
 0002:00001538       __STRLITPACK_494           000000014014b538     runSCI.obj
 0002:00001554       __STRLITPACK_493           000000014014b554     runSCI.obj
 0002:00001580       __STRLITPACK_430           000000014014b580     runSCI.obj
 0002:00001588       __STRLITPACK_429           000000014014b588     runSCI.obj
 0002:000015c0       __STRLITPACK_425           000000014014b5c0     runSCI.obj
 0002:000015cc       __STRLITPACK_424           000000014014b5cc     runSCI.obj
 0002:000015dc       __STRLITPACK_423           000000014014b5dc     runSCI.obj
 0002:000015f4       __STRLITPACK_422           000000014014b5f4     runSCI.obj
 0002:00001620       __STRLITPACK_421           000000014014b620     runSCI.obj
 0002:00001624       __STRLITPACK_428           000000014014b624     runSCI.obj
 0002:0000162c       __STRLITPACK_435           000000014014b62c     runSCI.obj
 0002:00001634       __STRLITPACK_434           000000014014b634     runSCI.obj
 0002:00001650       __STRLITPACK_433           000000014014b650     runSCI.obj
 0002:00001680       __STRLITPACK_438           000000014014b680     runSCI.obj
 0002:00001688       __STRLITPACK_437           000000014014b688     runSCI.obj
 0002:000016a4       __STRLITPACK_436           000000014014b6a4     runSCI.obj
 0002:000016d4       __STRLITPACK_441           000000014014b6d4     runSCI.obj
 0002:000016dc       __STRLITPACK_440           000000014014b6dc     runSCI.obj
 0002:000016f8       __STRLITPACK_439           000000014014b6f8     runSCI.obj
 0002:00001728       __STRLITPACK_452           000000014014b728     runSCI.obj
 0002:00001738       __STRLITPACK_451           000000014014b738     runSCI.obj
 0002:00001754       __STRLITPACK_450           000000014014b754     runSCI.obj
 0002:00001780       __STRLITPACK_458           000000014014b780     runSCI.obj
 0002:00001794       __STRLITPACK_457           000000014014b794     runSCI.obj
 0002:000017b4       __STRLITPACK_456           000000014014b7b4     runSCI.obj
 0002:000017e0       __STRLITPACK_459           000000014014b7e0     runSCI.obj
 0002:000017e4       __STRLITPACK_472           000000014014b7e4     runSCI.obj
 0002:000017f8       __STRLITPACK_471           000000014014b7f8     runSCI.obj
 0002:00001818       __STRLITPACK_470           000000014014b818     runSCI.obj
 0002:00001844       __STRLITPACK_475           000000014014b844     runSCI.obj
 0002:00001858       __STRLITPACK_474           000000014014b858     runSCI.obj
 0002:00001880       __STRLITPACK_473           000000014014b880     runSCI.obj
 0002:000018ac       __STRLITPACK_499           000000014014b8ac     runSCI.obj
 0002:000018bc       __STRLITPACK_498           000000014014b8bc     runSCI.obj
 0002:000018dc       __STRLITPACK_497           000000014014b8dc     runSCI.obj
 0002:00001908       __STRLITPACK_502           000000014014b908     runSCI.obj
 0002:0000191c       __STRLITPACK_501           000000014014b91c     runSCI.obj
 0002:00001944       __STRLITPACK_500           000000014014b944     runSCI.obj
 0002:00001970       __STRLITPACK_511           000000014014b970     runSCI.obj
 0002:00001980       __STRLITPACK_510           000000014014b980     runSCI.obj
 0002:0000199c       __STRLITPACK_509           000000014014b99c     runSCI.obj
 0002:000019c8       __STRLITPACK_522           000000014014b9c8     runSCI.obj
 0002:000019d0       __STRLITPACK_523           000000014014b9d0     runSCI.obj
 0002:000019d4       __STRLITPACK_518           000000014014b9d4     runSCI.obj
 0002:000019f4       __STRLITPACK_514           000000014014b9f4     runSCI.obj
 0002:00001a04       __STRLITPACK_533           000000014014ba04     runSCI.obj
 0002:00001a14       __STRLITPACK_532           000000014014ba14     runSCI.obj
 0002:00001a3c       __STRLITPACK_531           000000014014ba3c     runSCI.obj
 0002:00001a68       __STRLITPACK_530           000000014014ba68     runSCI.obj
 0002:00001a7c       __STRLITPACK_582           000000014014ba7c     runSCI.obj
 0002:00001a84       __STRLITPACK_581           000000014014ba84     runSCI.obj
 0002:00001aac       __STRLITPACK_580           000000014014baac     runSCI.obj
 0002:00001ad8       __STRLITPACK_579           000000014014bad8     runSCI.obj
 0002:00001ae8       _2il0floatpacket.28        000000014014bae8     runSCI.obj
 0002:00001aec       _2il0floatpacket.29        000000014014baec     runSCI.obj
 0002:00001af0       __STRLITPACK_984           000000014014baf0     runSCI.obj
 0002:00001b18       __STRLITPACK_983           000000014014bb18     runSCI.obj
 0002:00001b24       __STRLITPACK_920           000000014014bb24     runSCI.obj
 0002:00001b28       __STRLITPACK_918           000000014014bb28     runSCI.obj
 0002:00001b2c       __STRLITPACK_911           000000014014bb2c     runSCI.obj
 0002:00001b30       __STRLITPACK_903           000000014014bb30     runSCI.obj
 0002:00001b54       __STRLITPACK_901           000000014014bb54     runSCI.obj
 0002:00001b5c       __STRLITPACK_899           000000014014bb5c     runSCI.obj
 0002:00001b74       __STRLITPACK_898           000000014014bb74     runSCI.obj
 0002:00001b7c       __STRLITPACK_897           000000014014bb7c     runSCI.obj
 0002:00001b80       __STRLITPACK_896           000000014014bb80     runSCI.obj
 0002:00001b84       __STRLITPACK_891           000000014014bb84     runSCI.obj
 0002:00001b88       __STRLITPACK_890           000000014014bb88     runSCI.obj
 0002:00001b8c       __STRLITPACK_889           000000014014bb8c     runSCI.obj
 0002:00001b90       __STRLITPACK_888           000000014014bb90     runSCI.obj
 0002:00001b94       __STRLITPACK_862           000000014014bb94     runSCI.obj
 0002:00001bb0       __STRLITPACK_860           000000014014bbb0     runSCI.obj
 0002:00001bcc       __STRLITPACK_925           000000014014bbcc     runSCI.obj
 0002:00001bec       __STRLITPACK_923           000000014014bbec     runSCI.obj
 0002:00001bf8       __STRLITPACK_909           000000014014bbf8     runSCI.obj
 0002:00001c18       __STRLITPACK_907           000000014014bc18     runSCI.obj
 0002:00001c20       __STRLITPACK_905           000000014014bc20     runSCI.obj
 0002:00001c38       __STRLITPACK_894           000000014014bc38     runSCI.obj
 0002:00001c54       __STRLITPACK_892           000000014014bc54     runSCI.obj
 0002:00001c7c       __STRLITPACK_886           000000014014bc7c     runSCI.obj
 0002:00001c94       __STRLITPACK_884           000000014014bc94     runSCI.obj
 0002:00001c9c       __STRLITPACK_882           000000014014bc9c     runSCI.obj
 0002:00001cb4       __STRLITPACK_880           000000014014bcb4     runSCI.obj
 0002:00001cd0       __STRLITPACK_878           000000014014bcd0     runSCI.obj
 0002:00001d04       __STRLITPACK_877           000000014014bd04     runSCI.obj
 0002:00001d08       __STRLITPACK_876           000000014014bd08     runSCI.obj
 0002:00001d0c       __STRLITPACK_859           000000014014bd0c     runSCI.obj
 0002:00001d30       __STRLITPACK_872           000000014014bd30     runSCI.obj
 0002:00001d50       __STRLITPACK_868           000000014014bd50     runSCI.obj
 0002:00001d54       __STRLITPACK_919           000000014014bd54     runSCI.obj
 0002:00001d58       __STRLITPACK_916           000000014014bd58     runSCI.obj
 0002:00001d78       __STRLITPACK_914           000000014014bd78     runSCI.obj
 0002:00001d84       _2il0floatpacket.32        000000014014bd84     runSCI.obj
 0002:00001d88       _2il0floatpacket.33        000000014014bd88     runSCI.obj
 0002:00001d8c       _2il0floatpacket.34        000000014014bd8c     runSCI.obj
 0002:00001d90       _2il0floatpacket.35        000000014014bd90     runSCI.obj
 0002:00001d94       __STRLITPACK_800           000000014014bd94     runSCI.obj
 0002:00001da4       __STRLITPACK_799           000000014014bda4     runSCI.obj
 0002:00001db0       __STRLITPACK_795           000000014014bdb0     runSCI.obj
 0002:00001dc8       __STRLITPACK_744           000000014014bdc8     runSCI.obj
 0002:00001de4       __STRLITPACK_742           000000014014bde4     runSCI.obj
 0002:00001df0       __STRLITPACK_740           000000014014bdf0     runSCI.obj
 0002:00001dfc       __STRLITPACK_738           000000014014bdfc     runSCI.obj
 0002:00001e08       __STRLITPACK_736           000000014014be08     runSCI.obj
 0002:00001e14       __STRLITPACK_734           000000014014be14     runSCI.obj
 0002:00001e30       __STRLITPACK_763           000000014014be30     runSCI.obj
 0002:00001e4c       __STRLITPACK_761           000000014014be4c     runSCI.obj
 0002:00001e58       __STRLITPACK_759           000000014014be58     runSCI.obj
 0002:00001e64       __STRLITPACK_757           000000014014be64     runSCI.obj
 0002:00001e70       __STRLITPACK_755           000000014014be70     runSCI.obj
 0002:00001e7c       __STRLITPACK_753           000000014014be7c     runSCI.obj
 0002:00001ea0       __STRLITPACK_751           000000014014bea0     runSCI.obj
 0002:00001ea4       __STRLITPACK_748           000000014014bea4     runSCI.obj
 0002:00001ec0       __STRLITPACK_777           000000014014bec0     runSCI.obj
 0002:00001edc       __STRLITPACK_775           000000014014bedc     runSCI.obj
 0002:00001ee8       __STRLITPACK_773           000000014014bee8     runSCI.obj
 0002:00001ef4       __STRLITPACK_771           000000014014bef4     runSCI.obj
 0002:00001f00       __STRLITPACK_769           000000014014bf00     runSCI.obj
 0002:00001f0c       __STRLITPACK_767           000000014014bf0c     runSCI.obj
 0002:00001f28       __STRLITPACK_791           000000014014bf28     runSCI.obj
 0002:00001f44       __STRLITPACK_789           000000014014bf44     runSCI.obj
 0002:00001f50       __STRLITPACK_787           000000014014bf50     runSCI.obj
 0002:00001f5c       __STRLITPACK_785           000000014014bf5c     runSCI.obj
 0002:00001f68       __STRLITPACK_783           000000014014bf68     runSCI.obj
 0002:00001f74       __STRLITPACK_781           000000014014bf74     runSCI.obj
 0002:00001f90       __STRLITPACK_715           000000014014bf90     runSCI.obj
 0002:00001f98       __STRLITPACK_714           000000014014bf98     runSCI.obj
 0002:00001f9c       __STRLITPACK_713           000000014014bf9c     runSCI.obj
 0002:00001fa8       __STRLITPACK_712           000000014014bfa8     runSCI.obj
 0002:00001fb0       __STRLITPACK_711           000000014014bfb0     runSCI.obj
 0002:00001fb8       __STRLITPACK_710           000000014014bfb8     runSCI.obj
 0002:00001fc0       __STRLITPACK_709           000000014014bfc0     runSCI.obj
 0002:00001fc8       __STRLITPACK_708           000000014014bfc8     runSCI.obj
 0002:00001fd0       __STRLITPACK_707           000000014014bfd0     runSCI.obj
 0002:00001fd8       __STRLITPACK_705           000000014014bfd8     runSCI.obj
 0002:00001fe0       __STRLITPACK_706           000000014014bfe0     runSCI.obj
 0002:00001fe8       __STRLITPACK_701           000000014014bfe8     runSCI.obj
 0002:00001ff4       __STRLITPACK_700           000000014014bff4     runSCI.obj
 0002:00001ffc       __STRLITPACK_699           000000014014bffc     runSCI.obj
 0002:00002004       __STRLITPACK_698           000000014014c004     runSCI.obj
 0002:0000200c       __STRLITPACK_697           000000014014c00c     runSCI.obj
 0002:00002014       __STRLITPACK_696           000000014014c014     runSCI.obj
 0002:0000201c       __STRLITPACK_695           000000014014c01c     runSCI.obj
 0002:00002024       __STRLITPACK_694           000000014014c024     runSCI.obj
 0002:0000202c       __STRLITPACK_693           000000014014c02c     runSCI.obj
 0002:00002034       __STRLITPACK_692           000000014014c034     runSCI.obj
 0002:0000203c       __STRLITPACK_691           000000014014c03c     runSCI.obj
 0002:00002044       __STRLITPACK_690           000000014014c044     runSCI.obj
 0002:00002050       __STRLITPACK_685           000000014014c050     runSCI.obj
 0002:0000205c       __STRLITPACK_684           000000014014c05c     runSCI.obj
 0002:00002060       __STRLITPACK_677           000000014014c060     runSCI.obj
 0002:0000206c       __STRLITPACK_676           000000014014c06c     runSCI.obj
 0002:00002070       __STRLITPACK_675           000000014014c070     runSCI.obj
 0002:00002078       __STRLITPACK_671           000000014014c078     runSCI.obj
 0002:00002084       __STRLITPACK_670           000000014014c084     runSCI.obj
 0002:00002088       __STRLITPACK_669           000000014014c088     runSCI.obj
 0002:0000208c       __STRLITPACK_665           000000014014c08c     runSCI.obj
 0002:00002098       __STRLITPACK_661           000000014014c098     runSCI.obj
 0002:000020a4       __STRLITPACK_657           000000014014c0a4     runSCI.obj
 0002:000020b0       __STRLITPACK_653           000000014014c0b0     runSCI.obj
 0002:000020bc       __STRLITPACK_689           000000014014c0bc     runSCI.obj
 0002:000020c4       __STRLITPACK_704           000000014014c0c4     runSCI.obj
 0002:000020cc       __STRLITPACK_703           000000014014c0cc     runSCI.obj
 0002:000020d4       __STRLITPACK_702           000000014014c0d4     runSCI.obj
 0002:000020dc       __STRLITPACK_958           000000014014c0dc     runSCI.obj
 0002:000020e0       .T400_.0.1                 000000014014c0e0     UpdateStackEmission.obj
 0002:00002128       _2il0floatpacket.0         000000014014c128     UpdateStackEmission.obj
 0002:0000212c       _2il0floatpacket.1         000000014014c12c     UpdateStackEmission.obj
 0002:00002130       _2il0floatpacket.2         000000014014c130     UpdateStackEmission.obj
 0002:00002134       _2il0floatpacket.3         000000014014c134     UpdateStackEmission.obj
 0002:00002138       _2il0floatpacket.4         000000014014c138     UpdateStackEmission.obj
 0002:0000213c       _2il0floatpacket.5         000000014014c13c     UpdateStackEmission.obj
 0002:00002140       __STRLITPACK_0             000000014014c140     UpdateStackEmission.obj
 0002:00002160       __STRLITPACK_332.0.1       000000014014c160     ParseDataSO.obj
 0002:00002168       __STRLITPACK_334.0.1       000000014014c168     ParseDataSO.obj
 0002:00002170       __STRLITPACK_335.0.1       000000014014c170     ParseDataSO.obj
 0002:00002178       __STRLITPACK_336.0.1       000000014014c178     ParseDataSO.obj
 0002:00002180       __STRLITPACK_337.0.1       000000014014c180     ParseDataSO.obj
 0002:00002188       __STRLITPACK_338.0.1       000000014014c188     ParseDataSO.obj
 0002:00002190       __STRLITPACK_339.0.1       000000014014c190     ParseDataSO.obj
 0002:00002198       __STRLITPACK_333.0.1       000000014014c198     ParseDataSO.obj
 0002:000021a0       __NLITPACK_0.0.1           000000014014c1a0     ParseDataSO.obj
 0002:000021a4       __STRLITPACK_340.0.1       000000014014c1a4     ParseDataSO.obj
 0002:000021ac       __STRLITPACK_341.0.1       000000014014c1ac     ParseDataSO.obj
 0002:000021b4       __STRLITPACK_342.0.1       000000014014c1b4     ParseDataSO.obj
 0002:000021bc       __STRLITPACK_343.0.1       000000014014c1bc     ParseDataSO.obj
 0002:000021c4       __STRLITPACK_344.0.1       000000014014c1c4     ParseDataSO.obj
 0002:000021cc       __STRLITPACK_345.0.1       000000014014c1cc     ParseDataSO.obj
 0002:000021d4       __STRLITPACK_346.0.1       000000014014c1d4     ParseDataSO.obj
 0002:000021dc       __STRLITPACK_347.0.1       000000014014c1dc     ParseDataSO.obj
 0002:000021e4       __STRLITPACK_348.0.1       000000014014c1e4     ParseDataSO.obj
 0002:000021ec       __STRLITPACK_349.0.1       000000014014c1ec     ParseDataSO.obj
 0002:000021f4       __STRLITPACK_350.0.1       000000014014c1f4     ParseDataSO.obj
 0002:000021fc       __STRLITPACK_413.0.1       000000014014c1fc     ParseDataSO.obj
 0002:00002204       __STRLITPACK_414.0.1       000000014014c204     ParseDataSO.obj
 0002:0000220c       __STRLITPACK_415.0.1       000000014014c20c     ParseDataSO.obj
 0002:00002214       __STRLITPACK_416.0.1       000000014014c214     ParseDataSO.obj
 0002:0000221c       __STRLITPACK_417.0.1       000000014014c21c     ParseDataSO.obj
 0002:00002224       __STRLITPACK_418.0.1       000000014014c224     ParseDataSO.obj
 0002:0000222c       __STRLITPACK_419.0.1       000000014014c22c     ParseDataSO.obj
 0002:00002234       __STRLITPACK_420.0.1       000000014014c234     ParseDataSO.obj
 0002:0000223c       __STRLITPACK_421.0.1       000000014014c23c     ParseDataSO.obj
 0002:00002244       __STRLITPACK_422.0.1       000000014014c244     ParseDataSO.obj
 0002:0000224c       __STRLITPACK_423.0.1       000000014014c24c     ParseDataSO.obj
 0002:00002254       __STRLITPACK_424.0.1       000000014014c254     ParseDataSO.obj
 0002:0000225c       __STRLITPACK_425.0.1       000000014014c25c     ParseDataSO.obj
 0002:00002264       __NLITPACK_2.0.1           000000014014c264     ParseDataSO.obj
 0002:00002268       __STRLITPACK_426.0.1       000000014014c268     ParseDataSO.obj
 0002:00002270       __STRLITPACK_427.0.1       000000014014c270     ParseDataSO.obj
 0002:00002278       __STRLITPACK_428.0.1       000000014014c278     ParseDataSO.obj
 0002:00002280       __STRLITPACK_429.0.1       000000014014c280     ParseDataSO.obj
 0002:00002288       __STRLITPACK_430.0.1       000000014014c288     ParseDataSO.obj
 0002:00002290       __STRLITPACK_431.0.1       000000014014c290     ParseDataSO.obj
 0002:00002298       __STRLITPACK_432.0.1       000000014014c298     ParseDataSO.obj
 0002:000022a0       __STRLITPACK_433.0.1       000000014014c2a0     ParseDataSO.obj
 0002:000022a8       __STRLITPACK_434.0.1       000000014014c2a8     ParseDataSO.obj
 0002:000022b0       __NLITPACK_3.0.1           000000014014c2b0     ParseDataSO.obj
 0002:000022b4       __STRLITPACK_435.0.1       000000014014c2b4     ParseDataSO.obj
 0002:000022bc       __STRLITPACK_436.0.1       000000014014c2bc     ParseDataSO.obj
 0002:000022c4       __STRLITPACK_398.0.1       000000014014c2c4     ParseDataSO.obj
 0002:000022cc       __STRLITPACK_399.0.1       000000014014c2cc     ParseDataSO.obj
 0002:000022d4       __STRLITPACK_400.0.1       000000014014c2d4     ParseDataSO.obj
 0002:000022dc       __STRLITPACK_401.0.1       000000014014c2dc     ParseDataSO.obj
 0002:000022e4       __STRLITPACK_402.0.1       000000014014c2e4     ParseDataSO.obj
 0002:000022ec       __STRLITPACK_403.0.1       000000014014c2ec     ParseDataSO.obj
 0002:000022f4       __STRLITPACK_404.0.1       000000014014c2f4     ParseDataSO.obj
 0002:000022fc       __STRLITPACK_405.0.1       000000014014c2fc     ParseDataSO.obj
 0002:00002304       __STRLITPACK_406.0.1       000000014014c304     ParseDataSO.obj
 0002:0000230c       __STRLITPACK_407.0.1       000000014014c30c     ParseDataSO.obj
 0002:00002314       __STRLITPACK_408.0.1       000000014014c314     ParseDataSO.obj
 0002:0000231c       __STRLITPACK_409.0.1       000000014014c31c     ParseDataSO.obj
 0002:00002324       __STRLITPACK_410.0.1       000000014014c324     ParseDataSO.obj
 0002:0000232c       __STRLITPACK_411.0.1       000000014014c32c     ParseDataSO.obj
 0002:00002334       __STRLITPACK_412.0.1       000000014014c334     ParseDataSO.obj
 0002:0000233c       __NLITPACK_4.0.1           000000014014c33c     ParseDataSO.obj
 0002:00002340       __STRLITPACK_437.0.1       000000014014c340     ParseDataSO.obj
 0002:00002348       __STRLITPACK_438.0.1       000000014014c348     ParseDataSO.obj
 0002:00002350       __STRLITPACK_439.0.1       000000014014c350     ParseDataSO.obj
 0002:00002358       __STRLITPACK_440.0.1       000000014014c358     ParseDataSO.obj
 0002:00002360       __STRLITPACK_441.0.1       000000014014c360     ParseDataSO.obj
 0002:00002368       __NLITPACK_5.0.1           000000014014c368     ParseDataSO.obj
 0002:0000236c       __STRLITPACK_443.0.1       000000014014c36c     ParseDataSO.obj
 0002:0000237c       __STRLITPACK_444.0.1       000000014014c37c     ParseDataSO.obj
 0002:00002384       __STRLITPACK_445.0.1       000000014014c384     ParseDataSO.obj
 0002:0000238c       __STRLITPACK_447.0.1       000000014014c38c     ParseDataSO.obj
 0002:00002394       __STRLITPACK_448.0.1       000000014014c394     ParseDataSO.obj
 0002:0000239c       __STRLITPACK_389.0.1       000000014014c39c     ParseDataSO.obj
 0002:000023a4       __STRLITPACK_390.0.1       000000014014c3a4     ParseDataSO.obj
 0002:000023ac       __STRLITPACK_391.0.1       000000014014c3ac     ParseDataSO.obj
 0002:000023b4       __STRLITPACK_392.0.1       000000014014c3b4     ParseDataSO.obj
 0002:000023bc       __STRLITPACK_393.0.1       000000014014c3bc     ParseDataSO.obj
 0002:000023c4       __STRLITPACK_394.0.1       000000014014c3c4     ParseDataSO.obj
 0002:000023cc       __STRLITPACK_395.0.1       000000014014c3cc     ParseDataSO.obj
 0002:000023d4       __STRLITPACK_396.0.1       000000014014c3d4     ParseDataSO.obj
 0002:000023dc       __STRLITPACK_397.0.1       000000014014c3dc     ParseDataSO.obj
 0002:000023e4       __STRLITPACK_351.0.1       000000014014c3e4     ParseDataSO.obj
 0002:000023ec       __STRLITPACK_352.0.1       000000014014c3ec     ParseDataSO.obj
 0002:000023f4       __STRLITPACK_353.0.1       000000014014c3f4     ParseDataSO.obj
 0002:000023fc       __STRLITPACK_354.0.1       000000014014c3fc     ParseDataSO.obj
 0002:00002404       __STRLITPACK_355.0.1       000000014014c404     ParseDataSO.obj
 0002:0000240c       __STRLITPACK_356.0.1       000000014014c40c     ParseDataSO.obj
 0002:00002414       __STRLITPACK_357.0.1       000000014014c414     ParseDataSO.obj
 0002:0000241c       __STRLITPACK_358.0.1       000000014014c41c     ParseDataSO.obj
 0002:00002424       __STRLITPACK_359.0.1       000000014014c424     ParseDataSO.obj
 0002:0000242c       __STRLITPACK_360.0.1       000000014014c42c     ParseDataSO.obj
 0002:00002434       __STRLITPACK_361.0.1       000000014014c434     ParseDataSO.obj
 0002:0000243c       __NLITPACK_1.0.1           000000014014c43c     ParseDataSO.obj
 0002:00002440       __STRLITPACK_363.0.1       000000014014c440     ParseDataSO.obj
 0002:00002448       __STRLITPACK_364.0.1       000000014014c448     ParseDataSO.obj
 0002:00002450       __STRLITPACK_365.0.1       000000014014c450     ParseDataSO.obj
 0002:00002458       __STRLITPACK_366.0.1       000000014014c458     ParseDataSO.obj
 0002:00002460       __STRLITPACK_367.0.1       000000014014c460     ParseDataSO.obj
 0002:00002468       __STRLITPACK_368.0.1       000000014014c468     ParseDataSO.obj
 0002:00002470       __STRLITPACK_369.0.1       000000014014c470     ParseDataSO.obj
 0002:00002478       __STRLITPACK_370.0.1       000000014014c478     ParseDataSO.obj
 0002:00002480       __STRLITPACK_371.0.1       000000014014c480     ParseDataSO.obj
 0002:00002488       __STRLITPACK_372.0.1       000000014014c488     ParseDataSO.obj
 0002:00002490       __STRLITPACK_373.0.1       000000014014c490     ParseDataSO.obj
 0002:00002498       __STRLITPACK_374.0.1       000000014014c498     ParseDataSO.obj
 0002:000024a0       __STRLITPACK_375.0.1       000000014014c4a0     ParseDataSO.obj
 0002:000024a8       __STRLITPACK_376.0.1       000000014014c4a8     ParseDataSO.obj
 0002:000024b0       __STRLITPACK_377.0.1       000000014014c4b0     ParseDataSO.obj
 0002:000024b8       __STRLITPACK_378.0.1       000000014014c4b8     ParseDataSO.obj
 0002:000024c0       __STRLITPACK_379.0.1       000000014014c4c0     ParseDataSO.obj
 0002:000024c8       __STRLITPACK_380.0.1       000000014014c4c8     ParseDataSO.obj
 0002:000024d0       __STRLITPACK_381.0.1       000000014014c4d0     ParseDataSO.obj
 0002:000024d8       __STRLITPACK_382.0.1       000000014014c4d8     ParseDataSO.obj
 0002:000024e0       __STRLITPACK_383.0.1       000000014014c4e0     ParseDataSO.obj
 0002:000024e8       __STRLITPACK_384.0.1       000000014014c4e8     ParseDataSO.obj
 0002:000024f0       __STRLITPACK_385.0.1       000000014014c4f0     ParseDataSO.obj
 0002:000024f8       __STRLITPACK_386.0.1       000000014014c4f8     ParseDataSO.obj
 0002:00002500       __STRLITPACK_387.0.1       000000014014c500     ParseDataSO.obj
 0002:00002508       __STRLITPACK_388.0.1       000000014014c508     ParseDataSO.obj
 0002:00002510       __STRLITPACK_446.0.1       000000014014c510     ParseDataSO.obj
 0002:00002518       __STRLITPACK_442.0.1       000000014014c518     ParseDataSO.obj
 0002:00002520       __STRLITPACK_488.0.2       000000014014c520     ParseDataSO.obj
 0002:00002528       __STRLITPACK_489.0.2       000000014014c528     ParseDataSO.obj
 0002:00002530       __STRLITPACK_490.0.2       000000014014c530     ParseDataSO.obj
 0002:00002538       __STRLITPACK_491.0.2       000000014014c538     ParseDataSO.obj
 0002:00002540       __STRLITPACK_492.0.2       000000014014c540     ParseDataSO.obj
 0002:00002554       __STRLITPACK_493.0.2       000000014014c554     ParseDataSO.obj
 0002:0000255c       __STRLITPACK_494.0.2       000000014014c55c     ParseDataSO.obj
 0002:00002564       __STRLITPACK_496.0.2       000000014014c564     ParseDataSO.obj
 0002:0000256c       __STRLITPACK_497.0.2       000000014014c56c     ParseDataSO.obj
 0002:00002574       __STRLITPACK_498.0.2       000000014014c574     ParseDataSO.obj
 0002:0000257c       __NLITPACK_6.0.8           000000014014c57c     ParseDataSO.obj
 0002:00002580       __STRLITPACK_566.0.8       000000014014c580     ParseDataSO.obj
 0002:00002588       __STRLITPACK_559.0.8       000000014014c588     ParseDataSO.obj
 0002:00002590       __STRLITPACK_560.0.8       000000014014c590     ParseDataSO.obj
 0002:00002598       __STRLITPACK_553.0.8       000000014014c598     ParseDataSO.obj
 0002:000025a0       __STRLITPACK_567.0.8       000000014014c5a0     ParseDataSO.obj
 0002:000025a8       __STRLITPACK_563.0.8       000000014014c5a8     ParseDataSO.obj
 0002:000025b0       __STRLITPACK_564.0.8       000000014014c5b0     ParseDataSO.obj
 0002:000025b8       __STRLITPACK_565.0.8       000000014014c5b8     ParseDataSO.obj
 0002:000025c0       __STRLITPACK_561.0.8       000000014014c5c0     ParseDataSO.obj
 0002:000025c8       __STRLITPACK_562.0.8       000000014014c5c8     ParseDataSO.obj
 0002:000025d0       __STRLITPACK_554.0.8       000000014014c5d0     ParseDataSO.obj
 0002:000025d8       __STRLITPACK_555.0.8       000000014014c5d8     ParseDataSO.obj
 0002:000025e0       __STRLITPACK_556.0.8       000000014014c5e0     ParseDataSO.obj
 0002:000025e8       __STRLITPACK_557.0.8       000000014014c5e8     ParseDataSO.obj
 0002:000025f0       __STRLITPACK_558.0.8       000000014014c5f0     ParseDataSO.obj
 0002:00002600       .T2163_.0.3                000000014014c600     ParseDataSO.obj
 0002:00002648       __STRLITPACK_507.0.3       000000014014c648     ParseDataSO.obj
 0002:00002650       __STRLITPACK_508.0.3       000000014014c650     ParseDataSO.obj
 0002:00002660       __STRLITPACK_48            000000014014c660     ParseDataSO.obj
 0002:000026a0       _2il0floatpacket.48        000000014014c6a0     ParseDataSO.obj
 0002:000026b0       _2il0floatpacket.30        000000014014c6b0     ParseDataSO.obj
 0002:000026b4       _2il0floatpacket.31        000000014014c6b4     ParseDataSO.obj
 0002:000026b8       _2il0floatpacket.32        000000014014c6b8     ParseDataSO.obj
 0002:000026bc       _2il0floatpacket.33        000000014014c6bc     ParseDataSO.obj
 0002:000026c0       _2il0floatpacket.34        000000014014c6c0     ParseDataSO.obj
 0002:000026c4       _2il0floatpacket.35        000000014014c6c4     ParseDataSO.obj
 0002:000026c8       _2il0floatpacket.36        000000014014c6c8     ParseDataSO.obj
 0002:000026cc       __STRLITPACK_331           000000014014c6cc     ParseDataSO.obj
 0002:000026d8       __STRLITPACK_330           000000014014c6d8     ParseDataSO.obj
 0002:000026e0       __STRLITPACK_329           000000014014c6e0     ParseDataSO.obj
 0002:000026ec       __STRLITPACK_325           000000014014c6ec     ParseDataSO.obj
 0002:0000270c       __STRLITPACK_324           000000014014c70c     ParseDataSO.obj
 0002:00002710       __STRLITPACK_323           000000014014c710     ParseDataSO.obj
 0002:00002718       __STRLITPACK_322           000000014014c718     ParseDataSO.obj
 0002:00002720       __STRLITPACK_321           000000014014c720     ParseDataSO.obj
 0002:00002728       __STRLITPACK_320           000000014014c728     ParseDataSO.obj
 0002:00002730       __STRLITPACK_319           000000014014c730     ParseDataSO.obj
 0002:00002738       __STRLITPACK_318           000000014014c738     ParseDataSO.obj
 0002:00002740       __STRLITPACK_317           000000014014c740     ParseDataSO.obj
 0002:00002748       __STRLITPACK_316           000000014014c748     ParseDataSO.obj
 0002:00002754       __STRLITPACK_315           000000014014c754     ParseDataSO.obj
 0002:00002760       __STRLITPACK_307           000000014014c760     ParseDataSO.obj
 0002:00002774       __STRLITPACK_303           000000014014c774     ParseDataSO.obj
 0002:00002788       __STRLITPACK_299           000000014014c788     ParseDataSO.obj
 0002:0000279c       __STRLITPACK_311           000000014014c79c     ParseDataSO.obj
 0002:000027bc       __STRLITPACK_298           000000014014c7bc     ParseDataSO.obj
 0002:000027c8       __STRLITPACK_294           000000014014c7c8     ParseDataSO.obj
 0002:000027e8       __STRLITPACK_290           000000014014c7e8     ParseDataSO.obj
 0002:00002808       __STRLITPACK_286           000000014014c808     ParseDataSO.obj
 0002:00002828       __STRLITPACK_285           000000014014c828     ParseDataSO.obj
 0002:00002834       __STRLITPACK_281           000000014014c834     ParseDataSO.obj
 0002:00002864       __STRLITPACK_279           000000014014c864     ParseDataSO.obj
 0002:00002898       __STRLITPACK_275           000000014014c898     ParseDataSO.obj
 0002:000028d8       __STRLITPACK_274           000000014014c8d8     ParseDataSO.obj
 0002:000028e4       __STRLITPACK_273           000000014014c8e4     ParseDataSO.obj
 0002:000028ec       __STRLITPACK_272           000000014014c8ec     ParseDataSO.obj
 0002:000028f8       __STRLITPACK_268           000000014014c8f8     ParseDataSO.obj
 0002:00002918       __STRLITPACK_264           000000014014c918     ParseDataSO.obj
 0002:00002938       __STRLITPACK_263           000000014014c938     ParseDataSO.obj
 0002:00002944       __STRLITPACK_259           000000014014c944     ParseDataSO.obj
 0002:00002964       __STRLITPACK_255           000000014014c964     ParseDataSO.obj
 0002:00002984       __STRLITPACK_104           000000014014c984     ParseDataSO.obj
 0002:000029ac       __STRLITPACK_100           000000014014c9ac     ParseDataSO.obj
 0002:000029d4       __STRLITPACK_96            000000014014c9d4     ParseDataSO.obj
 0002:000029f4       __STRLITPACK_92            000000014014c9f4     ParseDataSO.obj
 0002:00002a18       __STRLITPACK_88            000000014014ca18     ParseDataSO.obj
 0002:00002a44       __STRLITPACK_84            000000014014ca44     ParseDataSO.obj
 0002:00002a6c       __STRLITPACK_80            000000014014ca6c     ParseDataSO.obj
 0002:00002a98       __STRLITPACK_79            000000014014ca98     ParseDataSO.obj
 0002:00002aa0       __STRLITPACK_78            000000014014caa0     ParseDataSO.obj
 0002:00002aa8       __STRLITPACK_77            000000014014caa8     ParseDataSO.obj
 0002:00002ab0       __STRLITPACK_73            000000014014cab0     ParseDataSO.obj
 0002:00002ad0       __STRLITPACK_69            000000014014cad0     ParseDataSO.obj
 0002:00002af8       __STRLITPACK_65            000000014014caf8     ParseDataSO.obj
 0002:00002b18       __STRLITPACK_61            000000014014cb18     ParseDataSO.obj
 0002:00002b40       __STRLITPACK_57            000000014014cb40     ParseDataSO.obj
 0002:00002b68       __STRLITPACK_56            000000014014cb68     ParseDataSO.obj
 0002:00002b70       __STRLITPACK_55            000000014014cb70     ParseDataSO.obj
 0002:00002b78       __STRLITPACK_54            000000014014cb78     ParseDataSO.obj
 0002:00002b80       __STRLITPACK_50            000000014014cb80     ParseDataSO.obj
 0002:00002b90       __STRLITPACK_139           000000014014cb90     ParseDataSO.obj
 0002:00002bb8       __STRLITPACK_135           000000014014cbb8     ParseDataSO.obj
 0002:00002bd8       __STRLITPACK_131           000000014014cbd8     ParseDataSO.obj
 0002:00002bf8       __STRLITPACK_127           000000014014cbf8     ParseDataSO.obj
 0002:00002c1c       __STRLITPACK_123           000000014014cc1c     ParseDataSO.obj
 0002:00002c48       __STRLITPACK_119           000000014014cc48     ParseDataSO.obj
 0002:00002c6c       __STRLITPACK_115           000000014014cc6c     ParseDataSO.obj
 0002:00002c90       __STRLITPACK_111           000000014014cc90     ParseDataSO.obj
 0002:00002cb8       __STRLITPACK_110           000000014014ccb8     ParseDataSO.obj
 0002:00002cc0       __STRLITPACK_109           000000014014ccc0     ParseDataSO.obj
 0002:00002cc8       __STRLITPACK_108           000000014014ccc8     ParseDataSO.obj
 0002:00002cd0       __STRLITPACK_47            000000014014ccd0     ParseDataSO.obj
 0002:00002cdc       __STRLITPACK_43            000000014014ccdc     ParseDataSO.obj
 0002:00002cfc       __STRLITPACK_42            000000014014ccfc     ParseDataSO.obj
 0002:00002d08       __STRLITPACK_38            000000014014cd08     ParseDataSO.obj
 0002:00002d28       __STRLITPACK_37            000000014014cd28     ParseDataSO.obj
 0002:00002d34       __STRLITPACK_33            000000014014cd34     ParseDataSO.obj
 0002:00002d54       __STRLITPACK_32            000000014014cd54     ParseDataSO.obj
 0002:00002d5c       __STRLITPACK_28            000000014014cd5c     ParseDataSO.obj
 0002:00002d78       __STRLITPACK_27            000000014014cd78     ParseDataSO.obj
 0002:00002d80       __STRLITPACK_23            000000014014cd80     ParseDataSO.obj
 0002:00002d9c       __STRLITPACK_22            000000014014cd9c     ParseDataSO.obj
 0002:00002da8       __STRLITPACK_14            000000014014cda8     ParseDataSO.obj
 0002:00002dcc       __STRLITPACK_10            000000014014cdcc     ParseDataSO.obj
 0002:00002ddc       __STRLITPACK_5             000000014014cddc     ParseDataSO.obj
 0002:00002de8       __STRLITPACK_4             000000014014cde8     ParseDataSO.obj
 0002:00002df4       __STRLITPACK_0             000000014014cdf4     ParseDataSO.obj
 0002:00002e18       __STRLITPACK_162           000000014014ce18     ParseDataSO.obj
 0002:00002e40       __STRLITPACK_158           000000014014ce40     ParseDataSO.obj
 0002:00002e68       __STRLITPACK_154           000000014014ce68     ParseDataSO.obj
 0002:00002e8c       __STRLITPACK_150           000000014014ce8c     ParseDataSO.obj
 0002:00002eb0       __STRLITPACK_146           000000014014ceb0     ParseDataSO.obj
 0002:00002ed0       __STRLITPACK_145           000000014014ced0     ParseDataSO.obj
 0002:00002ed8       __STRLITPACK_144           000000014014ced8     ParseDataSO.obj
 0002:00002ee0       __STRLITPACK_143           000000014014cee0     ParseDataSO.obj
 0002:00002eec       __STRLITPACK_251           000000014014ceec     ParseDataSO.obj
 0002:00002f14       __STRLITPACK_247           000000014014cf14     ParseDataSO.obj
 0002:00002f3c       __STRLITPACK_243           000000014014cf3c     ParseDataSO.obj
 0002:00002f5c       __STRLITPACK_239           000000014014cf5c     ParseDataSO.obj
 0002:00002f84       __STRLITPACK_235           000000014014cf84     ParseDataSO.obj
 0002:00002fac       __STRLITPACK_231           000000014014cfac     ParseDataSO.obj
 0002:00002fd4       __STRLITPACK_230           000000014014cfd4     ParseDataSO.obj
 0002:00002fdc       __STRLITPACK_229           000000014014cfdc     ParseDataSO.obj
 0002:00002fe4       __STRLITPACK_228           000000014014cfe4     ParseDataSO.obj
 0002:00002fec       __STRLITPACK_224           000000014014cfec     ParseDataSO.obj
 0002:00003010       __STRLITPACK_220           000000014014d010     ParseDataSO.obj
 0002:00003034       __STRLITPACK_216           000000014014d034     ParseDataSO.obj
 0002:00003054       __STRLITPACK_212           000000014014d054     ParseDataSO.obj
 0002:00003074       __STRLITPACK_208           000000014014d074     ParseDataSO.obj
 0002:00003094       __STRLITPACK_204           000000014014d094     ParseDataSO.obj
 0002:000030b0       __STRLITPACK_200           000000014014d0b0     ParseDataSO.obj
 0002:000030d0       __STRLITPACK_199           000000014014d0d0     ParseDataSO.obj
 0002:000030d8       __STRLITPACK_198           000000014014d0d8     ParseDataSO.obj
 0002:000030e0       __STRLITPACK_197           000000014014d0e0     ParseDataSO.obj
 0002:000030e8       __STRLITPACK_193           000000014014d0e8     ParseDataSO.obj
 0002:0000310c       __STRLITPACK_189           000000014014d10c     ParseDataSO.obj
 0002:00003130       __STRLITPACK_185           000000014014d130     ParseDataSO.obj
 0002:00003150       __STRLITPACK_181           000000014014d150     ParseDataSO.obj
 0002:00003170       __STRLITPACK_177           000000014014d170     ParseDataSO.obj
 0002:00003190       __STRLITPACK_173           000000014014d190     ParseDataSO.obj
 0002:000031ac       __STRLITPACK_169           000000014014d1ac     ParseDataSO.obj
 0002:000031cc       __STRLITPACK_168           000000014014d1cc     ParseDataSO.obj
 0002:000031d4       __STRLITPACK_167           000000014014d1d4     ParseDataSO.obj
 0002:000031dc       __STRLITPACK_166           000000014014d1dc     ParseDataSO.obj
 0002:000031e4       __STRLITPACK_6             000000014014d1e4     ParseDataSO.obj
 0002:0000320c       __STRLITPACK_18            000000014014d20c     ParseDataSO.obj
 0002:0000322c       __STRLITPACK_484           000000014014d22c     ParseDataSO.obj
 0002:0000324c       __STRLITPACK_480           000000014014d24c     ParseDataSO.obj
 0002:0000327c       __STRLITPACK_476           000000014014d27c     ParseDataSO.obj
 0002:000032ac       __STRLITPACK_472           000000014014d2ac     ParseDataSO.obj
 0002:000032e4       __STRLITPACK_471           000000014014d2e4     ParseDataSO.obj
 0002:000032ec       __STRLITPACK_469           000000014014d2ec     ParseDataSO.obj
 0002:000032f4       __STRLITPACK_470           000000014014d2f4     ParseDataSO.obj
 0002:000032fc       __STRLITPACK_465           000000014014d2fc     ParseDataSO.obj
 0002:00003320       __STRLITPACK_461           000000014014d320     ParseDataSO.obj
 0002:00003340       __STRLITPACK_455           000000014014d340     ParseDataSO.obj
 0002:00003344       __STRLITPACK_449           000000014014d344     ParseDataSO.obj
 0002:00003360       __STRLITPACK_538           000000014014d360     ParseDataSO.obj
 0002:0000339c       __STRLITPACK_537           000000014014d39c     ParseDataSO.obj
 0002:000033a4       __STRLITPACK_533           000000014014d3a4     ParseDataSO.obj
 0002:000033ac       __STRLITPACK_510           000000014014d3ac     ParseDataSO.obj
 0002:000033e8       __STRLITPACK_509           000000014014d3e8     ParseDataSO.obj
 0002:000033f0       __STRLITPACK_519           000000014014d3f0     ParseDataSO.obj
 0002:00003410       __STRLITPACK_515           000000014014d410     ParseDataSO.obj
 0002:0000341c       __STRLITPACK_528           000000014014d41c     ParseDataSO.obj
 0002:00003450       __STRLITPACK_527           000000014014d450     ParseDataSO.obj
 0002:00003458       __STRLITPACK_523           000000014014d458     ParseDataSO.obj
 0002:00003460       __STRLITPACK_548           000000014014d460     ParseDataSO.obj
 0002:0000347c       __STRLITPACK_547           000000014014d47c     ParseDataSO.obj
 0002:00003498       __STRLITPACK_544           000000014014d498     ParseDataSO.obj
 0002:000034a0       __STRLITPACK_543           000000014014d4a0     ParseDataSO.obj
 0002:000034ac       __STRLITPACK_503           000000014014d4ac     ParseDataSO.obj
 0002:000034d8       __STRLITPACK_499           000000014014d4d8     ParseDataSO.obj
 0002:00003500       _2il0floatpacket.47        000000014014d500     ParseDataSO.obj
 0002:00003504       _2il0floatpacket.49        000000014014d504     ParseDataSO.obj
 0002:00003520       __STRLITPACK_241.0.1       000000014014d520     ParseDataRE.obj
 0002:00003528       __NLITPACK_0.0.1           000000014014d528     ParseDataRE.obj
 0002:0000352c       __STRLITPACK_242.0.1       000000014014d52c     ParseDataRE.obj
 0002:00003534       __STRLITPACK_243.0.1       000000014014d534     ParseDataRE.obj
 0002:0000353c       __STRLITPACK_244.0.1       000000014014d53c     ParseDataRE.obj
 0002:00003544       __STRLITPACK_245.0.1       000000014014d544     ParseDataRE.obj
 0002:0000354c       __STRLITPACK_246.0.1       000000014014d54c     ParseDataRE.obj
 0002:00003554       __STRLITPACK_247.0.1       000000014014d554     ParseDataRE.obj
 0002:0000355c       __STRLITPACK_266.0.1       000000014014d55c     ParseDataRE.obj
 0002:00003564       __STRLITPACK_267.0.1       000000014014d564     ParseDataRE.obj
 0002:0000356c       __STRLITPACK_268.0.1       000000014014d56c     ParseDataRE.obj
 0002:00003574       __STRLITPACK_269.0.1       000000014014d574     ParseDataRE.obj
 0002:0000357c       __STRLITPACK_289.0.1       000000014014d57c     ParseDataRE.obj
 0002:00003584       __STRLITPACK_290.0.1       000000014014d584     ParseDataRE.obj
 0002:0000358c       __STRLITPACK_291.0.1       000000014014d58c     ParseDataRE.obj
 0002:00003594       __STRLITPACK_292.0.1       000000014014d594     ParseDataRE.obj
 0002:0000359c       __STRLITPACK_293.0.1       000000014014d59c     ParseDataRE.obj
 0002:000035a4       __STRLITPACK_294.0.1       000000014014d5a4     ParseDataRE.obj
 0002:000035ac       __STRLITPACK_295.0.1       000000014014d5ac     ParseDataRE.obj
 0002:000035b4       __STRLITPACK_296.0.1       000000014014d5b4     ParseDataRE.obj
 0002:000035bc       __STRLITPACK_297.0.1       000000014014d5bc     ParseDataRE.obj
 0002:000035c4       __STRLITPACK_298.0.1       000000014014d5c4     ParseDataRE.obj
 0002:000035cc       __STRLITPACK_299.0.1       000000014014d5cc     ParseDataRE.obj
 0002:000035d4       __STRLITPACK_300.0.1       000000014014d5d4     ParseDataRE.obj
 0002:000035dc       __STRLITPACK_301.0.1       000000014014d5dc     ParseDataRE.obj
 0002:000035e4       __STRLITPACK_302.0.1       000000014014d5e4     ParseDataRE.obj
 0002:000035ec       __STRLITPACK_303.0.1       000000014014d5ec     ParseDataRE.obj
 0002:000035f4       __STRLITPACK_304.0.1       000000014014d5f4     ParseDataRE.obj
 0002:000035fc       __STRLITPACK_305.0.1       000000014014d5fc     ParseDataRE.obj
 0002:00003604       __STRLITPACK_306.0.1       000000014014d604     ParseDataRE.obj
 0002:0000360c       __STRLITPACK_307.0.1       000000014014d60c     ParseDataRE.obj
 0002:00003614       __STRLITPACK_308.0.1       000000014014d614     ParseDataRE.obj
 0002:0000361c       __STRLITPACK_309.0.1       000000014014d61c     ParseDataRE.obj
 0002:00003624       __STRLITPACK_310.0.1       000000014014d624     ParseDataRE.obj
 0002:0000362c       __STRLITPACK_311.0.1       000000014014d62c     ParseDataRE.obj
 0002:00003634       __STRLITPACK_312.0.1       000000014014d634     ParseDataRE.obj
 0002:0000363c       __STRLITPACK_313.0.1       000000014014d63c     ParseDataRE.obj
 0002:00003644       __STRLITPACK_314.0.1       000000014014d644     ParseDataRE.obj
 0002:0000364c       __STRLITPACK_315.0.1       000000014014d64c     ParseDataRE.obj
 0002:00003654       __STRLITPACK_318.0.1       000000014014d654     ParseDataRE.obj
 0002:0000365c       __STRLITPACK_250.0.1       000000014014d65c     ParseDataRE.obj
 0002:00003664       __STRLITPACK_251.0.1       000000014014d664     ParseDataRE.obj
 0002:0000366c       __STRLITPACK_252.0.1       000000014014d66c     ParseDataRE.obj
 0002:00003674       __STRLITPACK_253.0.1       000000014014d674     ParseDataRE.obj
 0002:0000367c       __STRLITPACK_254.0.1       000000014014d67c     ParseDataRE.obj
 0002:00003684       __STRLITPACK_255.0.1       000000014014d684     ParseDataRE.obj
 0002:0000368c       __STRLITPACK_258.0.1       000000014014d68c     ParseDataRE.obj
 0002:00003694       __STRLITPACK_257.0.1       000000014014d694     ParseDataRE.obj
 0002:0000369c       __STRLITPACK_256.0.1       000000014014d69c     ParseDataRE.obj
 0002:000036a4       __STRLITPACK_249.0.1       000000014014d6a4     ParseDataRE.obj
 0002:000036ac       __STRLITPACK_263.0.1       000000014014d6ac     ParseDataRE.obj
 0002:000036b4       __STRLITPACK_264.0.1       000000014014d6b4     ParseDataRE.obj
 0002:000036bc       __STRLITPACK_262.0.1       000000014014d6bc     ParseDataRE.obj
 0002:000036c4       __STRLITPACK_265.0.1       000000014014d6c4     ParseDataRE.obj
 0002:000036cc       __STRLITPACK_260.0.1       000000014014d6cc     ParseDataRE.obj
 0002:000036d4       __STRLITPACK_261.0.1       000000014014d6d4     ParseDataRE.obj
 0002:000036dc       __STRLITPACK_259.0.1       000000014014d6dc     ParseDataRE.obj
 0002:000036e4       __STRLITPACK_248.0.1       000000014014d6e4     ParseDataRE.obj
 0002:000036ec       __STRLITPACK_272.0.1       000000014014d6ec     ParseDataRE.obj
 0002:000036f4       __STRLITPACK_274.0.1       000000014014d6f4     ParseDataRE.obj
 0002:000036fc       __STRLITPACK_283.0.1       000000014014d6fc     ParseDataRE.obj
 0002:00003704       __STRLITPACK_284.0.1       000000014014d704     ParseDataRE.obj
 0002:0000370c       __STRLITPACK_285.0.1       000000014014d70c     ParseDataRE.obj
 0002:00003714       __STRLITPACK_275.0.1       000000014014d714     ParseDataRE.obj
 0002:0000371c       __STRLITPACK_273.0.1       000000014014d71c     ParseDataRE.obj
 0002:00003724       __STRLITPACK_271.0.1       000000014014d724     ParseDataRE.obj
 0002:0000372c       __STRLITPACK_287.0.1       000000014014d72c     ParseDataRE.obj
 0002:00003734       __STRLITPACK_286.0.1       000000014014d734     ParseDataRE.obj
 0002:0000373c       __STRLITPACK_282.0.1       000000014014d73c     ParseDataRE.obj
 0002:00003744       __STRLITPACK_288.0.1       000000014014d744     ParseDataRE.obj
 0002:0000374c       __STRLITPACK_280.0.1       000000014014d74c     ParseDataRE.obj
 0002:00003754       __STRLITPACK_281.0.1       000000014014d754     ParseDataRE.obj
 0002:0000375c       __STRLITPACK_279.0.1       000000014014d75c     ParseDataRE.obj
 0002:00003764       __STRLITPACK_277.0.1       000000014014d764     ParseDataRE.obj
 0002:0000376c       __STRLITPACK_278.0.1       000000014014d76c     ParseDataRE.obj
 0002:00003774       __STRLITPACK_276.0.1       000000014014d774     ParseDataRE.obj
 0002:0000377c       __STRLITPACK_270.0.1       000000014014d77c     ParseDataRE.obj
 0002:00003784       __STRLITPACK_317.0.1       000000014014d784     ParseDataRE.obj
 0002:0000378c       __STRLITPACK_316.0.1       000000014014d78c     ParseDataRE.obj
 0002:000037a0       _2il0floatpacket.1         000000014014d7a0     ParseDataRE.obj
 0002:000037b0       _2il0floatpacket.0         000000014014d7b0     ParseDataRE.obj
 0002:000037b4       _2il0floatpacket.2         000000014014d7b4     ParseDataRE.obj
 0002:000037b8       _2il0floatpacket.3         000000014014d7b8     ParseDataRE.obj
 0002:000037bc       __STRLITPACK_240           000000014014d7bc     ParseDataRE.obj
 0002:000037c8       __STRLITPACK_239           000000014014d7c8     ParseDataRE.obj
 0002:000037d0       __STRLITPACK_238           000000014014d7d0     ParseDataRE.obj
 0002:000037dc       __STRLITPACK_237           000000014014d7dc     ParseDataRE.obj
 0002:000037e8       __STRLITPACK_233           000000014014d7e8     ParseDataRE.obj
 0002:00003808       __STRLITPACK_232           000000014014d808     ParseDataRE.obj
 0002:00003814       __STRLITPACK_228           000000014014d814     ParseDataRE.obj
 0002:00003830       __STRLITPACK_227           000000014014d830     ParseDataRE.obj
 0002:0000383c       __STRLITPACK_226           000000014014d83c     ParseDataRE.obj
 0002:00003844       __STRLITPACK_225           000000014014d844     ParseDataRE.obj
 0002:00003850       __STRLITPACK_221           000000014014d850     ParseDataRE.obj
 0002:00003870       __STRLITPACK_220           000000014014d870     ParseDataRE.obj
 0002:00003874       __STRLITPACK_216           000000014014d874     ParseDataRE.obj
 0002:00003890       __STRLITPACK_212           000000014014d890     ParseDataRE.obj
 0002:0000389c       __STRLITPACK_209           000000014014d89c     ParseDataRE.obj
 0002:000038a0       __STRLITPACK_159           000000014014d8a0     ParseDataRE.obj
 0002:000038ac       __STRLITPACK_155           000000014014d8ac     ParseDataRE.obj
 0002:000038cc       __STRLITPACK_154           000000014014d8cc     ParseDataRE.obj
 0002:000038d0       __STRLITPACK_150           000000014014d8d0     ParseDataRE.obj
 0002:000038ec       __STRLITPACK_146           000000014014d8ec     ParseDataRE.obj
 0002:000038f8       __STRLITPACK_144           000000014014d8f8     ParseDataRE.obj
 0002:000038fc       __STRLITPACK_84            000000014014d8fc     ParseDataRE.obj
 0002:00003908       __STRLITPACK_80            000000014014d908     ParseDataRE.obj
 0002:00003928       __STRLITPACK_76            000000014014d928     ParseDataRE.obj
 0002:0000395c       __STRLITPACK_74            000000014014d95c     ParseDataRE.obj
 0002:00003990       __STRLITPACK_73            000000014014d990     ParseDataRE.obj
 0002:00003998       __STRLITPACK_72            000000014014d998     ParseDataRE.obj
 0002:0000399c       __STRLITPACK_68            000000014014d99c     ParseDataRE.obj
 0002:000039c0       __STRLITPACK_67            000000014014d9c0     ParseDataRE.obj
 0002:000039cc       __STRLITPACK_63            000000014014d9cc     ParseDataRE.obj
 0002:00003a00       __STRLITPACK_59            000000014014da00     ParseDataRE.obj
 0002:00003a20       __STRLITPACK_55            000000014014da20     ParseDataRE.obj
 0002:00003a54       __STRLITPACK_51            000000014014da54     ParseDataRE.obj
 0002:00003a88       __STRLITPACK_50            000000014014da88     ParseDataRE.obj
 0002:00003a90       __STRLITPACK_46            000000014014da90     ParseDataRE.obj
 0002:00003ab0       __STRLITPACK_45            000000014014dab0     ParseDataRE.obj
 0002:00003ab4       __STRLITPACK_41            000000014014dab4     ParseDataRE.obj
 0002:00003ad8       __STRLITPACK_40            000000014014dad8     ParseDataRE.obj
 0002:00003ae4       __STRLITPACK_36            000000014014dae4     ParseDataRE.obj
 0002:00003b04       __STRLITPACK_32            000000014014db04     ParseDataRE.obj
 0002:00003b38       __STRLITPACK_28            000000014014db38     ParseDataRE.obj
 0002:00003b6c       __STRLITPACK_27            000000014014db6c     ParseDataRE.obj
 0002:00003b70       __STRLITPACK_23            000000014014db70     ParseDataRE.obj
 0002:00003b94       __STRLITPACK_22            000000014014db94     ParseDataRE.obj
 0002:00003b98       __STRLITPACK_21            000000014014db98     ParseDataRE.obj
 0002:00003b9c       __STRLITPACK_20            000000014014db9c     ParseDataRE.obj
 0002:00003ba4       __STRLITPACK_19            000000014014dba4     ParseDataRE.obj
 0002:00003bb0       __STRLITPACK_15            000000014014dbb0     ParseDataRE.obj
 0002:00003bd0       __STRLITPACK_14            000000014014dbd0     ParseDataRE.obj
 0002:00003bd4       __STRLITPACK_9             000000014014dbd4     ParseDataRE.obj
 0002:00003bd8       __STRLITPACK_4             000000014014dbd8     ParseDataRE.obj
 0002:00003be4       __STRLITPACK_0             000000014014dbe4     ParseDataRE.obj
 0002:00003c08       __STRLITPACK_203           000000014014dc08     ParseDataRE.obj
 0002:00003c0c       __STRLITPACK_202           000000014014dc0c     ParseDataRE.obj
 0002:00003c18       __STRLITPACK_201           000000014014dc18     ParseDataRE.obj
 0002:00003c20       __STRLITPACK_195           000000014014dc20     ParseDataRE.obj
 0002:00003c24       __STRLITPACK_194           000000014014dc24     ParseDataRE.obj
 0002:00003c28       __STRLITPACK_181           000000014014dc28     ParseDataRE.obj
 0002:00003c30       __STRLITPACK_172           000000014014dc30     ParseDataRE.obj
 0002:00003c38       __STRLITPACK_182           000000014014dc38     ParseDataRE.obj
 0002:00003c68       __STRLITPACK_186           000000014014dc68     ParseDataRE.obj
 0002:00003c98       __STRLITPACK_190           000000014014dc98     ParseDataRE.obj
 0002:00003cc0       __STRLITPACK_197           000000014014dcc0     ParseDataRE.obj
 0002:00003ce8       __STRLITPACK_164           000000014014dce8     ParseDataRE.obj
 0002:00003d10       __STRLITPACK_168           000000014014dd10     ParseDataRE.obj
 0002:00003d40       __STRLITPACK_163           000000014014dd40     ParseDataRE.obj
 0002:00003d44       __STRLITPACK_162           000000014014dd44     ParseDataRE.obj
 0002:00003d48       __STRLITPACK_160           000000014014dd48     ParseDataRE.obj
 0002:00003d6c       __STRLITPACK_173           000000014014dd6c     ParseDataRE.obj
 0002:00003d94       __STRLITPACK_177           000000014014dd94     ParseDataRE.obj
 0002:00003dc4       __STRLITPACK_205           000000014014ddc4     ParseDataRE.obj
 0002:00003dec       __STRLITPACK_138           000000014014ddec     ParseDataRE.obj
 0002:00003df0       __STRLITPACK_137           000000014014ddf0     ParseDataRE.obj
 0002:00003dfc       __STRLITPACK_136           000000014014ddfc     ParseDataRE.obj
 0002:00003e04       __STRLITPACK_121           000000014014de04     ParseDataRE.obj
 0002:00003e0c       __STRLITPACK_112           000000014014de0c     ParseDataRE.obj
 0002:00003e14       __STRLITPACK_103           000000014014de14     ParseDataRE.obj
 0002:00003e1c       __STRLITPACK_98            000000014014de1c     ParseDataRE.obj
 0002:00003e20       __STRLITPACK_97            000000014014de20     ParseDataRE.obj
 0002:00003e24       __STRLITPACK_122           000000014014de24     ParseDataRE.obj
 0002:00003e48       __STRLITPACK_126           000000014014de48     ParseDataRE.obj
 0002:00003e6c       __STRLITPACK_131           000000014014de6c     ParseDataRE.obj
 0002:00003e8c       __STRLITPACK_89            000000014014de8c     ParseDataRE.obj
 0002:00003ebc       __STRLITPACK_93            000000014014debc     ParseDataRE.obj
 0002:00003ee4       __STRLITPACK_99            000000014014dee4     ParseDataRE.obj
 0002:00003f08       __STRLITPACK_88            000000014014df08     ParseDataRE.obj
 0002:00003f0c       __STRLITPACK_87            000000014014df0c     ParseDataRE.obj
 0002:00003f10       __STRLITPACK_85            000000014014df10     ParseDataRE.obj
 0002:00003f30       __STRLITPACK_104           000000014014df30     ParseDataRE.obj
 0002:00003f58       __STRLITPACK_108           000000014014df58     ParseDataRE.obj
 0002:00003f88       __STRLITPACK_113           000000014014df88     ParseDataRE.obj
 0002:00003fb0       __STRLITPACK_117           000000014014dfb0     ParseDataRE.obj
 0002:00003fe0       __STRLITPACK_140           000000014014dfe0     ParseDataRE.obj
 0002:00004008       __STRLITPACK_5             000000014014e008     ParseDataRE.obj
 0002:00004024       __STRLITPACK_10            000000014014e024     ParseDataRE.obj
 0002:00004050       __NLITPACK_0.0.1           000000014014e050     ComputeDuration.obj
 0002:00004054       __NLITPACK_1.0.1           000000014014e054     ComputeDuration.obj
 0002:00004060       _2il0floatpacket.3         000000014014e060     ComputeDuration.obj
 0002:00004070       _2il0floatpacket.0         000000014014e070     ComputeDuration.obj
 0002:00004074       _2il0floatpacket.1         000000014014e074     ComputeDuration.obj
 0002:00004078       _2il0floatpacket.2         000000014014e078     ComputeDuration.obj
 0002:00004080       __NLITPACK_0.0.1           000000014014e080     ParseDataTE.obj
 0002:00004084       __STRLITPACK_30.0.1        000000014014e084     ParseDataTE.obj
 0002:0000408c       __STRLITPACK_32.0.1        000000014014e08c     ParseDataTE.obj
 0002:00004094       __STRLITPACK_24.0.1        000000014014e094     ParseDataTE.obj
 0002:0000409c       __STRLITPACK_25.0.1        000000014014e09c     ParseDataTE.obj
 0002:000040a4       __STRLITPACK_26.0.1        000000014014e0a4     ParseDataTE.obj
 0002:000040ac       __STRLITPACK_23.0.1        000000014014e0ac     ParseDataTE.obj
 0002:000040b4       __STRLITPACK_31.0.1        000000014014e0b4     ParseDataTE.obj
 0002:000040bc       __STRLITPACK_27.0.1        000000014014e0bc     ParseDataTE.obj
 0002:000040c4       __STRLITPACK_28.0.1        000000014014e0c4     ParseDataTE.obj
 0002:000040cc       __STRLITPACK_29.0.1        000000014014e0cc     ParseDataTE.obj
 0002:000040d4       __STRLITPACK_22            000000014014e0d4     ParseDataTE.obj
 0002:000040e0       __STRLITPACK_13            000000014014e0e0     ParseDataTE.obj
 0002:000040ec       __STRLITPACK_4             000000014014e0ec     ParseDataTE.obj
 0002:000040f8       __STRLITPACK_0             000000014014e0f8     ParseDataTE.obj
 0002:0000411c       __STRLITPACK_16            000000014014e11c     ParseDataTE.obj
 0002:00004138       __STRLITPACK_14            000000014014e138     ParseDataTE.obj
 0002:00004140       __STRLITPACK_18            000000014014e140     ParseDataTE.obj
 0002:00004160       __STRLITPACK_5             000000014014e160     ParseDataTE.obj
 0002:0000417c       __STRLITPACK_11            000000014014e17c     ParseDataTE.obj
 0002:000041a4       __STRLITPACK_9             000000014014e1a4     ParseDataTE.obj
 0002:000041b0       __STRLITPACK_320.0.1       000000014014e1b0     ParseDataME.obj
 0002:000041b8       __STRLITPACK_321.0.1       000000014014e1b8     ParseDataME.obj
 0002:000041c0       __STRLITPACK_326.0.1       000000014014e1c0     ParseDataME.obj
 0002:000041c8       __STRLITPACK_327.0.1       000000014014e1c8     ParseDataME.obj
 0002:000041d0       __STRLITPACK_331.0.1       000000014014e1d0     ParseDataME.obj
 0002:000041d8       __STRLITPACK_332.0.1       000000014014e1d8     ParseDataME.obj
 0002:000041e0       __STRLITPACK_333.0.1       000000014014e1e0     ParseDataME.obj
 0002:000041e8       __STRLITPACK_334.0.1       000000014014e1e8     ParseDataME.obj
 0002:000041f0       __STRLITPACK_335.0.1       000000014014e1f0     ParseDataME.obj
 0002:000041f8       __STRLITPACK_336.0.1       000000014014e1f8     ParseDataME.obj
 0002:00004200       __STRLITPACK_337.0.1       000000014014e200     ParseDataME.obj
 0002:00004208       __STRLITPACK_338.0.1       000000014014e208     ParseDataME.obj
 0002:00004210       __STRLITPACK_339.0.1       000000014014e210     ParseDataME.obj
 0002:00004218       __STRLITPACK_340.0.1       000000014014e218     ParseDataME.obj
 0002:00004220       __STRLITPACK_341.0.1       000000014014e220     ParseDataME.obj
 0002:00004228       __NLITPACK_0.0.1           000000014014e228     ParseDataME.obj
 0002:0000422c       __STRLITPACK_355.0.1       000000014014e22c     ParseDataME.obj
 0002:00004234       __STRLITPACK_356.0.1       000000014014e234     ParseDataME.obj
 0002:0000423c       __STRLITPACK_357.0.1       000000014014e23c     ParseDataME.obj
 0002:00004244       __STRLITPACK_358.0.1       000000014014e244     ParseDataME.obj
 0002:0000424c       __STRLITPACK_359.0.1       000000014014e24c     ParseDataME.obj
 0002:00004254       __STRLITPACK_360.0.1       000000014014e254     ParseDataME.obj
 0002:0000425c       __STRLITPACK_361.0.1       000000014014e25c     ParseDataME.obj
 0002:00004264       __STRLITPACK_362.0.1       000000014014e264     ParseDataME.obj
 0002:0000426c       __STRLITPACK_363.0.1       000000014014e26c     ParseDataME.obj
 0002:00004274       __STRLITPACK_376.0.1       000000014014e274     ParseDataME.obj
 0002:0000427c       __STRLITPACK_377.0.1       000000014014e27c     ParseDataME.obj
 0002:00004284       __STRLITPACK_378.0.1       000000014014e284     ParseDataME.obj
 0002:0000428c       __STRLITPACK_379.0.1       000000014014e28c     ParseDataME.obj
 0002:00004294       __STRLITPACK_380.0.1       000000014014e294     ParseDataME.obj
 0002:0000429c       __STRLITPACK_384.0.1       000000014014e29c     ParseDataME.obj
 0002:000042a4       __STRLITPACK_385.0.1       000000014014e2a4     ParseDataME.obj
 0002:000042ac       __STRLITPACK_391.0.1       000000014014e2ac     ParseDataME.obj
 0002:000042b4       __STRLITPACK_392.0.1       000000014014e2b4     ParseDataME.obj
 0002:000042bc       __STRLITPACK_393.0.1       000000014014e2bc     ParseDataME.obj
 0002:000042c4       __STRLITPACK_394.0.1       000000014014e2c4     ParseDataME.obj
 0002:000042cc       __STRLITPACK_395.0.1       000000014014e2cc     ParseDataME.obj
 0002:000042d4       __STRLITPACK_396.0.1       000000014014e2d4     ParseDataME.obj
 0002:000042dc       __STRLITPACK_397.0.1       000000014014e2dc     ParseDataME.obj
 0002:000042e4       __STRLITPACK_398.0.1       000000014014e2e4     ParseDataME.obj
 0002:000042ec       __STRLITPACK_399.0.1       000000014014e2ec     ParseDataME.obj
 0002:000042f4       __STRLITPACK_400.0.1       000000014014e2f4     ParseDataME.obj
 0002:000042fc       __STRLITPACK_401.0.1       000000014014e2fc     ParseDataME.obj
 0002:00004304       __STRLITPACK_402.0.1       000000014014e304     ParseDataME.obj
 0002:0000430c       __STRLITPACK_403.0.1       000000014014e30c     ParseDataME.obj
 0002:00004314       __STRLITPACK_404.0.1       000000014014e314     ParseDataME.obj
 0002:0000431c       __STRLITPACK_405.0.1       000000014014e31c     ParseDataME.obj
 0002:00004324       __STRLITPACK_406.0.1       000000014014e324     ParseDataME.obj
 0002:0000432c       __STRLITPACK_407.0.1       000000014014e32c     ParseDataME.obj
 0002:00004334       __STRLITPACK_408.0.1       000000014014e334     ParseDataME.obj
 0002:0000433c       __STRLITPACK_409.0.1       000000014014e33c     ParseDataME.obj
 0002:00004344       __STRLITPACK_410.0.1       000000014014e344     ParseDataME.obj
 0002:0000434c       __STRLITPACK_411.0.1       000000014014e34c     ParseDataME.obj
 0002:00004354       __STRLITPACK_412.0.1       000000014014e354     ParseDataME.obj
 0002:0000435c       __STRLITPACK_413.0.1       000000014014e35c     ParseDataME.obj
 0002:00004364       __STRLITPACK_414.0.1       000000014014e364     ParseDataME.obj
 0002:0000436c       __STRLITPACK_415.0.1       000000014014e36c     ParseDataME.obj
 0002:00004374       __STRLITPACK_416.0.1       000000014014e374     ParseDataME.obj
 0002:0000437c       __STRLITPACK_322.0.1       000000014014e37c     ParseDataME.obj
 0002:00004384       __STRLITPACK_323.0.1       000000014014e384     ParseDataME.obj
 0002:0000438c       __STRLITPACK_324.0.1       000000014014e38c     ParseDataME.obj
 0002:00004394       __STRLITPACK_319.0.1       000000014014e394     ParseDataME.obj
 0002:0000439c       __STRLITPACK_328.0.1       000000014014e39c     ParseDataME.obj
 0002:000043a4       __STRLITPACK_329.0.1       000000014014e3a4     ParseDataME.obj
 0002:000043ac       __STRLITPACK_330.0.1       000000014014e3ac     ParseDataME.obj
 0002:000043b4       __STRLITPACK_325.0.1       000000014014e3b4     ParseDataME.obj
 0002:000043bc       __STRLITPACK_342.0.1       000000014014e3bc     ParseDataME.obj
 0002:000043c4       __STRLITPACK_343.0.1       000000014014e3c4     ParseDataME.obj
 0002:000043cc       __STRLITPACK_344.0.1       000000014014e3cc     ParseDataME.obj
 0002:000043d4       __STRLITPACK_345.0.1       000000014014e3d4     ParseDataME.obj
 0002:000043dc       __STRLITPACK_346.0.1       000000014014e3dc     ParseDataME.obj
 0002:000043e4       __STRLITPACK_347.0.1       000000014014e3e4     ParseDataME.obj
 0002:000043ec       __STRLITPACK_348.0.1       000000014014e3ec     ParseDataME.obj
 0002:000043f4       __STRLITPACK_349.0.1       000000014014e3f4     ParseDataME.obj
 0002:000043fc       __STRLITPACK_350.0.1       000000014014e3fc     ParseDataME.obj
 0002:00004404       __STRLITPACK_352.0.1       000000014014e404     ParseDataME.obj
 0002:0000440c       __STRLITPACK_353.0.1       000000014014e40c     ParseDataME.obj
 0002:00004414       __STRLITPACK_354.0.1       000000014014e414     ParseDataME.obj
 0002:0000441c       __STRLITPACK_351.0.1       000000014014e41c     ParseDataME.obj
 0002:00004424       __STRLITPACK_365.0.1       000000014014e424     ParseDataME.obj
 0002:0000442c       __STRLITPACK_366.0.1       000000014014e42c     ParseDataME.obj
 0002:00004434       __STRLITPACK_364.0.1       000000014014e434     ParseDataME.obj
 0002:0000443c       __STRLITPACK_368.0.1       000000014014e43c     ParseDataME.obj
 0002:00004444       __STRLITPACK_369.0.1       000000014014e444     ParseDataME.obj
 0002:0000444c       __STRLITPACK_370.0.1       000000014014e44c     ParseDataME.obj
 0002:00004454       __STRLITPACK_367.0.1       000000014014e454     ParseDataME.obj
 0002:0000445c       __STRLITPACK_372.0.1       000000014014e45c     ParseDataME.obj
 0002:00004464       __STRLITPACK_373.0.1       000000014014e464     ParseDataME.obj
 0002:0000446c       __STRLITPACK_374.0.1       000000014014e46c     ParseDataME.obj
 0002:00004474       __STRLITPACK_371.0.1       000000014014e474     ParseDataME.obj
 0002:0000447c       __STRLITPACK_375.0.1       000000014014e47c     ParseDataME.obj
 0002:00004484       __STRLITPACK_381.0.1       000000014014e484     ParseDataME.obj
 0002:0000448c       __STRLITPACK_382.0.1       000000014014e48c     ParseDataME.obj
 0002:00004494       __STRLITPACK_383.0.1       000000014014e494     ParseDataME.obj
 0002:0000449c       __STRLITPACK_387.0.1       000000014014e49c     ParseDataME.obj
 0002:000044a4       __STRLITPACK_388.0.1       000000014014e4a4     ParseDataME.obj
 0002:000044ac       __STRLITPACK_389.0.1       000000014014e4ac     ParseDataME.obj
 0002:000044b4       __STRLITPACK_386.0.1       000000014014e4b4     ParseDataME.obj
 0002:000044bc       __STRLITPACK_390.0.1       000000014014e4bc     ParseDataME.obj
 0002:000044c4       _2il0floatpacket.0         000000014014e4c4     ParseDataME.obj
 0002:000044c8       _2il0floatpacket.1         000000014014e4c8     ParseDataME.obj
 0002:000044cc       _2il0floatpacket.2         000000014014e4cc     ParseDataME.obj
 0002:000044d0       __STRLITPACK_318           000000014014e4d0     ParseDataME.obj
 0002:000044dc       __STRLITPACK_310           000000014014e4dc     ParseDataME.obj
 0002:000044f8       __STRLITPACK_306           000000014014e4f8     ParseDataME.obj
 0002:0000451c       __STRLITPACK_299           000000014014e51c     ParseDataME.obj
 0002:00004528       __STRLITPACK_291           000000014014e528     ParseDataME.obj
 0002:00004544       __STRLITPACK_287           000000014014e544     ParseDataME.obj
 0002:00004568       __STRLITPACK_280           000000014014e568     ParseDataME.obj
 0002:00004574       __STRLITPACK_276           000000014014e574     ParseDataME.obj
 0002:000045a8       __STRLITPACK_272           000000014014e5a8     ParseDataME.obj
 0002:000045c8       __STRLITPACK_268           000000014014e5c8     ParseDataME.obj
 0002:000045f4       __STRLITPACK_264           000000014014e5f4     ParseDataME.obj
 0002:00004614       __STRLITPACK_260           000000014014e614     ParseDataME.obj
 0002:0000463c       __STRLITPACK_256           000000014014e63c     ParseDataME.obj
 0002:00004664       __STRLITPACK_255           000000014014e664     ParseDataME.obj
 0002:00004670       __STRLITPACK_251           000000014014e670     ParseDataME.obj
 0002:000046a0       __STRLITPACK_230           000000014014e6a0     ParseDataME.obj
 0002:000046ac       __STRLITPACK_0             000000014014e6ac     ParseDataME.obj
 0002:000046b0       __STRLITPACK_1             000000014014e6b0     ParseDataME.obj
 0002:000046b4       __STRLITPACK_219           000000014014e6b4     ParseDataME.obj
 0002:000046b8       __STRLITPACK_218           000000014014e6b8     ParseDataME.obj
 0002:000046bc       __STRLITPACK_217           000000014014e6bc     ParseDataME.obj
 0002:000046c0       __STRLITPACK_216           000000014014e6c0     ParseDataME.obj
 0002:000046c4       __STRLITPACK_212           000000014014e6c4     ParseDataME.obj
 0002:000046e8       __STRLITPACK_208           000000014014e6e8     ParseDataME.obj
 0002:0000470c       __STRLITPACK_207           000000014014e70c     ParseDataME.obj
 0002:00004710       __STRLITPACK_203           000000014014e710     ParseDataME.obj
 0002:00004734       __STRLITPACK_199           000000014014e734     ParseDataME.obj
 0002:00004758       __STRLITPACK_198           000000014014e758     ParseDataME.obj
 0002:00004764       __STRLITPACK_194           000000014014e764     ParseDataME.obj
 0002:00004794       __STRLITPACK_185           000000014014e794     ParseDataME.obj
 0002:0000479c       __STRLITPACK_184           000000014014e79c     ParseDataME.obj
 0002:000047a4       __STRLITPACK_173           000000014014e7a4     ParseDataME.obj
 0002:000047ac       __STRLITPACK_172           000000014014e7ac     ParseDataME.obj
 0002:000047b4       __STRLITPACK_161           000000014014e7b4     ParseDataME.obj
 0002:000047bc       __STRLITPACK_153           000000014014e7bc     ParseDataME.obj
 0002:000047d8       __STRLITPACK_152           000000014014e7d8     ParseDataME.obj
 0002:000047e0       __STRLITPACK_148           000000014014e7e0     ParseDataME.obj
 0002:000047fc       __STRLITPACK_144           000000014014e7fc     ParseDataME.obj
 0002:00004824       __STRLITPACK_141           000000014014e824     ParseDataME.obj
 0002:00004830       __STRLITPACK_140           000000014014e830     ParseDataME.obj
 0002:00004838       __STRLITPACK_136           000000014014e838     ParseDataME.obj
 0002:00004858       __STRLITPACK_129           000000014014e858     ParseDataME.obj
 0002:00004860       __STRLITPACK_128           000000014014e860     ParseDataME.obj
 0002:0000486c       __STRLITPACK_119           000000014014e86c     ParseDataME.obj
 0002:00004870       __STRLITPACK_118           000000014014e870     ParseDataME.obj
 0002:00004874       __STRLITPACK_117           000000014014e874     ParseDataME.obj
 0002:00004878       __STRLITPACK_116           000000014014e878     ParseDataME.obj
 0002:0000487c       __STRLITPACK_115           000000014014e87c     ParseDataME.obj
 0002:00004888       __STRLITPACK_114           000000014014e888     ParseDataME.obj
 0002:0000488c       __STRLITPACK_113           000000014014e88c     ParseDataME.obj
 0002:00004894       __STRLITPACK_124           000000014014e894     ParseDataME.obj
 0002:000048ac       __STRLITPACK_120           000000014014e8ac     ParseDataME.obj
 0002:000048d0       __STRLITPACK_112           000000014014e8d0     ParseDataME.obj
 0002:000048d8       __STRLITPACK_111           000000014014e8d8     ParseDataME.obj
 0002:000048e0       __STRLITPACK_100           000000014014e8e0     ParseDataME.obj
 0002:000048ec       __STRLITPACK_99            000000014014e8ec     ParseDataME.obj
 0002:000048f4       __STRLITPACK_98            000000014014e8f4     ParseDataME.obj
 0002:00004900       __STRLITPACK_97            000000014014e900     ParseDataME.obj
 0002:00004908       __STRLITPACK_96            000000014014e908     ParseDataME.obj
 0002:00004910       __STRLITPACK_95            000000014014e910     ParseDataME.obj
 0002:00004918       __STRLITPACK_87            000000014014e918     ParseDataME.obj
 0002:00004934       __STRLITPACK_86            000000014014e934     ParseDataME.obj
 0002:00004940       __STRLITPACK_85            000000014014e940     ParseDataME.obj
 0002:00004948       __STRLITPACK_84            000000014014e948     ParseDataME.obj
 0002:00004950       __STRLITPACK_83            000000014014e950     ParseDataME.obj
 0002:00004954       __STRLITPACK_82            000000014014e954     ParseDataME.obj
 0002:00004960       __STRLITPACK_81            000000014014e960     ParseDataME.obj
 0002:00004964       __STRLITPACK_80            000000014014e964     ParseDataME.obj
 0002:0000496c       __STRLITPACK_79            000000014014e96c     ParseDataME.obj
 0002:00004978       __STRLITPACK_78            000000014014e978     ParseDataME.obj
 0002:00004980       __STRLITPACK_77            000000014014e980     ParseDataME.obj
 0002:00004988       __STRLITPACK_76            000000014014e988     ParseDataME.obj
 0002:00004990       __STRLITPACK_75            000000014014e990     ParseDataME.obj
 0002:00004998       __STRLITPACK_74            000000014014e998     ParseDataME.obj
 0002:000049a0       __STRLITPACK_73            000000014014e9a0     ParseDataME.obj
 0002:000049a8       __STRLITPACK_72            000000014014e9a8     ParseDataME.obj
 0002:000049b0       __STRLITPACK_71            000000014014e9b0     ParseDataME.obj
 0002:000049bc       __STRLITPACK_70            000000014014e9bc     ParseDataME.obj
 0002:000049c0       __STRLITPACK_69            000000014014e9c0     ParseDataME.obj
 0002:000049c4       __STRLITPACK_68            000000014014e9c4     ParseDataME.obj
 0002:000049cc       __STRLITPACK_67            000000014014e9cc     ParseDataME.obj
 0002:000049d0       __STRLITPACK_66            000000014014e9d0     ParseDataME.obj
 0002:000049d8       __STRLITPACK_65            000000014014e9d8     ParseDataME.obj
 0002:000049dc       __STRLITPACK_64            000000014014e9dc     ParseDataME.obj
 0002:000049e4       __STRLITPACK_63            000000014014e9e4     ParseDataME.obj
 0002:000049ec       __STRLITPACK_59            000000014014e9ec     ParseDataME.obj
 0002:00004a0c       __STRLITPACK_55            000000014014ea0c     ParseDataME.obj
 0002:00004a38       __STRLITPACK_51            000000014014ea38     ParseDataME.obj
 0002:00004a54       __STRLITPACK_47            000000014014ea54     ParseDataME.obj
 0002:00004a70       __STRLITPACK_46            000000014014ea70     ParseDataME.obj
 0002:00004a7c       __STRLITPACK_42            000000014014ea7c     ParseDataME.obj
 0002:00004a9c       __STRLITPACK_38            000000014014ea9c     ParseDataME.obj
 0002:00004ac4       __STRLITPACK_34            000000014014eac4     ParseDataME.obj
 0002:00004aec       __STRLITPACK_30            000000014014eaec     ParseDataME.obj
 0002:00004b10       __STRLITPACK_26            000000014014eb10     ParseDataME.obj
 0002:00004b38       __STRLITPACK_22            000000014014eb38     ParseDataME.obj
 0002:00004b5c       __STRLITPACK_18            000000014014eb5c     ParseDataME.obj
 0002:00004b80       __STRLITPACK_14            000000014014eb80     ParseDataME.obj
 0002:00004ba4       __STRLITPACK_10            000000014014eba4     ParseDataME.obj
 0002:00004bc8       __STRLITPACK_9             000000014014ebc8     ParseDataME.obj
 0002:00004bd0       __STRLITPACK_8             000000014014ebd0     ParseDataME.obj
 0002:00004bd4       __STRLITPACK_7             000000014014ebd4     ParseDataME.obj
 0002:00004bdc       __STRLITPACK_6             000000014014ebdc     ParseDataME.obj
 0002:00004be8       __STRLITPACK_2             000000014014ebe8     ParseDataME.obj
 0002:00004c0c       __STRLITPACK_302           000000014014ec0c     ParseDataME.obj
 0002:00004c28       __STRLITPACK_300           000000014014ec28     ParseDataME.obj
 0002:00004c30       __STRLITPACK_314           000000014014ec30     ParseDataME.obj
 0002:00004c50       __STRLITPACK_283           000000014014ec50     ParseDataME.obj
 0002:00004c6c       __STRLITPACK_281           000000014014ec6c     ParseDataME.obj
 0002:00004c74       __STRLITPACK_295           000000014014ec74     ParseDataME.obj
 0002:00004c94       __STRLITPACK_247           000000014014ec94     ParseDataME.obj
 0002:00004cb4       __STRLITPACK_243           000000014014ecb4     ParseDataME.obj
 0002:00004ce0       __STRLITPACK_239           000000014014ece0     ParseDataME.obj
 0002:00004d00       __STRLITPACK_235           000000014014ed00     ParseDataME.obj
 0002:00004d28       __STRLITPACK_231           000000014014ed28     ParseDataME.obj
 0002:00004d50       __STRLITPACK_222           000000014014ed50     ParseDataME.obj
 0002:00004d6c       __STRLITPACK_220           000000014014ed6c     ParseDataME.obj
 0002:00004d74       __STRLITPACK_226           000000014014ed74     ParseDataME.obj
 0002:00004d94       __STRLITPACK_186           000000014014ed94     ParseDataME.obj
 0002:00004db0       __STRLITPACK_190           000000014014edb0     ParseDataME.obj
 0002:00004dd0       __STRLITPACK_176           000000014014edd0     ParseDataME.obj
 0002:00004dec       __STRLITPACK_174           000000014014edec     ParseDataME.obj
 0002:00004df4       __STRLITPACK_180           000000014014edf4     ParseDataME.obj
 0002:00004e14       __STRLITPACK_164           000000014014ee14     ParseDataME.obj
 0002:00004e30       __STRLITPACK_162           000000014014ee30     ParseDataME.obj
 0002:00004e38       __STRLITPACK_168           000000014014ee38     ParseDataME.obj
 0002:00004e58       __STRLITPACK_157           000000014014ee58     ParseDataME.obj
 0002:00004e78       __STRLITPACK_143           000000014014ee78     ParseDataME.obj
 0002:00004e7c       __STRLITPACK_142           000000014014ee7c     ParseDataME.obj
 0002:00004e80       __STRLITPACK_132           000000014014ee80     ParseDataME.obj
 0002:00004e9c       __STRLITPACK_130           000000014014ee9c     ParseDataME.obj
 0002:00004ea4       __STRLITPACK_103           000000014014eea4     ParseDataME.obj
 0002:00004ec0       __STRLITPACK_101           000000014014eec0     ParseDataME.obj
 0002:00004ec8       __STRLITPACK_107           000000014014eec8     ParseDataME.obj
 0002:00004ee8       __STRLITPACK_91            000000014014eee8     ParseDataME.obj
 0002:00004f20       __STRLITPACK_403.0.1       000000014014ef20     RunAERMODInp.obj
 0002:00004f28       __STRLITPACK_408.0.1       000000014014ef28     RunAERMODInp.obj
 0002:00004f2c       __STRLITPACK_409.0.1       000000014014ef2c     RunAERMODInp.obj
 0002:00004f34       __STRLITPACK_410.0.1       000000014014ef34     RunAERMODInp.obj
 0002:00004f3c       __STRLITPACK_411.0.1       000000014014ef3c     RunAERMODInp.obj
 0002:00004f44       __STRLITPACK_412.0.1       000000014014ef44     RunAERMODInp.obj
 0002:00004f4c       __STRLITPACK_413.0.1       000000014014ef4c     RunAERMODInp.obj
 0002:00004f54       __STRLITPACK_404.0.1       000000014014ef54     RunAERMODInp.obj
 0002:00004f5c       __STRLITPACK_405.0.1       000000014014ef5c     RunAERMODInp.obj
 0002:00004f64       __STRLITPACK_406.0.1       000000014014ef64     RunAERMODInp.obj
 0002:00004f6c       __STRLITPACK_407.0.1       000000014014ef6c     RunAERMODInp.obj
 0002:00004f74       __STRLITPACK_494.0.2       000000014014ef74     RunAERMODInp.obj
 0002:00004f7c       __STRLITPACK_495.0.2       000000014014ef7c     RunAERMODInp.obj
 0002:00004f84       __STRLITPACK_496.0.2       000000014014ef84     RunAERMODInp.obj
 0002:00004f8c       __STRLITPACK_498.0.2       000000014014ef8c     RunAERMODInp.obj
 0002:00004f94       __STRLITPACK_499.0.2       000000014014ef94     RunAERMODInp.obj
 0002:00004f9c       __STRLITPACK_500.0.2       000000014014ef9c     RunAERMODInp.obj
 0002:00004fa4       __STRLITPACK_502.0.2       000000014014efa4     RunAERMODInp.obj
 0002:00004fac       __STRLITPACK_503.0.2       000000014014efac     RunAERMODInp.obj
 0002:00004fb4       __STRLITPACK_504.0.2       000000014014efb4     RunAERMODInp.obj
 0002:00004fbc       __STRLITPACK_505.0.2       000000014014efbc     RunAERMODInp.obj
 0002:00004fc4       __STRLITPACK_506.0.2       000000014014efc4     RunAERMODInp.obj
 0002:00004fcc       __STRLITPACK_507.0.2       000000014014efcc     RunAERMODInp.obj
 0002:00004fd4       __STRLITPACK_508.0.2       000000014014efd4     RunAERMODInp.obj
 0002:00004fdc       __STRLITPACK_509.0.2       000000014014efdc     RunAERMODInp.obj
 0002:00004fe4       __STRLITPACK_510.0.2       000000014014efe4     RunAERMODInp.obj
 0002:00004fec       __STRLITPACK_513.0.2       000000014014efec     RunAERMODInp.obj
 0002:00004ff4       __STRLITPACK_514.0.2       000000014014eff4     RunAERMODInp.obj
 0002:00004ffc       __STRLITPACK_512.0.2       000000014014effc     RunAERMODInp.obj
 0002:00005004       __STRLITPACK_515.0.2       000000014014f004     RunAERMODInp.obj
 0002:0000500c       __STRLITPACK_516.0.2       000000014014f00c     RunAERMODInp.obj
 0002:00005014       __STRLITPACK_517.0.2       000000014014f014     RunAERMODInp.obj
 0002:0000501c       __STRLITPACK_518.0.2       000000014014f01c     RunAERMODInp.obj
 0002:00005024       __STRLITPACK_519.0.2       000000014014f024     RunAERMODInp.obj
 0002:0000502c       __STRLITPACK_520.0.2       000000014014f02c     RunAERMODInp.obj
 0002:00005034       __STRLITPACK_521.0.2       000000014014f034     RunAERMODInp.obj
 0002:0000503c       __STRLITPACK_511.0.2       000000014014f03c     RunAERMODInp.obj
 0002:00005044       __STRLITPACK_501.0.2       000000014014f044     RunAERMODInp.obj
 0002:0000504c       __STRLITPACK_497.0.2       000000014014f04c     RunAERMODInp.obj
 0002:00005060       __STRLITPACK_398           000000014014f060     RunAERMODInp.obj
 0002:000050a8       _2il0floatpacket.0         000000014014f0a8     RunAERMODInp.obj
 0002:000050ac       __STRLITPACK_402           000000014014f0ac     RunAERMODInp.obj
 0002:000050b0       __STRLITPACK_401           000000014014f0b0     RunAERMODInp.obj
 0002:000050c0       __STRLITPACK_393           000000014014f0c0     RunAERMODInp.obj
 0002:000050cc       __STRLITPACK_392           000000014014f0cc     RunAERMODInp.obj
 0002:000050dc       __STRLITPACK_391           000000014014f0dc     RunAERMODInp.obj
 0002:000050f4       __STRLITPACK_390           000000014014f0f4     RunAERMODInp.obj
 0002:00005120       __STRLITPACK_389           000000014014f120     RunAERMODInp.obj
 0002:00005124       __STRLITPACK_397           000000014014f124     RunAERMODInp.obj
 0002:00005134       __STRLITPACK_396           000000014014f134     RunAERMODInp.obj
 0002:00005150       __STRLITPACK_395           000000014014f150     RunAERMODInp.obj
 0002:0000517c       __STRLITPACK_490           000000014014f17c     RunAERMODInp.obj
 0002:000051b0       __STRLITPACK_486           000000014014f1b0     RunAERMODInp.obj
 0002:000051d0       __STRLITPACK_482           000000014014f1d0     RunAERMODInp.obj
 0002:00005200       __STRLITPACK_474           000000014014f200     RunAERMODInp.obj
 0002:00005218       __STRLITPACK_470           000000014014f218     RunAERMODInp.obj
 0002:00005228       __STRLITPACK_462           000000014014f228     RunAERMODInp.obj
 0002:00005248       __STRLITPACK_458           000000014014f248     RunAERMODInp.obj
 0002:0000525c       __STRLITPACK_454           000000014014f25c     RunAERMODInp.obj
 0002:00005274       __STRLITPACK_450           000000014014f274     RunAERMODInp.obj
 0002:0000528c       __STRLITPACK_446           000000014014f28c     RunAERMODInp.obj
 0002:000052a0       __STRLITPACK_434           000000014014f2a0     RunAERMODInp.obj
 0002:000052c0       __STRLITPACK_430           000000014014f2c0     RunAERMODInp.obj
 0002:000052e0       __STRLITPACK_438           000000014014f2e0     RunAERMODInp.obj
 0002:00005300       __STRLITPACK_426           000000014014f300     RunAERMODInp.obj
 0002:00005324       __STRLITPACK_422           000000014014f324     RunAERMODInp.obj
 0002:00005344       __STRLITPACK_418           000000014014f344     RunAERMODInp.obj
 0002:00005364       __STRLITPACK_414           000000014014f364     RunAERMODInp.obj
 0002:00005398       __STRLITPACK_442           000000014014f398     RunAERMODInp.obj
 0002:000053c0       __STRLITPACK_466           000000014014f3c0     RunAERMODInp.obj
 0002:000053e8       __STRLITPACK_478           000000014014f3e8     RunAERMODInp.obj
 0002:00005400       __STRLITPACK_309.0.1       000000014014f400     ParseDataCO.obj
 0002:00005408       __STRLITPACK_310.0.1       000000014014f408     ParseDataCO.obj
 0002:00005410       __STRLITPACK_311.0.1       000000014014f410     ParseDataCO.obj
 0002:00005418       __STRLITPACK_312.0.1       000000014014f418     ParseDataCO.obj
 0002:00005420       __STRLITPACK_313.0.1       000000014014f420     ParseDataCO.obj
 0002:00005428       __STRLITPACK_314.0.1       000000014014f428     ParseDataCO.obj
 0002:00005430       __STRLITPACK_332.0.1       000000014014f430     ParseDataCO.obj
 0002:00005438       __STRLITPACK_333.0.1       000000014014f438     ParseDataCO.obj
 0002:00005440       __STRLITPACK_334.0.1       000000014014f440     ParseDataCO.obj
 0002:00005448       __STRLITPACK_336.0.1       000000014014f448     ParseDataCO.obj
 0002:00005450       __STRLITPACK_337.0.1       000000014014f450     ParseDataCO.obj
 0002:00005458       __STRLITPACK_338.0.1       000000014014f458     ParseDataCO.obj
 0002:00005460       __STRLITPACK_339.0.1       000000014014f460     ParseDataCO.obj
 0002:00005468       __STRLITPACK_340.0.1       000000014014f468     ParseDataCO.obj
 0002:00005470       __STRLITPACK_341.0.1       000000014014f470     ParseDataCO.obj
 0002:00005478       __STRLITPACK_342.0.1       000000014014f478     ParseDataCO.obj
 0002:00005480       __STRLITPACK_343.0.1       000000014014f480     ParseDataCO.obj
 0002:00005488       __STRLITPACK_344.0.1       000000014014f488     ParseDataCO.obj
 0002:00005490       __STRLITPACK_345.0.1       000000014014f490     ParseDataCO.obj
 0002:00005498       __STRLITPACK_346.0.1       000000014014f498     ParseDataCO.obj
 0002:000054a0       __STRLITPACK_347.0.1       000000014014f4a0     ParseDataCO.obj
 0002:000054a8       __STRLITPACK_348.0.1       000000014014f4a8     ParseDataCO.obj
 0002:000054b0       __STRLITPACK_349.0.1       000000014014f4b0     ParseDataCO.obj
 0002:000054b8       __STRLITPACK_350.0.1       000000014014f4b8     ParseDataCO.obj
 0002:000054c0       __STRLITPACK_351.0.1       000000014014f4c0     ParseDataCO.obj
 0002:000054c8       __STRLITPACK_352.0.1       000000014014f4c8     ParseDataCO.obj
 0002:000054d0       __STRLITPACK_353.0.1       000000014014f4d0     ParseDataCO.obj
 0002:000054d8       __STRLITPACK_354.0.1       000000014014f4d8     ParseDataCO.obj
 0002:000054e0       __STRLITPACK_355.0.1       000000014014f4e0     ParseDataCO.obj
 0002:000054e8       __STRLITPACK_356.0.1       000000014014f4e8     ParseDataCO.obj
 0002:000054f0       __STRLITPACK_357.0.1       000000014014f4f0     ParseDataCO.obj
 0002:000054f8       __STRLITPACK_358.0.1       000000014014f4f8     ParseDataCO.obj
 0002:00005500       __STRLITPACK_359.0.1       000000014014f500     ParseDataCO.obj
 0002:00005508       __STRLITPACK_360.0.1       000000014014f508     ParseDataCO.obj
 0002:00005510       __STRLITPACK_361.0.1       000000014014f510     ParseDataCO.obj
 0002:00005518       __STRLITPACK_362.0.1       000000014014f518     ParseDataCO.obj
 0002:00005520       __STRLITPACK_363.0.1       000000014014f520     ParseDataCO.obj
 0002:00005528       __STRLITPACK_364.0.1       000000014014f528     ParseDataCO.obj
 0002:00005530       __STRLITPACK_365.0.1       000000014014f530     ParseDataCO.obj
 0002:00005538       __STRLITPACK_366.0.1       000000014014f538     ParseDataCO.obj
 0002:00005540       __STRLITPACK_367.0.1       000000014014f540     ParseDataCO.obj
 0002:00005548       __STRLITPACK_368.0.1       000000014014f548     ParseDataCO.obj
 0002:00005550       __STRLITPACK_369.0.1       000000014014f550     ParseDataCO.obj
 0002:00005558       __STRLITPACK_370.0.1       000000014014f558     ParseDataCO.obj
 0002:00005560       __STRLITPACK_371.0.1       000000014014f560     ParseDataCO.obj
 0002:00005568       __STRLITPACK_372.0.1       000000014014f568     ParseDataCO.obj
 0002:00005570       __STRLITPACK_373.0.1       000000014014f570     ParseDataCO.obj
 0002:00005578       __STRLITPACK_374.0.1       000000014014f578     ParseDataCO.obj
 0002:00005580       __STRLITPACK_375.0.1       000000014014f580     ParseDataCO.obj
 0002:00005588       __STRLITPACK_376.0.1       000000014014f588     ParseDataCO.obj
 0002:00005590       __STRLITPACK_377.0.1       000000014014f590     ParseDataCO.obj
 0002:00005598       __STRLITPACK_378.0.1       000000014014f598     ParseDataCO.obj
 0002:000055a0       __STRLITPACK_379.0.1       000000014014f5a0     ParseDataCO.obj
 0002:000055a8       __STRLITPACK_380.0.1       000000014014f5a8     ParseDataCO.obj
 0002:000055b0       __STRLITPACK_381.0.1       000000014014f5b0     ParseDataCO.obj
 0002:000055b8       __STRLITPACK_382.0.1       000000014014f5b8     ParseDataCO.obj
 0002:000055c0       __STRLITPACK_383.0.1       000000014014f5c0     ParseDataCO.obj
 0002:000055c8       __STRLITPACK_384.0.1       000000014014f5c8     ParseDataCO.obj
 0002:000055d0       __STRLITPACK_385.0.1       000000014014f5d0     ParseDataCO.obj
 0002:000055d8       __STRLITPACK_386.0.1       000000014014f5d8     ParseDataCO.obj
 0002:000055e0       __STRLITPACK_387.0.1       000000014014f5e0     ParseDataCO.obj
 0002:000055e8       __STRLITPACK_388.0.1       000000014014f5e8     ParseDataCO.obj
 0002:000055f0       __STRLITPACK_389.0.1       000000014014f5f0     ParseDataCO.obj
 0002:000055f8       __STRLITPACK_390.0.1       000000014014f5f8     ParseDataCO.obj
 0002:00005600       __STRLITPACK_391.0.1       000000014014f600     ParseDataCO.obj
 0002:00005608       __STRLITPACK_392.0.1       000000014014f608     ParseDataCO.obj
 0002:00005610       __STRLITPACK_393.0.1       000000014014f610     ParseDataCO.obj
 0002:00005618       __STRLITPACK_395.0.1       000000014014f618     ParseDataCO.obj
 0002:00005620       __STRLITPACK_396.0.1       000000014014f620     ParseDataCO.obj
 0002:00005628       __STRLITPACK_397.0.1       000000014014f628     ParseDataCO.obj
 0002:00005630       __STRLITPACK_315.0.1       000000014014f630     ParseDataCO.obj
 0002:00005638       __STRLITPACK_316.0.1       000000014014f638     ParseDataCO.obj
 0002:00005640       __STRLITPACK_317.0.1       000000014014f640     ParseDataCO.obj
 0002:00005648       __STRLITPACK_318.0.1       000000014014f648     ParseDataCO.obj
 0002:00005650       __STRLITPACK_319.0.1       000000014014f650     ParseDataCO.obj
 0002:00005658       __STRLITPACK_320.0.1       000000014014f658     ParseDataCO.obj
 0002:00005660       __STRLITPACK_321.0.1       000000014014f660     ParseDataCO.obj
 0002:00005668       __STRLITPACK_322.0.1       000000014014f668     ParseDataCO.obj
 0002:00005670       __STRLITPACK_323.0.1       000000014014f670     ParseDataCO.obj
 0002:00005678       __STRLITPACK_324.0.1       000000014014f678     ParseDataCO.obj
 0002:00005680       __STRLITPACK_325.0.1       000000014014f680     ParseDataCO.obj
 0002:00005688       __STRLITPACK_326.0.1       000000014014f688     ParseDataCO.obj
 0002:00005690       __STRLITPACK_327.0.1       000000014014f690     ParseDataCO.obj
 0002:00005698       __STRLITPACK_328.0.1       000000014014f698     ParseDataCO.obj
 0002:000056a0       __STRLITPACK_329.0.1       000000014014f6a0     ParseDataCO.obj
 0002:000056a8       __STRLITPACK_330.0.1       000000014014f6a8     ParseDataCO.obj
 0002:000056b0       __STRLITPACK_331.0.1       000000014014f6b0     ParseDataCO.obj
 0002:000056c0       __STRLITPACK_25            000000014014f6c0     ParseDataCO.obj
 0002:00005700       __STRLITPACK_21            000000014014f700     ParseDataCO.obj
 0002:00005760       __STRLITPACK_220           000000014014f760     ParseDataCO.obj
 0002:000057c0       __STRLITPACK_216           000000014014f7c0     ParseDataCO.obj
 0002:00005804       _2il0floatpacket.4         000000014014f804     ParseDataCO.obj
 0002:00005808       _2il0floatpacket.5         000000014014f808     ParseDataCO.obj
 0002:0000580c       _2il0floatpacket.6         000000014014f80c     ParseDataCO.obj
 0002:00005810       _2il0floatpacket.7         000000014014f810     ParseDataCO.obj
 0002:00005814       _2il0floatpacket.8         000000014014f814     ParseDataCO.obj
 0002:00005818       _2il0floatpacket.9         000000014014f818     ParseDataCO.obj
 0002:0000581c       _2il0floatpacket.10        000000014014f81c     ParseDataCO.obj
 0002:00005820       _2il0floatpacket.11        000000014014f820     ParseDataCO.obj
 0002:00005824       __STRLITPACK_308           000000014014f824     ParseDataCO.obj
 0002:00005830       __STRLITPACK_307           000000014014f830     ParseDataCO.obj
 0002:00005834       __STRLITPACK_306           000000014014f834     ParseDataCO.obj
 0002:00005838       __STRLITPACK_305           000000014014f838     ParseDataCO.obj
 0002:00005844       __STRLITPACK_304           000000014014f844     ParseDataCO.obj
 0002:00005848       __STRLITPACK_303           000000014014f848     ParseDataCO.obj
 0002:0000584c       __STRLITPACK_302           000000014014f84c     ParseDataCO.obj
 0002:00005858       __STRLITPACK_301           000000014014f858     ParseDataCO.obj
 0002:00005860       __STRLITPACK_300           000000014014f860     ParseDataCO.obj
 0002:00005868       __STRLITPACK_299           000000014014f868     ParseDataCO.obj
 0002:00005870       __STRLITPACK_298           000000014014f870     ParseDataCO.obj
 0002:00005878       __STRLITPACK_297           000000014014f878     ParseDataCO.obj
 0002:00005880       __STRLITPACK_296           000000014014f880     ParseDataCO.obj
 0002:00005888       __STRLITPACK_295           000000014014f888     ParseDataCO.obj
 0002:00005890       __STRLITPACK_294           000000014014f890     ParseDataCO.obj
 0002:0000589c       __STRLITPACK_293           000000014014f89c     ParseDataCO.obj
 0002:000058a8       __STRLITPACK_292           000000014014f8a8     ParseDataCO.obj
 0002:000058b4       __STRLITPACK_288           000000014014f8b4     ParseDataCO.obj
 0002:000058d0       __STRLITPACK_287           000000014014f8d0     ParseDataCO.obj
 0002:000058d8       __STRLITPACK_286           000000014014f8d8     ParseDataCO.obj
 0002:000058e0       __STRLITPACK_285           000000014014f8e0     ParseDataCO.obj
 0002:000058e8       __STRLITPACK_284           000000014014f8e8     ParseDataCO.obj
 0002:000058f4       __STRLITPACK_283           000000014014f8f4     ParseDataCO.obj
 0002:00005900       __STRLITPACK_279           000000014014f900     ParseDataCO.obj
 0002:0000591c       __STRLITPACK_278           000000014014f91c     ParseDataCO.obj
 0002:00005928       __STRLITPACK_274           000000014014f928     ParseDataCO.obj
 0002:00005944       __STRLITPACK_273           000000014014f944     ParseDataCO.obj
 0002:00005950       __STRLITPACK_270           000000014014f950     ParseDataCO.obj
 0002:0000595c       __STRLITPACK_207           000000014014f95c     ParseDataCO.obj
 0002:00005964       __STRLITPACK_203           000000014014f964     ParseDataCO.obj
 0002:00005984       __STRLITPACK_202           000000014014f984     ParseDataCO.obj
 0002:00005990       __STRLITPACK_201           000000014014f990     ParseDataCO.obj
 0002:0000599c       __STRLITPACK_200           000000014014f99c     ParseDataCO.obj
 0002:000059a4       __STRLITPACK_199           000000014014f9a4     ParseDataCO.obj
 0002:000059ac       __STRLITPACK_198           000000014014f9ac     ParseDataCO.obj
 0002:000059b4       __STRLITPACK_197           000000014014f9b4     ParseDataCO.obj
 0002:000059c0       __STRLITPACK_193           000000014014f9c0     ParseDataCO.obj
 0002:000059fc       __STRLITPACK_189           000000014014f9fc     ParseDataCO.obj
 0002:00005a18       __STRLITPACK_175           000000014014fa18     ParseDataCO.obj
 0002:00005a20       __STRLITPACK_174           000000014014fa20     ParseDataCO.obj
 0002:00005a24       __STRLITPACK_170           000000014014fa24     ParseDataCO.obj
 0002:00005a44       __STRLITPACK_169           000000014014fa44     ParseDataCO.obj
 0002:00005a48       __STRLITPACK_168           000000014014fa48     ParseDataCO.obj
 0002:00005a4c       __STRLITPACK_167           000000014014fa4c     ParseDataCO.obj
 0002:00005a58       __STRLITPACK_163           000000014014fa58     ParseDataCO.obj
 0002:00005a78       __STRLITPACK_159           000000014014fa78     ParseDataCO.obj
 0002:00005a94       __STRLITPACK_158           000000014014fa94     ParseDataCO.obj
 0002:00005aa0       __STRLITPACK_154           000000014014faa0     ParseDataCO.obj
 0002:00005ac4       __STRLITPACK_150           000000014014fac4     ParseDataCO.obj
 0002:00005ae0       __STRLITPACK_149           000000014014fae0     ParseDataCO.obj
 0002:00005aec       __STRLITPACK_145           000000014014faec     ParseDataCO.obj
 0002:00005b0c       __STRLITPACK_141           000000014014fb0c     ParseDataCO.obj
 0002:00005b28       __STRLITPACK_140           000000014014fb28     ParseDataCO.obj
 0002:00005b34       __STRLITPACK_136           000000014014fb34     ParseDataCO.obj
 0002:00005b54       __STRLITPACK_132           000000014014fb54     ParseDataCO.obj
 0002:00005b70       __STRLITPACK_131           000000014014fb70     ParseDataCO.obj
 0002:00005b7c       __STRLITPACK_127           000000014014fb7c     ParseDataCO.obj
 0002:00005b9c       __STRLITPACK_123           000000014014fb9c     ParseDataCO.obj
 0002:00005bb8       __STRLITPACK_122           000000014014fbb8     ParseDataCO.obj
 0002:00005bc0       __STRLITPACK_118           000000014014fbc0     ParseDataCO.obj
 0002:00005be0       __STRLITPACK_114           000000014014fbe0     ParseDataCO.obj
 0002:00005bfc       __STRLITPACK_113           000000014014fbfc     ParseDataCO.obj
 0002:00005c08       __STRLITPACK_109           000000014014fc08     ParseDataCO.obj
 0002:00005c28       __STRLITPACK_105           000000014014fc28     ParseDataCO.obj
 0002:00005c44       __STRLITPACK_101           000000014014fc44     ParseDataCO.obj
 0002:00005c74       __STRLITPACK_97            000000014014fc74     ParseDataCO.obj
 0002:00005c9c       __STRLITPACK_93            000000014014fc9c     ParseDataCO.obj
 0002:00005cc0       __STRLITPACK_89            000000014014fcc0     ParseDataCO.obj
 0002:00005ce8       __STRLITPACK_85            000000014014fce8     ParseDataCO.obj
 0002:00005d0c       __STRLITPACK_81            000000014014fd0c     ParseDataCO.obj
 0002:00005d30       __STRLITPACK_77            000000014014fd30     ParseDataCO.obj
 0002:00005d54       __STRLITPACK_73            000000014014fd54     ParseDataCO.obj
 0002:00005d7c       __STRLITPACK_69            000000014014fd7c     ParseDataCO.obj
 0002:00005da0       __STRLITPACK_65            000000014014fda0     ParseDataCO.obj
 0002:00005dc8       __STRLITPACK_61            000000014014fdc8     ParseDataCO.obj
 0002:00005df0       __STRLITPACK_57            000000014014fdf0     ParseDataCO.obj
 0002:00005e18       __STRLITPACK_53            000000014014fe18     ParseDataCO.obj
 0002:00005e40       __STRLITPACK_52            000000014014fe40     ParseDataCO.obj
 0002:00005e48       __STRLITPACK_51            000000014014fe48     ParseDataCO.obj
 0002:00005e50       __STRLITPACK_50            000000014014fe50     ParseDataCO.obj
 0002:00005e54       __STRLITPACK_49            000000014014fe54     ParseDataCO.obj
 0002:00005e60       __STRLITPACK_45            000000014014fe60     ParseDataCO.obj
 0002:00005e7c       __STRLITPACK_42            000000014014fe7c     ParseDataCO.obj
 0002:00005e88       __STRLITPACK_38            000000014014fe88     ParseDataCO.obj
 0002:00005ea4       __STRLITPACK_34            000000014014fea4     ParseDataCO.obj
 0002:00005eb0       __STRLITPACK_33            000000014014feb0     ParseDataCO.obj
 0002:00005ebc       __STRLITPACK_32            000000014014febc     ParseDataCO.obj
 0002:00005ec8       __STRLITPACK_31            000000014014fec8     ParseDataCO.obj
 0002:00005ed4       __STRLITPACK_17            000000014014fed4     ParseDataCO.obj
 0002:00005f0c       __STRLITPACK_14            000000014014ff0c     ParseDataCO.obj
 0002:00005f18       __STRLITPACK_12            000000014014ff18     ParseDataCO.obj
 0002:00005f24       __STRLITPACK_8             000000014014ff24     ParseDataCO.obj
 0002:00005f48       __STRLITPACK_4             000000014014ff48     ParseDataCO.obj
 0002:00005f64       __STRLITPACK_0             000000014014ff64     ParseDataCO.obj
 0002:00005f88       __STRLITPACK_269           000000014014ff88     ParseDataCO.obj
 0002:00005f8c       __STRLITPACK_265           000000014014ff8c     ParseDataCO.obj
 0002:00005fb0       __STRLITPACK_264           000000014014ffb0     ParseDataCO.obj
 0002:00005fb8       __STRLITPACK_263           000000014014ffb8     ParseDataCO.obj
 0002:00005fc0       __STRLITPACK_259           000000014014ffc0     ParseDataCO.obj
 0002:00005ff0       __STRLITPACK_255           000000014014fff0     ParseDataCO.obj
 0002:00006018       __STRLITPACK_251           0000000140150018     ParseDataCO.obj
 0002:00006048       __STRLITPACK_247           0000000140150048     ParseDataCO.obj
 0002:00006078       __STRLITPACK_243           0000000140150078     ParseDataCO.obj
 0002:0000609c       __STRLITPACK_237           000000014015009c     ParseDataCO.obj
 0002:000060cc       __STRLITPACK_236           00000001401500cc     ParseDataCO.obj
 0002:000060d8       __STRLITPACK_235           00000001401500d8     ParseDataCO.obj
 0002:000060e0       __STRLITPACK_231           00000001401500e0     ParseDataCO.obj
 0002:0000610c       __STRLITPACK_230           000000014015010c     ParseDataCO.obj
 0002:00006110       __STRLITPACK_229           0000000140150110     ParseDataCO.obj
 0002:00006114       __STRLITPACK_225           0000000140150114     ParseDataCO.obj
 0002:0000614c       __STRLITPACK_215           000000014015014c     ParseDataCO.obj
 0002:00006154       __STRLITPACK_214           0000000140150154     ParseDataCO.obj
 0002:0000615c       __STRLITPACK_213           000000014015015c     ParseDataCO.obj
 0002:00006160       __STRLITPACK_212           0000000140150160     ParseDataCO.obj
 0002:00006164       __STRLITPACK_208           0000000140150164     ParseDataCO.obj
 0002:00006184       __STRLITPACK_272           0000000140150184     ParseDataCO.obj
 0002:00006188       __STRLITPACK_271           0000000140150188     ParseDataCO.obj
 0002:000061a0       __STRLITPACK_4.0.1         00000001401501a0     GenSCIPUFFAreaSource.obj
 0002:000061a8       __STRLITPACK_10.0.3        00000001401501a8     GenSCIPUFFAreaSource.obj
 0002:000061b0       __STRLITPACK_11.0.3        00000001401501b0     GenSCIPUFFAreaSource.obj
 0002:000061b8       __STRLITPACK_12.0.3        00000001401501b8     GenSCIPUFFAreaSource.obj
 0002:000061c0       .T543_.0.4                 00000001401501c0     GenSCIPUFFAreaSource.obj
 0002:00006208       __STRLITPACK_21.0.4        0000000140150208     GenSCIPUFFAreaSource.obj
 0002:00006210       __STRLITPACK_22.0.4        0000000140150210     GenSCIPUFFAreaSource.obj
 0002:00006218       _2il0floatpacket.4         0000000140150218     GenSCIPUFFAreaSource.obj
 0002:0000621c       _2il0floatpacket.5         000000014015021c     GenSCIPUFFAreaSource.obj
 0002:00006220       __STRLITPACK_0             0000000140150220     GenSCIPUFFAreaSource.obj
 0002:0000624c       _2il0floatpacket.6         000000014015024c     GenSCIPUFFAreaSource.obj
 0002:00006250       __STRLITPACK_8             0000000140150250     GenSCIPUFFAreaSource.obj
 0002:0000627c       __STRLITPACK_6             000000014015027c     GenSCIPUFFAreaSource.obj
 0002:00006290       __STRLITPACK_17            0000000140150290     GenSCIPUFFAreaSource.obj
 0002:000062bc       __STRLITPACK_13            00000001401502bc     GenSCIPUFFAreaSource.obj
 0002:00006300       __NLITPACK_0.0.1           0000000140150300     ReadArrayLimits.obj
 0002:00006304       __STRLITPACK_2             0000000140150304     ReadArrayLimits.obj
 0002:00006308       __STRLITPACK_0             0000000140150308     ReadArrayLimits.obj
 0002:0000630c       __NLITPACK_1.0.2           000000014015030c     ReadArrayLimits.obj
 0002:00006310       __STRLITPACK_10            0000000140150310     ReadArrayLimits.obj
 0002:00006314       __STRLITPACK_4             0000000140150314     ReadArrayLimits.obj
 0002:00006318       __STRLITPACK_27            0000000140150318     ReadArrayLimits.obj
 0002:00006324       __STRLITPACK_28.0.3        0000000140150324     ReadArrayLimits.obj
 0002:0000632c       __STRLITPACK_29.0.3        000000014015032c     ReadArrayLimits.obj
 0002:00006334       __STRLITPACK_23            0000000140150334     ReadArrayLimits.obj
 0002:00006350       __STRLITPACK_22            0000000140150350     ReadArrayLimits.obj
 0002:0000635c       __STRLITPACK_30.0.3        000000014015035c     ReadArrayLimits.obj
 0002:00006364       __STRLITPACK_31.0.3        0000000140150364     ReadArrayLimits.obj
 0002:0000636c       __STRLITPACK_18            000000014015036c     ReadArrayLimits.obj
 0002:00006388       __STRLITPACK_17            0000000140150388     ReadArrayLimits.obj
 0002:00006394       __STRLITPACK_32.0.3        0000000140150394     ReadArrayLimits.obj
 0002:0000639c       __STRLITPACK_33.0.3        000000014015039c     ReadArrayLimits.obj
 0002:000063a4       __STRLITPACK_13            00000001401503a4     ReadArrayLimits.obj
 0002:000063c0       __STRLITPACK_3             00000001401503c0     ReadArrayLimits.obj
 0002:000063cc       __STRLITPACK_11.0.2        00000001401503cc     ReadArrayLimits.obj
 0002:000063d4       __STRLITPACK_6             00000001401503d4     ReadArrayLimits.obj
 0002:000063f0       __STRLITPACK_5.0.1         00000001401503f0     ParseDataEV.obj
 0002:000063f8       PARSEDATAEV$format_pack.0.1 00000001401503f8     ParseDataEV.obj
 0002:00006404       __STRLITPACK_4             0000000140150404     ParseDataEV.obj
 0002:00006410       __STRLITPACK_0             0000000140150410     ParseDataEV.obj
 0002:00006434       _2il0floatpacket.0         0000000140150434     InitAERMOD.obj
 0002:00006438       _2il0floatpacket.1         0000000140150438     InitAERMOD.obj
 0002:0000643c       _2il0floatpacket.2         000000014015043c     InitAERMOD.obj
 0002:00006440       __STRLITPACK_13            0000000140150440     InitAERMOD.obj
 0002:00006448       __STRLITPACK_12            0000000140150448     InitAERMOD.obj
 0002:00006450       __STRLITPACK_11            0000000140150450     InitAERMOD.obj
 0002:00006454       __STRLITPACK_10            0000000140150454     InitAERMOD.obj
 0002:00006458       __STRLITPACK_9             0000000140150458     InitAERMOD.obj
 0002:0000645c       __STRLITPACK_8             000000014015045c     InitAERMOD.obj
 0002:00006460       __STRLITPACK_7             0000000140150460     InitAERMOD.obj
 0002:00006464       __STRLITPACK_6             0000000140150464     InitAERMOD.obj
 0002:00006468       __STRLITPACK_5             0000000140150468     InitAERMOD.obj
 0002:0000646c       __STRLITPACK_4             000000014015046c     InitAERMOD.obj
 0002:00006470       __STRLITPACK_3             0000000140150470     InitAERMOD.obj
 0002:00006474       __STRLITPACK_2             0000000140150474     InitAERMOD.obj
 0002:00006478       __STRLITPACK_1             0000000140150478     InitAERMOD.obj
 0002:0000647c       __STRLITPACK_0             000000014015047c     InitAERMOD.obj
 0002:00006480       __STRLITPACK_49.0.1        0000000140150480     GetZrufFromWeather.obj
 0002:00006488       __STRLITPACK_28.0.1        0000000140150488     GetZrufFromWeather.obj
 0002:0000649c       __STRLITPACK_30.0.1        000000014015049c     GetZrufFromWeather.obj
 0002:000064a0       __STRLITPACK_31.0.1        00000001401504a0     GetZrufFromWeather.obj
 0002:000064a8       __STRLITPACK_32.0.1        00000001401504a8     GetZrufFromWeather.obj
 0002:000064b0       __STRLITPACK_33.0.1        00000001401504b0     GetZrufFromWeather.obj
 0002:000064b8       __STRLITPACK_34.0.1        00000001401504b8     GetZrufFromWeather.obj
 0002:000064c0       __STRLITPACK_35.0.1        00000001401504c0     GetZrufFromWeather.obj
 0002:000064c8       __STRLITPACK_36.0.1        00000001401504c8     GetZrufFromWeather.obj
 0002:000064d0       __STRLITPACK_37.0.1        00000001401504d0     GetZrufFromWeather.obj
 0002:000064d8       __STRLITPACK_38.0.1        00000001401504d8     GetZrufFromWeather.obj
 0002:000064e0       __STRLITPACK_39.0.1        00000001401504e0     GetZrufFromWeather.obj
 0002:000064e8       __STRLITPACK_40.0.1        00000001401504e8     GetZrufFromWeather.obj
 0002:000064f0       __STRLITPACK_41.0.1        00000001401504f0     GetZrufFromWeather.obj
 0002:000064f8       __STRLITPACK_42.0.1        00000001401504f8     GetZrufFromWeather.obj
 0002:00006500       __STRLITPACK_43.0.1        0000000140150500     GetZrufFromWeather.obj
 0002:00006508       __STRLITPACK_45.0.1        0000000140150508     GetZrufFromWeather.obj
 0002:00006510       __STRLITPACK_46.0.1        0000000140150510     GetZrufFromWeather.obj
 0002:00006518       __STRLITPACK_47.0.1        0000000140150518     GetZrufFromWeather.obj
 0002:0000652c       __NLITPACK_0.0.1           000000014015052c     GetZrufFromWeather.obj
 0002:00006530       __STRLITPACK_48.0.1        0000000140150530     GetZrufFromWeather.obj
 0002:00006538       __STRLITPACK_44.0.1        0000000140150538     GetZrufFromWeather.obj
 0002:00006540       __STRLITPACK_29.0.1        0000000140150540     GetZrufFromWeather.obj
 0002:00006548       _2il0floatpacket.0         0000000140150548     GetZrufFromWeather.obj
 0002:0000654c       _2il0floatpacket.1         000000014015054c     GetZrufFromWeather.obj
 0002:00006550       __STRLITPACK_27            0000000140150550     GetZrufFromWeather.obj
 0002:00006558       __STRLITPACK_0             0000000140150558     GetZrufFromWeather.obj
 0002:00006560       __STRLITPACK_25            0000000140150560     GetZrufFromWeather.obj
 0002:00006568       __STRLITPACK_26            0000000140150568     GetZrufFromWeather.obj
 0002:0000656c       __STRLITPACK_13            000000014015056c     GetZrufFromWeather.obj
 0002:00006594       __STRLITPACK_9             0000000140150594     GetZrufFromWeather.obj
 0002:000065c0       __STRLITPACK_7             00000001401505c0     GetZrufFromWeather.obj
 0002:000065c8       __STRLITPACK_8             00000001401505c8     GetZrufFromWeather.obj
 0002:000065cc       __STRLITPACK_3             00000001401505cc     GetZrufFromWeather.obj
 0002:000065e4       __STRLITPACK_17            00000001401505e4     GetZrufFromWeather.obj
 0002:000065fc       __STRLITPACK_21            00000001401505fc     GetZrufFromWeather.obj
 0002:00006614       __NLITPACK_0.0.1           0000000140150614     FileInput.obj
 0002:00006618       __STRLITPACK_409.0.1       0000000140150618     FileInput.obj
 0002:00006628       __NLITPACK_1.0.1           0000000140150628     FileInput.obj
 0002:0000662c       __STRLITPACK_410.0.1       000000014015062c     FileInput.obj
 0002:0000663c       __STRLITPACK_411.0.1       000000014015063c     FileInput.obj
 0002:00006644       __STRLITPACK_412.0.1       0000000140150644     FileInput.obj
 0002:0000664c       __STRLITPACK_413.0.1       000000014015064c     FileInput.obj
 0002:00006654       __STRLITPACK_414.0.1       0000000140150654     FileInput.obj
 0002:00006668       __STRLITPACK_415.0.1       0000000140150668     FileInput.obj
 0002:00006670       __STRLITPACK_416.0.1       0000000140150670     FileInput.obj
 0002:00006678       __STRLITPACK_417.0.1       0000000140150678     FileInput.obj
 0002:0000667c       __STRLITPACK_418.0.1       000000014015067c     FileInput.obj
 0002:00006684       __STRLITPACK_408           0000000140150684     FileInput.obj
 0002:00006690       __STRLITPACK_407           0000000140150690     FileInput.obj
 0002:0000669c       __STRLITPACK_406           000000014015069c     FileInput.obj
 0002:000066a4       __STRLITPACK_405           00000001401506a4     FileInput.obj
 0002:000066ac       __STRLITPACK_401           00000001401506ac     FileInput.obj
 0002:000066cc       __STRLITPACK_397           00000001401506cc     FileInput.obj
 0002:000066e8       __STRLITPACK_393           00000001401506e8     FileInput.obj
 0002:000066f8       __STRLITPACK_391           00000001401506f8     FileInput.obj
 0002:00006700       __STRLITPACK_392           0000000140150700     FileInput.obj
 0002:00006704       __STRLITPACK_387           0000000140150704     FileInput.obj
 0002:00006724       __STRLITPACK_383           0000000140150724     FileInput.obj
 0002:00006734       __STRLITPACK_381           0000000140150734     FileInput.obj
 0002:00006748       __STRLITPACK_419           0000000140150748     FileInput.obj
 0002:0000674c       __STRLITPACK_420           000000014015074c     FileInput.obj
 0002:00006750       __NLITPACK_0.0.1           0000000140150750     ReadAERMODInput.obj
 0002:00006754       __STRLITPACK_23.0.1        0000000140150754     ReadAERMODInput.obj
 0002:0000675c       __STRLITPACK_24.0.1        000000014015075c     ReadAERMODInput.obj
 0002:00006764       __STRLITPACK_21.0.1        0000000140150764     ReadAERMODInput.obj
 0002:0000676c       __STRLITPACK_22.0.1        000000014015076c     ReadAERMODInput.obj
 0002:00006774       __STRLITPACK_19.0.1        0000000140150774     ReadAERMODInput.obj
 0002:0000677c       __STRLITPACK_20.0.1        000000014015077c     ReadAERMODInput.obj
 0002:00006784       __STRLITPACK_18            0000000140150784     ReadAERMODInput.obj
 0002:00006788       __STRLITPACK_8             0000000140150788     ReadAERMODInput.obj
 0002:00006794       __NLITPACK_1.0.2           0000000140150794     ReadAERMODInput.obj
 0002:00006798       __STRLITPACK_39            0000000140150798     ReadAERMODInput.obj
 0002:0000679c       __STRLITPACK_33            000000014015079c     ReadAERMODInput.obj
 0002:000067a0       __STRLITPACK_32            00000001401507a0     ReadAERMODInput.obj
 0002:000067a4       __STRLITPACK_31            00000001401507a4     ReadAERMODInput.obj
 0002:000067a8       __STRLITPACK_30            00000001401507a8     ReadAERMODInput.obj
 0002:000067ac       __STRLITPACK_29            00000001401507ac     ReadAERMODInput.obj
 0002:000067b0       __STRLITPACK_28            00000001401507b0     ReadAERMODInput.obj
 0002:000067b4       __STRLITPACK_27            00000001401507b4     ReadAERMODInput.obj
 0002:000067b8       __STRLITPACK_26            00000001401507b8     ReadAERMODInput.obj
 0002:000067bc       __STRLITPACK_25            00000001401507bc     ReadAERMODInput.obj
 0002:000067c8       __STRLITPACK_35            00000001401507c8     ReadAERMODInput.obj
 0002:000067d8       __STRLITPACK_40.0.2        00000001401507d8     ReadAERMODInput.obj
 0002:000067e0       __STRLITPACK_4             00000001401507e0     ReadAERMODInput.obj
 0002:000067fc       __STRLITPACK_0             00000001401507fc     ReadAERMODInput.obj
 0002:00006828       __STRLITPACK_13            0000000140150828     ReadAERMODInput.obj
 0002:00006844       __STRLITPACK_9             0000000140150844     ReadAERMODInput.obj
 0002:00006870       __STRLITPACK_111.0.1       0000000140150870     GenSCIPUFFWeather.obj
 0002:00006878       __STRLITPACK_112.0.1       0000000140150878     GenSCIPUFFWeather.obj
 0002:0000688c       __STRLITPACK_113.0.1       000000014015088c     GenSCIPUFFWeather.obj
 0002:00006894       __STRLITPACK_114.0.1       0000000140150894     GenSCIPUFFWeather.obj
 0002:0000689c       __STRLITPACK_118.0.1       000000014015089c     GenSCIPUFFWeather.obj
 0002:000068a4       __STRLITPACK_126.0.1       00000001401508a4     GenSCIPUFFWeather.obj
 0002:000068ac       __STRLITPACK_125.0.1       00000001401508ac     GenSCIPUFFWeather.obj
 0002:000068b4       __STRLITPACK_123.0.1       00000001401508b4     GenSCIPUFFWeather.obj
 0002:000068bc       __STRLITPACK_127.0.1       00000001401508bc     GenSCIPUFFWeather.obj
 0002:000068c4       __STRLITPACK_124.0.1       00000001401508c4     GenSCIPUFFWeather.obj
 0002:000068cc       __STRLITPACK_122.0.1       00000001401508cc     GenSCIPUFFWeather.obj
 0002:000068d4       __STRLITPACK_121.0.1       00000001401508d4     GenSCIPUFFWeather.obj
 0002:000068dc       __STRLITPACK_120.0.1       00000001401508dc     GenSCIPUFFWeather.obj
 0002:000068e4       __STRLITPACK_119.0.1       00000001401508e4     GenSCIPUFFWeather.obj
 0002:000068ec       __STRLITPACK_128.0.1       00000001401508ec     GenSCIPUFFWeather.obj
 0002:000068f4       __STRLITPACK_129.0.1       00000001401508f4     GenSCIPUFFWeather.obj
 0002:000068fc       __STRLITPACK_130.0.1       00000001401508fc     GenSCIPUFFWeather.obj
 0002:00006904       __STRLITPACK_131.0.1       0000000140150904     GenSCIPUFFWeather.obj
 0002:0000690c       __STRLITPACK_132.0.1       000000014015090c     GenSCIPUFFWeather.obj
 0002:00006914       __STRLITPACK_133.0.1       0000000140150914     GenSCIPUFFWeather.obj
 0002:0000691c       __STRLITPACK_134.0.1       000000014015091c     GenSCIPUFFWeather.obj
 0002:00006924       __STRLITPACK_135.0.1       0000000140150924     GenSCIPUFFWeather.obj
 0002:0000692c       __STRLITPACK_138.0.1       000000014015092c     GenSCIPUFFWeather.obj
 0002:00006934       __STRLITPACK_139.0.1       0000000140150934     GenSCIPUFFWeather.obj
 0002:0000693c       __STRLITPACK_136.0.1       000000014015093c     GenSCIPUFFWeather.obj
 0002:00006944       __STRLITPACK_137.0.1       0000000140150944     GenSCIPUFFWeather.obj
 0002:0000694c       __STRLITPACK_115.0.1       000000014015094c     GenSCIPUFFWeather.obj
 0002:0000695c       __STRLITPACK_116.0.1       000000014015095c     GenSCIPUFFWeather.obj
 0002:00006964       __STRLITPACK_117.0.1       0000000140150964     GenSCIPUFFWeather.obj
 0002:00006980       _2__cnst_pck.0             0000000140150980     GenSCIPUFFWeather.obj
 0002:000069dc       _2il0floatpacket.1         00000001401509dc     GenSCIPUFFWeather.obj
 0002:000069e0       _2il0floatpacket.2         00000001401509e0     GenSCIPUFFWeather.obj
 0002:000069e4       _2il0floatpacket.3         00000001401509e4     GenSCIPUFFWeather.obj
 0002:000069e8       _2il0floatpacket.4         00000001401509e8     GenSCIPUFFWeather.obj
 0002:000069ec       __STRLITPACK_107           00000001401509ec     GenSCIPUFFWeather.obj
 0002:00006a08       __STRLITPACK_106           0000000140150a08     GenSCIPUFFWeather.obj
 0002:00006a10       __STRLITPACK_104           0000000140150a10     GenSCIPUFFWeather.obj
 0002:00006a18       __STRLITPACK_105           0000000140150a18     GenSCIPUFFWeather.obj
 0002:00006a20       __STRLITPACK_100           0000000140150a20     GenSCIPUFFWeather.obj
 0002:00006a48       __STRLITPACK_96            0000000140150a48     GenSCIPUFFWeather.obj
 0002:00006a58       __STRLITPACK_88            0000000140150a58     GenSCIPUFFWeather.obj
 0002:00006a68       __STRLITPACK_0             0000000140150a68     GenSCIPUFFWeather.obj
 0002:00006a6c       __STRLITPACK_41            0000000140150a6c     GenSCIPUFFWeather.obj
 0002:00006a70       __STRLITPACK_40            0000000140150a70     GenSCIPUFFWeather.obj
 0002:00006a7c       __STRLITPACK_47            0000000140150a7c     GenSCIPUFFWeather.obj
 0002:00006a80       __STRLITPACK_46            0000000140150a80     GenSCIPUFFWeather.obj
 0002:00006a8c       __STRLITPACK_59            0000000140150a8c     GenSCIPUFFWeather.obj
 0002:00006a90       __STRLITPACK_58            0000000140150a90     GenSCIPUFFWeather.obj
 0002:00006a98       __STRLITPACK_35            0000000140150a98     GenSCIPUFFWeather.obj
 0002:00006a9c       __STRLITPACK_34            0000000140150a9c     GenSCIPUFFWeather.obj
 0002:00006aa4       __STRLITPACK_53            0000000140150aa4     GenSCIPUFFWeather.obj
 0002:00006aa8       __STRLITPACK_52            0000000140150aa8     GenSCIPUFFWeather.obj
 0002:00006ab0       __STRLITPACK_65            0000000140150ab0     GenSCIPUFFWeather.obj
 0002:00006ab4       __STRLITPACK_64            0000000140150ab4     GenSCIPUFFWeather.obj
 0002:00006abc       __STRLITPACK_71            0000000140150abc     GenSCIPUFFWeather.obj
 0002:00006ac0       __STRLITPACK_70            0000000140150ac0     GenSCIPUFFWeather.obj
 0002:00006ac8       __STRLITPACK_77            0000000140150ac8     GenSCIPUFFWeather.obj
 0002:00006acc       __STRLITPACK_76            0000000140150acc     GenSCIPUFFWeather.obj
 0002:00006ad4       __STRLITPACK_83            0000000140150ad4     GenSCIPUFFWeather.obj
 0002:00006ad8       __STRLITPACK_82            0000000140150ad8     GenSCIPUFFWeather.obj
 0002:00006ae0       __STRLITPACK_30            0000000140150ae0     GenSCIPUFFWeather.obj
 0002:00006ae4       __STRLITPACK_26            0000000140150ae4     GenSCIPUFFWeather.obj
 0002:00006ae8       __STRLITPACK_22            0000000140150ae8     GenSCIPUFFWeather.obj
 0002:00006af0       __STRLITPACK_19            0000000140150af0     GenSCIPUFFWeather.obj
 0002:00006af4       __STRLITPACK_20            0000000140150af4     GenSCIPUFFWeather.obj
 0002:00006af8       __STRLITPACK_15            0000000140150af8     GenSCIPUFFWeather.obj
 0002:00006afc       __STRLITPACK_10            0000000140150afc     GenSCIPUFFWeather.obj
 0002:00006b00       __STRLITPACK_9             0000000140150b00     GenSCIPUFFWeather.obj
 0002:00006b0c       __STRLITPACK_1             0000000140150b0c     GenSCIPUFFWeather.obj
 0002:00006b10       __STRLITPACK_5             0000000140150b10     GenSCIPUFFWeather.obj
 0002:00006b14       __STRLITPACK_92            0000000140150b14     GenSCIPUFFWeather.obj
 0002:00006b40       __STRLITPACK_7.0.1         0000000140150b40     UpdateContRel.obj
 0002:00006b54       __STRLITPACK_17.0.2        0000000140150b54     UpdateContRel.obj
 0002:00006b5c       __NLITPACK_0.0.2           0000000140150b5c     UpdateContRel.obj
 0002:00006b60       __NLITPACK_1.0.2           0000000140150b60     UpdateContRel.obj
 0002:00006b64       __STRLITPACK_19.0.2        0000000140150b64     UpdateContRel.obj
 0002:00006b6c       __STRLITPACK_20.0.2        0000000140150b6c     UpdateContRel.obj
 0002:00006b74       __STRLITPACK_21.0.2        0000000140150b74     UpdateContRel.obj
 0002:00006b7c       __STRLITPACK_22.0.2        0000000140150b7c     UpdateContRel.obj
 0002:00006b84       __STRLITPACK_23.0.2        0000000140150b84     UpdateContRel.obj
 0002:00006b8c       __STRLITPACK_24.0.2        0000000140150b8c     UpdateContRel.obj
 0002:00006b94       __STRLITPACK_25.0.2        0000000140150b94     UpdateContRel.obj
 0002:00006b9c       __STRLITPACK_18.0.2        0000000140150b9c     UpdateContRel.obj
 0002:00006ba4       __STRLITPACK_27.0.5        0000000140150ba4     UpdateContRel.obj
 0002:00006bac       _2il0floatpacket.0         0000000140150bac     UpdateContRel.obj
 0002:00006bb0       _2il0floatpacket.1         0000000140150bb0     UpdateContRel.obj
 0002:00006bb4       __STRLITPACK_3             0000000140150bb4     UpdateContRel.obj
 0002:00006bbc       __STRLITPACK_4             0000000140150bbc     UpdateContRel.obj
 0002:00006bc0       __STRLITPACK_2             0000000140150bc0     UpdateContRel.obj
 0002:00006bd0       __STRLITPACK_0             0000000140150bd0     UpdateContRel.obj
 0002:00006bec       __STRLITPACK_5             0000000140150bec     UpdateContRel.obj
 0002:00006c00       __STRLITPACK_1             0000000140150c00     UpdateContRel.obj
 0002:00006c14       __STRLITPACK_26.0.4        0000000140150c14     UpdateContRel.obj
 0002:00006c20       __STRLITPACK_16            0000000140150c20     UpdateContRel.obj
 0002:00006c30       __STRLITPACK_37.0.1        0000000140150c30     InitSCIPUFFProject.obj
 0002:00006c38       __STRLITPACK_38.0.1        0000000140150c38     InitSCIPUFFProject.obj
 0002:00006c40       __STRLITPACK_39.0.1        0000000140150c40     InitSCIPUFFProject.obj
 0002:00006c48       __STRLITPACK_40.0.1        0000000140150c48     InitSCIPUFFProject.obj
 0002:00006c50       __STRLITPACK_41.0.1        0000000140150c50     InitSCIPUFFProject.obj
 0002:00006c58       __STRLITPACK_43.0.1        0000000140150c58     InitSCIPUFFProject.obj
 0002:00006c60       __STRLITPACK_44.0.1        0000000140150c60     InitSCIPUFFProject.obj
 0002:00006c70       _2il0floatpacket.2         0000000140150c70     InitSCIPUFFProject.obj
 0002:00006c80       _2il0floatpacket.3         0000000140150c80     InitSCIPUFFProject.obj
 0002:00006c90       _2__cnst_pck.4             0000000140150c90     InitSCIPUFFProject.obj
 0002:00006cf0       _2__cnst_pck.5             0000000140150cf0     InitSCIPUFFProject.obj
 0002:00006d48       _2il0floatpacket.1         0000000140150d48     InitSCIPUFFProject.obj
 0002:00006d50       _2il0floatpacket.0         0000000140150d50     InitSCIPUFFProject.obj
 0002:00006d54       __STRLITPACK_45            0000000140150d54     InitSCIPUFFProject.obj
 0002:00006d58       _2il0floatpacket.16        0000000140150d58     InitSCIPUFFProject.obj
 0002:00006d5c       _2il0floatpacket.17        0000000140150d5c     InitSCIPUFFProject.obj
 0002:00006d60       _2il0floatpacket.18        0000000140150d60     InitSCIPUFFProject.obj
 0002:00006d64       _2il0floatpacket.19        0000000140150d64     InitSCIPUFFProject.obj
 0002:00006d68       __STRLITPACK_33            0000000140150d68     InitSCIPUFFProject.obj
 0002:00006d88       __STRLITPACK_30            0000000140150d88     InitSCIPUFFProject.obj
 0002:00006d8c       __STRLITPACK_29            0000000140150d8c     InitSCIPUFFProject.obj
 0002:00006d90       __STRLITPACK_25            0000000140150d90     InitSCIPUFFProject.obj
 0002:00006db8       __STRLITPACK_21            0000000140150db8     InitSCIPUFFProject.obj
 0002:00006de0       __STRLITPACK_17            0000000140150de0     InitSCIPUFFProject.obj
 0002:00006e08       __STRLITPACK_16            0000000140150e08     InitSCIPUFFProject.obj
 0002:00006e10       __STRLITPACK_12            0000000140150e10     InitSCIPUFFProject.obj
 0002:00006e30       __STRLITPACK_6             0000000140150e30     InitSCIPUFFProject.obj
 0002:00006e54       __STRLITPACK_0             0000000140150e54     InitSCIPUFFProject.obj
 0002:00006e80       __STRLITPACK_60.0.1        0000000140150e80     GetTimeFromWeather.obj
 0002:00006e88       __STRLITPACK_61.0.1        0000000140150e88     GetTimeFromWeather.obj
 0002:00006e9c       __STRLITPACK_63.0.1        0000000140150e9c     GetTimeFromWeather.obj
 0002:00006ea4       __STRLITPACK_65.0.1        0000000140150ea4     GetTimeFromWeather.obj
 0002:00006eac       __STRLITPACK_66.0.1        0000000140150eac     GetTimeFromWeather.obj
 0002:00006eb4       __STRLITPACK_67.0.1        0000000140150eb4     GetTimeFromWeather.obj
 0002:00006ebc       __STRLITPACK_68.0.1        0000000140150ebc     GetTimeFromWeather.obj
 0002:00006ec4       __STRLITPACK_69.0.1        0000000140150ec4     GetTimeFromWeather.obj
 0002:00006ecc       __STRLITPACK_70.0.1        0000000140150ecc     GetTimeFromWeather.obj
 0002:00006ed4       __STRLITPACK_72.0.1        0000000140150ed4     GetTimeFromWeather.obj
 0002:00006edc       __STRLITPACK_73.0.1        0000000140150edc     GetTimeFromWeather.obj
 0002:00006ee4       __STRLITPACK_74.0.1        0000000140150ee4     GetTimeFromWeather.obj
 0002:00006eec       __STRLITPACK_75.0.1        0000000140150eec     GetTimeFromWeather.obj
 0002:00006ef4       __STRLITPACK_76.0.1        0000000140150ef4     GetTimeFromWeather.obj
 0002:00006efc       __STRLITPACK_91.0.1        0000000140150efc     GetTimeFromWeather.obj
 0002:00006f04       __STRLITPACK_92.0.1        0000000140150f04     GetTimeFromWeather.obj
 0002:00006f0c       __STRLITPACK_78.0.1        0000000140150f0c     GetTimeFromWeather.obj
 0002:00006f20       __STRLITPACK_80.0.1        0000000140150f20     GetTimeFromWeather.obj
 0002:00006f28       __STRLITPACK_82.0.1        0000000140150f28     GetTimeFromWeather.obj
 0002:00006f30       __STRLITPACK_83.0.1        0000000140150f30     GetTimeFromWeather.obj
 0002:00006f48       __STRLITPACK_85.0.1        0000000140150f48     GetTimeFromWeather.obj
 0002:00006f50       __STRLITPACK_86.0.1        0000000140150f50     GetTimeFromWeather.obj
 0002:00006f58       __STRLITPACK_87.0.1        0000000140150f58     GetTimeFromWeather.obj
 0002:00006f60       __STRLITPACK_89.0.1        0000000140150f60     GetTimeFromWeather.obj
 0002:00006f68       __STRLITPACK_90.0.1        0000000140150f68     GetTimeFromWeather.obj
 0002:00006f70       __STRLITPACK_88.0.1        0000000140150f70     GetTimeFromWeather.obj
 0002:00006f78       __STRLITPACK_84.0.1        0000000140150f78     GetTimeFromWeather.obj
 0002:00006f80       __STRLITPACK_81.0.1        0000000140150f80     GetTimeFromWeather.obj
 0002:00006f88       __STRLITPACK_79.0.1        0000000140150f88     GetTimeFromWeather.obj
 0002:00006f90       __STRLITPACK_77.0.1        0000000140150f90     GetTimeFromWeather.obj
 0002:00006f98       __STRLITPACK_71.0.1        0000000140150f98     GetTimeFromWeather.obj
 0002:00006fa0       __STRLITPACK_64.0.1        0000000140150fa0     GetTimeFromWeather.obj
 0002:00006fa8       __STRLITPACK_62.0.1        0000000140150fa8     GetTimeFromWeather.obj
 0002:00006fb0       __STRLITPACK_127.0.6       0000000140150fb0     GetTimeFromWeather.obj
 0002:00006fb4       __STRLITPACK_128.0.6       0000000140150fb4     GetTimeFromWeather.obj
 0002:00006fb8       __STRLITPACK_129.0.6       0000000140150fb8     GetTimeFromWeather.obj
 0002:00006fc0       __STRLITPACK_130.0.6       0000000140150fc0     GetTimeFromWeather.obj
 0002:00006fc8       __STRLITPACK_131.0.6       0000000140150fc8     GetTimeFromWeather.obj
 0002:00006fd0       __STRLITPACK_132.0.6       0000000140150fd0     GetTimeFromWeather.obj
 0002:00006fd8       __STRLITPACK_133.0.6       0000000140150fd8     GetTimeFromWeather.obj
 0002:00006fe0       __STRLITPACK_134.0.6       0000000140150fe0     GetTimeFromWeather.obj
 0002:00006fe8       __STRLITPACK_135.0.6       0000000140150fe8     GetTimeFromWeather.obj
 0002:00006fec       __STRLITPACK_136.0.6       0000000140150fec     GetTimeFromWeather.obj
 0002:00006ff4       __STRLITPACK_137.0.6       0000000140150ff4     GetTimeFromWeather.obj
 0002:00006ffc       __STRLITPACK_138.0.6       0000000140150ffc     GetTimeFromWeather.obj
 0002:00007004       __STRLITPACK_139.0.6       0000000140151004     GetTimeFromWeather.obj
 0002:0000700c       __STRLITPACK_140.0.6       000000014015100c     GetTimeFromWeather.obj
 0002:00007014       __STRLITPACK_141.0.6       0000000140151014     GetTimeFromWeather.obj
 0002:0000701c       __STRLITPACK_142.0.6       000000014015101c     GetTimeFromWeather.obj
 0002:00007020       __STRLITPACK_143.0.6       0000000140151020     GetTimeFromWeather.obj
 0002:00007024       __STRLITPACK_144.0.6       0000000140151024     GetTimeFromWeather.obj
 0002:00007028       __STRLITPACK_145.0.6       0000000140151028     GetTimeFromWeather.obj
 0002:00007030       __STRLITPACK_147.0.6       0000000140151030     GetTimeFromWeather.obj
 0002:00007034       __STRLITPACK_148.0.6       0000000140151034     GetTimeFromWeather.obj
 0002:0000703c       __STRLITPACK_158.0.6       000000014015103c     GetTimeFromWeather.obj
 0002:00007040       __STRLITPACK_159.0.6       0000000140151040     GetTimeFromWeather.obj
 0002:00007048       __STRLITPACK_167.0.6       0000000140151048     GetTimeFromWeather.obj
 0002:0000704c       __STRLITPACK_168.0.6       000000014015104c     GetTimeFromWeather.obj
 0002:00007050       __STRLITPACK_169.0.6       0000000140151050     GetTimeFromWeather.obj
 0002:00007058       __STRLITPACK_170.0.6       0000000140151058     GetTimeFromWeather.obj
 0002:00007060       __STRLITPACK_171.0.6       0000000140151060     GetTimeFromWeather.obj
 0002:00007068       __STRLITPACK_172.0.6       0000000140151068     GetTimeFromWeather.obj
 0002:00007070       __STRLITPACK_173.0.6       0000000140151070     GetTimeFromWeather.obj
 0002:00007078       __STRLITPACK_174.0.6       0000000140151078     GetTimeFromWeather.obj
 0002:00007080       __STRLITPACK_175.0.6       0000000140151080     GetTimeFromWeather.obj
 0002:00007084       __STRLITPACK_176.0.6       0000000140151084     GetTimeFromWeather.obj
 0002:0000708c       __STRLITPACK_177.0.6       000000014015108c     GetTimeFromWeather.obj
 0002:00007094       __STRLITPACK_178.0.6       0000000140151094     GetTimeFromWeather.obj
 0002:0000709c       __STRLITPACK_179.0.6       000000014015109c     GetTimeFromWeather.obj
 0002:000070a4       __STRLITPACK_180.0.6       00000001401510a4     GetTimeFromWeather.obj
 0002:000070ac       __STRLITPACK_181.0.6       00000001401510ac     GetTimeFromWeather.obj
 0002:000070b4       __STRLITPACK_182.0.6       00000001401510b4     GetTimeFromWeather.obj
 0002:000070b8       __STRLITPACK_183.0.6       00000001401510b8     GetTimeFromWeather.obj
 0002:000070bc       __STRLITPACK_184.0.6       00000001401510bc     GetTimeFromWeather.obj
 0002:000070c0       __STRLITPACK_185.0.6       00000001401510c0     GetTimeFromWeather.obj
 0002:000070c4       __STRLITPACK_149.0.6       00000001401510c4     GetTimeFromWeather.obj
 0002:000070c8       __STRLITPACK_150.0.6       00000001401510c8     GetTimeFromWeather.obj
 0002:000070d0       __STRLITPACK_151.0.6       00000001401510d0     GetTimeFromWeather.obj
 0002:000070d4       __STRLITPACK_152.0.6       00000001401510d4     GetTimeFromWeather.obj
 0002:000070dc       __STRLITPACK_153.0.6       00000001401510dc     GetTimeFromWeather.obj
 0002:000070e0       __STRLITPACK_154.0.6       00000001401510e0     GetTimeFromWeather.obj
 0002:000070e8       __STRLITPACK_155.0.6       00000001401510e8     GetTimeFromWeather.obj
 0002:000070ec       __STRLITPACK_156.0.6       00000001401510ec     GetTimeFromWeather.obj
 0002:000070f4       __STRLITPACK_157.0.6       00000001401510f4     GetTimeFromWeather.obj
 0002:000070f8       __STRLITPACK_146.0.6       00000001401510f8     GetTimeFromWeather.obj
 0002:000070fc       __STRLITPACK_160.0.6       00000001401510fc     GetTimeFromWeather.obj
 0002:00007100       __STRLITPACK_161.0.6       0000000140151100     GetTimeFromWeather.obj
 0002:00007108       __STRLITPACK_162.0.6       0000000140151108     GetTimeFromWeather.obj
 0002:0000710c       __STRLITPACK_163.0.6       000000014015110c     GetTimeFromWeather.obj
 0002:00007114       __STRLITPACK_164.0.6       0000000140151114     GetTimeFromWeather.obj
 0002:00007118       __STRLITPACK_165.0.6       0000000140151118     GetTimeFromWeather.obj
 0002:00007120       __STRLITPACK_166.0.6       0000000140151120     GetTimeFromWeather.obj
 0002:00007130       YEARMONTHDAY$NDAY.0.3      0000000140151130     GetTimeFromWeather.obj
 0002:00007160       __STRLITPACK_107.0.4       0000000140151160     GetTimeFromWeather.obj
 0002:00007168       __STRLITPACK_108.0.4       0000000140151168     GetTimeFromWeather.obj
 0002:00007170       __STRLITPACK_109.0.4       0000000140151170     GetTimeFromWeather.obj
 0002:00007174       __STRLITPACK_110.0.4       0000000140151174     GetTimeFromWeather.obj
 0002:0000717c       __STRLITPACK_111.0.4       000000014015117c     GetTimeFromWeather.obj
 0002:00007180       __STRLITPACK_112.0.4       0000000140151180     GetTimeFromWeather.obj
 0002:00007184       __STRLITPACK_113.0.4       0000000140151184     GetTimeFromWeather.obj
 0002:0000718c       __STRLITPACK_114.0.4       000000014015118c     GetTimeFromWeather.obj
 0002:00007194       __STRLITPACK_115.0.4       0000000140151194     GetTimeFromWeather.obj
 0002:00007198       __STRLITPACK_116.0.4       0000000140151198     GetTimeFromWeather.obj
 0002:000071a0       _2il0floatpacket.5         00000001401511a0     GetTimeFromWeather.obj
 0002:000071b0       _2il0floatpacket.0         00000001401511b0     GetTimeFromWeather.obj
 0002:000071b4       _2il0floatpacket.1         00000001401511b4     GetTimeFromWeather.obj
 0002:000071b8       _2il0floatpacket.2         00000001401511b8     GetTimeFromWeather.obj
 0002:000071bc       _2il0floatpacket.3         00000001401511bc     GetTimeFromWeather.obj
 0002:000071c0       _2il0floatpacket.4         00000001401511c0     GetTimeFromWeather.obj
 0002:000071c4       _2il0floatpacket.6         00000001401511c4     GetTimeFromWeather.obj
 0002:000071c8       __STRLITPACK_58            00000001401511c8     GetTimeFromWeather.obj
 0002:000071e4       __STRLITPACK_56            00000001401511e4     GetTimeFromWeather.obj
 0002:000071ec       __STRLITPACK_57            00000001401511ec     GetTimeFromWeather.obj
 0002:000071f0       __STRLITPACK_0             00000001401511f0     GetTimeFromWeather.obj
 0002:00007224       __STRLITPACK_35            0000000140151224     GetTimeFromWeather.obj
 0002:0000722c       __STRLITPACK_36            000000014015122c     GetTimeFromWeather.obj
 0002:00007230       __STRLITPACK_20            0000000140151230     GetTimeFromWeather.obj
 0002:00007238       __STRLITPACK_21            0000000140151238     GetTimeFromWeather.obj
 0002:00007244       __STRLITPACK_22            0000000140151244     GetTimeFromWeather.obj
 0002:00007248       __STRLITPACK_12            0000000140151248     GetTimeFromWeather.obj
 0002:00007260       __STRLITPACK_8             0000000140151260     GetTimeFromWeather.obj
 0002:00007280       __STRLITPACK_4             0000000140151280     GetTimeFromWeather.obj
 0002:00007298       __STRLITPACK_2             0000000140151298     GetTimeFromWeather.obj
 0002:000072c0       __STRLITPACK_6             00000001401512c0     GetTimeFromWeather.obj
 0002:000072e8       __STRLITPACK_16            00000001401512e8     GetTimeFromWeather.obj
 0002:00007300       __STRLITPACK_25            0000000140151300     GetTimeFromWeather.obj
 0002:0000732c       __STRLITPACK_31            000000014015132c     GetTimeFromWeather.obj
 0002:00007344       __STRLITPACK_37            0000000140151344     GetTimeFromWeather.obj
 0002:0000735c       __STRLITPACK_41            000000014015135c     GetTimeFromWeather.obj
 0002:00007374       __STRLITPACK_46            0000000140151374     GetTimeFromWeather.obj
 0002:00007390       __STRLITPACK_52            0000000140151390     GetTimeFromWeather.obj
 0002:000073a8       __STRLITPACK_196.0.8       00000001401513a8     GetTimeFromWeather.obj
 0002:000073ac       __STRLITPACK_197.0.8       00000001401513ac     GetTimeFromWeather.obj
 0002:000073b4       __STRLITPACK_199.0.8       00000001401513b4     GetTimeFromWeather.obj
 0002:000073b8       __STRLITPACK_200.0.8       00000001401513b8     GetTimeFromWeather.obj
 0002:000073c0       __STRLITPACK_198.0.8       00000001401513c0     GetTimeFromWeather.obj
 0002:000073c4       __STRLITPACK_201.0.8       00000001401513c4     GetTimeFromWeather.obj
 0002:000073c8       __STRLITPACK_188.0.7       00000001401513c8     GetTimeFromWeather.obj
 0002:000073cc       __STRLITPACK_189.0.7       00000001401513cc     GetTimeFromWeather.obj
 0002:000073d4       __STRLITPACK_191.0.7       00000001401513d4     GetTimeFromWeather.obj
 0002:000073d8       __STRLITPACK_192.0.7       00000001401513d8     GetTimeFromWeather.obj
 0002:000073e0       __STRLITPACK_190.0.7       00000001401513e0     GetTimeFromWeather.obj
 0002:000073e4       __STRLITPACK_193.0.7       00000001401513e4     GetTimeFromWeather.obj
 0002:000073e8       __STRLITPACK_105           00000001401513e8     GetTimeFromWeather.obj
 0002:000073f4       __STRLITPACK_101           00000001401513f4     GetTimeFromWeather.obj
 0002:000073fc       __STRLITPACK_100           00000001401513fc     GetTimeFromWeather.obj
 0002:00007404       __STRLITPACK_99            0000000140151404     GetTimeFromWeather.obj
 0002:0000740c       __STRLITPACK_98            000000014015140c     GetTimeFromWeather.obj
 0002:00007414       __STRLITPACK_97            0000000140151414     GetTimeFromWeather.obj
 0002:0000741c       __STRLITPACK_96            000000014015141c     GetTimeFromWeather.obj
 0002:00007420       __STRLITPACK_95            0000000140151420     GetTimeFromWeather.obj
 0002:00007428       __STRLITPACK_94            0000000140151428     GetTimeFromWeather.obj
 0002:00007430       __STRLITPACK_93            0000000140151430     GetTimeFromWeather.obj
 0002:00007440       _2il0floatpacket.0         0000000140151440     SetTimeZone.obj
 0002:00007444       _2il0floatpacket.1         0000000140151444     SetTimeZone.obj
 0002:00007448       _2il0floatpacket.2         0000000140151448     SetTimeZone.obj
 0002:0000744c       _2il0floatpacket.3         000000014015144c     SetTimeZone.obj
 0002:00007450       _2il0floatpacket.4         0000000140151450     SetTimeZone.obj
 0002:00007454       _2il0floatpacket.5         0000000140151454     SetTimeZone.obj
 0002:00007458       _2il0floatpacket.6         0000000140151458     SetTimeZone.obj
 0002:0000745c       __STRLITPACK_26.0.1        000000014015145c     ReadEmissionFile.obj
 0002:00007464       __STRLITPACK_27.0.1        0000000140151464     ReadEmissionFile.obj
 0002:0000746c       __STRLITPACK_29.0.1        000000014015146c     ReadEmissionFile.obj
 0002:00007480       __STRLITPACK_30.0.1        0000000140151480     ReadEmissionFile.obj
 0002:00007488       __STRLITPACK_31.0.1        0000000140151488     ReadEmissionFile.obj
 0002:00007490       __STRLITPACK_32.0.1        0000000140151490     ReadEmissionFile.obj
 0002:00007498       __STRLITPACK_33.0.1        0000000140151498     ReadEmissionFile.obj
 0002:000074a0       __STRLITPACK_34.0.1        00000001401514a0     ReadEmissionFile.obj
 0002:000074a8       __NLITPACK_0.0.3           00000001401514a8     ReadEmissionFile.obj
 0002:000074ac       __STRLITPACK_200.0.3       00000001401514ac     ReadEmissionFile.obj
 0002:000074b4       __STRLITPACK_201.0.3       00000001401514b4     ReadEmissionFile.obj
 0002:000074bc       __STRLITPACK_202.0.3       00000001401514bc     ReadEmissionFile.obj
 0002:000074c4       __STRLITPACK_203.0.3       00000001401514c4     ReadEmissionFile.obj
 0002:000074cc       __STRLITPACK_204.0.3       00000001401514cc     ReadEmissionFile.obj
 0002:000074d4       __STRLITPACK_205.0.3       00000001401514d4     ReadEmissionFile.obj
 0002:000074dc       __STRLITPACK_206.0.3       00000001401514dc     ReadEmissionFile.obj
 0002:000074e4       __STRLITPACK_207.0.3       00000001401514e4     ReadEmissionFile.obj
 0002:000074ec       __STRLITPACK_208.0.3       00000001401514ec     ReadEmissionFile.obj
 0002:000074f4       __STRLITPACK_209.0.3       00000001401514f4     ReadEmissionFile.obj
 0002:000074fc       __STRLITPACK_210.0.3       00000001401514fc     ReadEmissionFile.obj
 0002:00007504       __STRLITPACK_211.0.3       0000000140151504     ReadEmissionFile.obj
 0002:0000750c       __STRLITPACK_212.0.3       000000014015150c     ReadEmissionFile.obj
 0002:00007514       __STRLITPACK_213.0.3       0000000140151514     ReadEmissionFile.obj
 0002:0000751c       __STRLITPACK_214.0.3       000000014015151c     ReadEmissionFile.obj
 0002:00007524       __STRLITPACK_215.0.3       0000000140151524     ReadEmissionFile.obj
 0002:0000752c       __STRLITPACK_216.0.3       000000014015152c     ReadEmissionFile.obj
 0002:00007534       __STRLITPACK_231.0.3       0000000140151534     ReadEmissionFile.obj
 0002:0000753c       __STRLITPACK_221.0.3       000000014015153c     ReadEmissionFile.obj
 0002:00007544       __STRLITPACK_222.0.3       0000000140151544     ReadEmissionFile.obj
 0002:0000754c       __STRLITPACK_223.0.3       000000014015154c     ReadEmissionFile.obj
 0002:00007554       __STRLITPACK_217.0.3       0000000140151554     ReadEmissionFile.obj
 0002:0000755c       __STRLITPACK_198.0.3       000000014015155c     ReadEmissionFile.obj
 0002:00007564       __STRLITPACK_199.0.3       0000000140151564     ReadEmissionFile.obj
 0002:0000756c       __STRLITPACK_232.0.3       000000014015156c     ReadEmissionFile.obj
 0002:00007574       __STRLITPACK_227.0.3       0000000140151574     ReadEmissionFile.obj
 0002:0000757c       __STRLITPACK_228.0.3       000000014015157c     ReadEmissionFile.obj
 0002:00007584       __STRLITPACK_229.0.3       0000000140151584     ReadEmissionFile.obj
 0002:0000758c       __STRLITPACK_230.0.3       000000014015158c     ReadEmissionFile.obj
 0002:00007594       __STRLITPACK_224.0.3       0000000140151594     ReadEmissionFile.obj
 0002:0000759c       __STRLITPACK_225.0.3       000000014015159c     ReadEmissionFile.obj
 0002:000075a4       __STRLITPACK_226.0.3       00000001401515a4     ReadEmissionFile.obj
 0002:000075ac       __STRLITPACK_218.0.3       00000001401515ac     ReadEmissionFile.obj
 0002:000075b4       __STRLITPACK_219.0.3       00000001401515b4     ReadEmissionFile.obj
 0002:000075bc       __STRLITPACK_220.0.3       00000001401515bc     ReadEmissionFile.obj
 0002:000075c4       __STRLITPACK_78.0.2        00000001401515c4     ReadEmissionFile.obj
 0002:000075cc       __STRLITPACK_79.0.2        00000001401515cc     ReadEmissionFile.obj
 0002:000075d4       __STRLITPACK_80.0.2        00000001401515d4     ReadEmissionFile.obj
 0002:000075dc       __STRLITPACK_82.0.2        00000001401515dc     ReadEmissionFile.obj
 0002:000075e4       __STRLITPACK_83.0.2        00000001401515e4     ReadEmissionFile.obj
 0002:000075ec       __STRLITPACK_84.0.2        00000001401515ec     ReadEmissionFile.obj
 0002:000075f4       __STRLITPACK_71.0.2        00000001401515f4     ReadEmissionFile.obj
 0002:000075fc       __STRLITPACK_72.0.2        00000001401515fc     ReadEmissionFile.obj
 0002:00007604       __STRLITPACK_73.0.2        0000000140151604     ReadEmissionFile.obj
 0002:0000760c       __STRLITPACK_74.0.2        000000014015160c     ReadEmissionFile.obj
 0002:00007614       __STRLITPACK_75.0.2        0000000140151614     ReadEmissionFile.obj
 0002:0000761c       __STRLITPACK_76.0.2        000000014015161c     ReadEmissionFile.obj
 0002:00007624       __STRLITPACK_77.0.2        0000000140151624     ReadEmissionFile.obj
 0002:0000762c       _2il0floatpacket.18        000000014015162c     ReadEmissionFile.obj
 0002:00007630       _2il0floatpacket.19        0000000140151630     ReadEmissionFile.obj
 0002:00007634       _2il0floatpacket.20        0000000140151634     ReadEmissionFile.obj
 0002:00007638       _2il0floatpacket.21        0000000140151638     ReadEmissionFile.obj
 0002:0000763c       _2il0floatpacket.22        000000014015163c     ReadEmissionFile.obj
 0002:00007640       _2il0floatpacket.23        0000000140151640     ReadEmissionFile.obj
 0002:00007644       __STRLITPACK_22            0000000140151644     ReadEmissionFile.obj
 0002:00007670       __STRLITPACK_18            0000000140151670     ReadEmissionFile.obj
 0002:000076ac       __STRLITPACK_16            00000001401516ac     ReadEmissionFile.obj
 0002:000076b4       __STRLITPACK_17            00000001401516b4     ReadEmissionFile.obj
 0002:000076b8       __STRLITPACK_12            00000001401516b8     ReadEmissionFile.obj
 0002:000076dc       __STRLITPACK_8             00000001401516dc     ReadEmissionFile.obj
 0002:000076ec       __STRLITPACK_6             00000001401516ec     ReadEmissionFile.obj
 0002:00007714       __STRLITPACK_4             0000000140151714     ReadEmissionFile.obj
 0002:00007724       __STRLITPACK_0             0000000140151724     ReadEmissionFile.obj
 0002:00007734       __STRLITPACK_197           0000000140151734     ReadEmissionFile.obj
 0002:00007738       __STRLITPACK_190           0000000140151738     ReadEmissionFile.obj
 0002:0000773c       __STRLITPACK_189           000000014015173c     ReadEmissionFile.obj
 0002:00007748       __STRLITPACK_177           0000000140151748     ReadEmissionFile.obj
 0002:0000776c       __STRLITPACK_173           000000014015176c     ReadEmissionFile.obj
 0002:0000777c       __STRLITPACK_172           000000014015177c     ReadEmissionFile.obj
 0002:00007780       __STRLITPACK_171           0000000140151780     ReadEmissionFile.obj
 0002:00007784       __STRLITPACK_170           0000000140151784     ReadEmissionFile.obj
 0002:00007788       __STRLITPACK_169           0000000140151788     ReadEmissionFile.obj
 0002:0000778c       __STRLITPACK_165           000000014015178c     ReadEmissionFile.obj
 0002:000077b8       __STRLITPACK_161           00000001401517b8     ReadEmissionFile.obj
 0002:000077c8       __STRLITPACK_157           00000001401517c8     ReadEmissionFile.obj
 0002:000077e8       __STRLITPACK_153           00000001401517e8     ReadEmissionFile.obj
 0002:000077f8       __STRLITPACK_149           00000001401517f8     ReadEmissionFile.obj
 0002:0000781c       __STRLITPACK_145           000000014015181c     ReadEmissionFile.obj
 0002:0000782c       __STRLITPACK_141           000000014015182c     ReadEmissionFile.obj
 0002:00007850       __STRLITPACK_137           0000000140151850     ReadEmissionFile.obj
 0002:00007860       __STRLITPACK_121           0000000140151860     ReadEmissionFile.obj
 0002:00007898       __STRLITPACK_117           0000000140151898     ReadEmissionFile.obj
 0002:000078a0       __STRLITPACK_113           00000001401518a0     ReadEmissionFile.obj
 0002:000078b0       __STRLITPACK_185           00000001401518b0     ReadEmissionFile.obj
 0002:000078dc       __STRLITPACK_181           00000001401518dc     ReadEmissionFile.obj
 0002:000078ec       __STRLITPACK_85            00000001401518ec     ReadEmissionFile.obj
 0002:0000792c       __STRLITPACK_97            000000014015192c     ReadEmissionFile.obj
 0002:0000794c       __STRLITPACK_93            000000014015194c     ReadEmissionFile.obj
 0002:00007958       __STRLITPACK_89            0000000140151958     ReadEmissionFile.obj
 0002:00007968       __STRLITPACK_109           0000000140151968     ReadEmissionFile.obj
 0002:000079a0       __STRLITPACK_105           00000001401519a0     ReadEmissionFile.obj
 0002:000079a8       __STRLITPACK_101           00000001401519a8     ReadEmissionFile.obj
 0002:000079b8       __STRLITPACK_133           00000001401519b8     ReadEmissionFile.obj
 0002:000079f0       __STRLITPACK_129           00000001401519f0     ReadEmissionFile.obj
 0002:000079f8       __STRLITPACK_125           00000001401519f8     ReadEmissionFile.obj
 0002:00007a08       _2il0floatpacket.26        0000000140151a08     ReadEmissionFile.obj
 0002:00007a0c       _2il0floatpacket.27        0000000140151a0c     ReadEmissionFile.obj
 0002:00007a10       __STRLITPACK_55            0000000140151a10     ReadEmissionFile.obj
 0002:00007a38       __STRLITPACK_51            0000000140151a38     ReadEmissionFile.obj
 0002:00007a48       __STRLITPACK_47            0000000140151a48     ReadEmissionFile.obj
 0002:00007a58       __STRLITPACK_43            0000000140151a58     ReadEmissionFile.obj
 0002:00007a94       __STRLITPACK_39            0000000140151a94     ReadEmissionFile.obj
 0002:00007aa4       __STRLITPACK_35            0000000140151aa4     ReadEmissionFile.obj
 0002:00007ab4       __STRLITPACK_67            0000000140151ab4     ReadEmissionFile.obj
 0002:00007adc       __STRLITPACK_63            0000000140151adc     ReadEmissionFile.obj
 0002:00007af0       __STRLITPACK_59            0000000140151af0     ReadEmissionFile.obj
 0002:00007b10       __STRLITPACK_35.0.1        0000000140151b10     GetDomRefFromWeather.obj
 0002:00007b18       __STRLITPACK_36.0.1        0000000140151b18     GetDomRefFromWeather.obj
 0002:00007b2c       __STRLITPACK_38.0.1        0000000140151b2c     GetDomRefFromWeather.obj
 0002:00007b34       __STRLITPACK_40.0.1        0000000140151b34     GetDomRefFromWeather.obj
 0002:00007b3c       __STRLITPACK_41.0.1        0000000140151b3c     GetDomRefFromWeather.obj
 0002:00007b44       __STRLITPACK_46.0.1        0000000140151b44     GetDomRefFromWeather.obj
 0002:00007b4c       __STRLITPACK_47.0.1        0000000140151b4c     GetDomRefFromWeather.obj
 0002:00007b54       __STRLITPACK_48.0.1        0000000140151b54     GetDomRefFromWeather.obj
 0002:00007b5c       __STRLITPACK_42.0.1        0000000140151b5c     GetDomRefFromWeather.obj
 0002:00007b70       __NLITPACK_0.0.1           0000000140151b70     GetDomRefFromWeather.obj
 0002:00007b74       __STRLITPACK_44.0.1        0000000140151b74     GetDomRefFromWeather.obj
 0002:00007b7c       __STRLITPACK_45.0.1        0000000140151b7c     GetDomRefFromWeather.obj
 0002:00007b84       __STRLITPACK_43.0.1        0000000140151b84     GetDomRefFromWeather.obj
 0002:00007b8c       __STRLITPACK_39.0.1        0000000140151b8c     GetDomRefFromWeather.obj
 0002:00007b94       __STRLITPACK_37.0.1        0000000140151b94     GetDomRefFromWeather.obj
 0002:00007ba0       _2il0floatpacket.0         0000000140151ba0     GetDomRefFromWeather.obj
 0002:00007bb0       __STRLITPACK_31            0000000140151bb0     GetDomRefFromWeather.obj
 0002:00007bcc       __STRLITPACK_29            0000000140151bcc     GetDomRefFromWeather.obj
 0002:00007bd4       __STRLITPACK_30            0000000140151bd4     GetDomRefFromWeather.obj
 0002:00007bd8       __STRLITPACK_4             0000000140151bd8     GetDomRefFromWeather.obj
 0002:00007bfc       __STRLITPACK_0             0000000140151bfc     GetDomRefFromWeather.obj
 0002:00007c1c       __STRLITPACK_15            0000000140151c1c     GetDomRefFromWeather.obj
 0002:00007c24       __STRLITPACK_16            0000000140151c24     GetDomRefFromWeather.obj
 0002:00007c28       __STRLITPACK_8             0000000140151c28     GetDomRefFromWeather.obj
 0002:00007c34       __STRLITPACK_11            0000000140151c34     GetDomRefFromWeather.obj
 0002:00007c4c       __STRLITPACK_19            0000000140151c4c     GetDomRefFromWeather.obj
 0002:00007c68       __STRLITPACK_25            0000000140151c68     GetDomRefFromWeather.obj
 0002:00007c80       __STRLITPACK_12.0.1        0000000140151c80     SetSCIPUFFDomain.obj
 0002:00007c88       __STRLITPACK_13.0.1        0000000140151c88     SetSCIPUFFDomain.obj
 0002:00007c90       __STRLITPACK_14.0.1        0000000140151c90     SetSCIPUFFDomain.obj
 0002:00007ca0       _2il0floatpacket.8         0000000140151ca0     SetSCIPUFFDomain.obj
 0002:00007cb0       _2il0floatpacket.0         0000000140151cb0     SetSCIPUFFDomain.obj
 0002:00007cb4       _2il0floatpacket.1         0000000140151cb4     SetSCIPUFFDomain.obj
 0002:00007cb8       _2il0floatpacket.2         0000000140151cb8     SetSCIPUFFDomain.obj
 0002:00007cbc       _2il0floatpacket.3         0000000140151cbc     SetSCIPUFFDomain.obj
 0002:00007cc0       _2il0floatpacket.4         0000000140151cc0     SetSCIPUFFDomain.obj
 0002:00007cc4       _2il0floatpacket.5         0000000140151cc4     SetSCIPUFFDomain.obj
 0002:00007cc8       _2il0floatpacket.6         0000000140151cc8     SetSCIPUFFDomain.obj
 0002:00007ccc       _2il0floatpacket.7         0000000140151ccc     SetSCIPUFFDomain.obj
 0002:00007cd0       _2il0floatpacket.9         0000000140151cd0     SetSCIPUFFDomain.obj
 0002:00007cd4       __STRLITPACK_8             0000000140151cd4     SetSCIPUFFDomain.obj
 0002:00007d00       __STRLITPACK_4             0000000140151d00     SetSCIPUFFDomain.obj
 0002:00007d24       __STRLITPACK_0             0000000140151d24     SetSCIPUFFDomain.obj
 0002:00007d60       __STRLITPACK_118.0.1       0000000140151d60     ParseDataMA.obj
 0002:00007d68       __STRLITPACK_119.0.1       0000000140151d68     ParseDataMA.obj
 0002:00007d70       __STRLITPACK_120.0.1       0000000140151d70     ParseDataMA.obj
 0002:00007d78       __STRLITPACK_122.0.1       0000000140151d78     ParseDataMA.obj
 0002:00007d80       __STRLITPACK_123.0.1       0000000140151d80     ParseDataMA.obj
 0002:00007d88       __STRLITPACK_124.0.1       0000000140151d88     ParseDataMA.obj
 0002:00007d90       __STRLITPACK_125.0.1       0000000140151d90     ParseDataMA.obj
 0002:00007d98       __STRLITPACK_127.0.1       0000000140151d98     ParseDataMA.obj
 0002:00007da0       __STRLITPACK_128.0.1       0000000140151da0     ParseDataMA.obj
 0002:00007da8       __STRLITPACK_129.0.1       0000000140151da8     ParseDataMA.obj
 0002:00007db0       __STRLITPACK_131.0.1       0000000140151db0     ParseDataMA.obj
 0002:00007db8       __STRLITPACK_132.0.1       0000000140151db8     ParseDataMA.obj
 0002:00007dc0       __STRLITPACK_133.0.1       0000000140151dc0     ParseDataMA.obj
 0002:00007dc8       __STRLITPACK_137.0.1       0000000140151dc8     ParseDataMA.obj
 0002:00007dd0       __STRLITPACK_139.0.1       0000000140151dd0     ParseDataMA.obj
 0002:00007dd8       __STRLITPACK_140.0.1       0000000140151dd8     ParseDataMA.obj
 0002:00007de0       __STRLITPACK_141.0.1       0000000140151de0     ParseDataMA.obj
 0002:00007de8       __STRLITPACK_143.0.1       0000000140151de8     ParseDataMA.obj
 0002:00007df0       __STRLITPACK_144.0.1       0000000140151df0     ParseDataMA.obj
 0002:00007df8       __STRLITPACK_145.0.1       0000000140151df8     ParseDataMA.obj
 0002:00007e00       __STRLITPACK_146.0.1       0000000140151e00     ParseDataMA.obj
 0002:00007e08       __STRLITPACK_147.0.1       0000000140151e08     ParseDataMA.obj
 0002:00007e10       __STRLITPACK_148.0.1       0000000140151e10     ParseDataMA.obj
 0002:00007e18       __STRLITPACK_149.0.1       0000000140151e18     ParseDataMA.obj
 0002:00007e20       __STRLITPACK_126.0.1       0000000140151e20     ParseDataMA.obj
 0002:00007e28       __STRLITPACK_130.0.1       0000000140151e28     ParseDataMA.obj
 0002:00007e30       __STRLITPACK_134.0.1       0000000140151e30     ParseDataMA.obj
 0002:00007e38       __STRLITPACK_135.0.1       0000000140151e38     ParseDataMA.obj
 0002:00007e40       __STRLITPACK_136.0.1       0000000140151e40     ParseDataMA.obj
 0002:00007e48       __STRLITPACK_142.0.1       0000000140151e48     ParseDataMA.obj
 0002:00007e50       __STRLITPACK_138.0.1       0000000140151e50     ParseDataMA.obj
 0002:00007e58       __NLITPACK_0.0.1           0000000140151e58     ParseDataMA.obj
 0002:00007e5c       __STRLITPACK_159.0.2       0000000140151e5c     ParseDataMA.obj
 0002:00007e64       __STRLITPACK_158.0.2       0000000140151e64     ParseDataMA.obj
 0002:00007e6c       __STRLITPACK_177.0.3       0000000140151e6c     ParseDataMA.obj
 0002:00007e74       __STRLITPACK_180.0.3       0000000140151e74     ParseDataMA.obj
 0002:00007e7c       __STRLITPACK_179.0.3       0000000140151e7c     ParseDataMA.obj
 0002:00007e84       __STRLITPACK_176.0.3       0000000140151e84     ParseDataMA.obj
 0002:00007e8c       __STRLITPACK_117           0000000140151e8c     ParseDataMA.obj
 0002:00007e98       __STRLITPACK_113           0000000140151e98     ParseDataMA.obj
 0002:00007eac       __STRLITPACK_109           0000000140151eac     ParseDataMA.obj
 0002:00007eb8       __STRLITPACK_107           0000000140151eb8     ParseDataMA.obj
 0002:00007ebc       __STRLITPACK_106           0000000140151ebc     ParseDataMA.obj
 0002:00007ec4       __STRLITPACK_105           0000000140151ec4     ParseDataMA.obj
 0002:00007ecc       __STRLITPACK_104           0000000140151ecc     ParseDataMA.obj
 0002:00007ed4       __STRLITPACK_91            0000000140151ed4     ParseDataMA.obj
 0002:00007ed8       __STRLITPACK_90            0000000140151ed8     ParseDataMA.obj
 0002:00007edc       __STRLITPACK_100           0000000140151edc     ParseDataMA.obj
 0002:00007f00       __STRLITPACK_96            0000000140151f00     ParseDataMA.obj
 0002:00007f28       __STRLITPACK_92            0000000140151f28     ParseDataMA.obj
 0002:00007f44       __STRLITPACK_89            0000000140151f44     ParseDataMA.obj
 0002:00007f50       __STRLITPACK_88            0000000140151f50     ParseDataMA.obj
 0002:00007f58       __STRLITPACK_84            0000000140151f58     ParseDataMA.obj
 0002:00007f78       __STRLITPACK_80            0000000140151f78     ParseDataMA.obj
 0002:00007f94       __STRLITPACK_79            0000000140151f94     ParseDataMA.obj
 0002:00007f9c       __STRLITPACK_75            0000000140151f9c     ParseDataMA.obj
 0002:00007fbc       __STRLITPACK_71            0000000140151fbc     ParseDataMA.obj
 0002:00007fd8       __STRLITPACK_70            0000000140151fd8     ParseDataMA.obj
 0002:00007fe4       __STRLITPACK_66            0000000140151fe4     ParseDataMA.obj
 0002:0000800c       __STRLITPACK_57            000000014015200c     ParseDataMA.obj
 0002:00008018       __STRLITPACK_53            0000000140152018     ParseDataMA.obj
 0002:00008038       __STRLITPACK_49            0000000140152038     ParseDataMA.obj
 0002:00008064       __STRLITPACK_48            0000000140152064     ParseDataMA.obj
 0002:00008070       __STRLITPACK_44            0000000140152070     ParseDataMA.obj
 0002:00008090       __STRLITPACK_40            0000000140152090     ParseDataMA.obj
 0002:000080bc       __STRLITPACK_39            00000001401520bc     ParseDataMA.obj
 0002:000080c4       __STRLITPACK_35            00000001401520c4     ParseDataMA.obj
 0002:000080e4       __STRLITPACK_28            00000001401520e4     ParseDataMA.obj
 0002:000080ec       __STRLITPACK_27            00000001401520ec     ParseDataMA.obj
 0002:000080f8       __STRLITPACK_23            00000001401520f8     ParseDataMA.obj
 0002:00008118       __STRLITPACK_14            0000000140152118     ParseDataMA.obj
 0002:00008120       __STRLITPACK_13            0000000140152120     ParseDataMA.obj
 0002:00008128       __STRLITPACK_9             0000000140152128     ParseDataMA.obj
 0002:00008148       __STRLITPACK_5             0000000140152148     ParseDataMA.obj
 0002:00008170       __STRLITPACK_4             0000000140152170     ParseDataMA.obj
 0002:0000817c       __STRLITPACK_0             000000014015217c     ParseDataMA.obj
 0002:000081a0       __STRLITPACK_62            00000001401521a0     ParseDataMA.obj
 0002:000081c0       __STRLITPACK_58            00000001401521c0     ParseDataMA.obj
 0002:000081dc       __STRLITPACK_150           00000001401521dc     ParseDataMA.obj
 0002:000081f4       __STRLITPACK_154           00000001401521f4     ParseDataMA.obj
 0002:00008220       _2il0floatpacket.21        0000000140152220     ParseDataMA.obj
 0002:00008224       __STRLITPACK_168           0000000140152224     ParseDataMA.obj
 0002:0000823c       __STRLITPACK_160           000000014015223c     ParseDataMA.obj
 0002:00008254       __STRLITPACK_164           0000000140152254     ParseDataMA.obj
 0002:0000827c       __STRLITPACK_172           000000014015227c     ParseDataMA.obj
 0002:000082a8       _2il0floatpacket.0         00000001401522a8     GetRelTime.obj
 0002:000082ac       __STRLITPACK_29.0.1        00000001401522ac     ParseDataOU.obj
 0002:000082b4       __STRLITPACK_30.0.1        00000001401522b4     ParseDataOU.obj
 0002:000082bc       __NLITPACK_0.0.1           00000001401522bc     ParseDataOU.obj
 0002:000082c0       __STRLITPACK_31.0.1        00000001401522c0     ParseDataOU.obj
 0002:000082c8       _2il0floatpacket.1         00000001401522c8     ParseDataOU.obj
 0002:000082cc       _2il0floatpacket.2         00000001401522cc     ParseDataOU.obj
 0002:000082d0       __STRLITPACK_28            00000001401522d0     ParseDataOU.obj
 0002:000082dc       __STRLITPACK_24            00000001401522dc     ParseDataOU.obj
 0002:00008308       __STRLITPACK_20            0000000140152308     ParseDataOU.obj
 0002:00008314       __STRLITPACK_19            0000000140152314     ParseDataOU.obj
 0002:0000831c       __STRLITPACK_18            000000014015231c     ParseDataOU.obj
 0002:00008328       __STRLITPACK_17            0000000140152328     ParseDataOU.obj
 0002:00008330       __STRLITPACK_16            0000000140152330     ParseDataOU.obj
 0002:00008338       __STRLITPACK_15            0000000140152338     ParseDataOU.obj
 0002:00008340       __STRLITPACK_14            0000000140152340     ParseDataOU.obj
 0002:0000834c       __STRLITPACK_13            000000014015234c     ParseDataOU.obj
 0002:00008354       __STRLITPACK_12            0000000140152354     ParseDataOU.obj
 0002:0000835c       __STRLITPACK_11            000000014015235c     ParseDataOU.obj
 0002:00008368       __STRLITPACK_10            0000000140152368     ParseDataOU.obj
 0002:00008374       __STRLITPACK_9             0000000140152374     ParseDataOU.obj
 0002:00008380       __STRLITPACK_8             0000000140152380     ParseDataOU.obj
 0002:0000838c       __STRLITPACK_7             000000014015238c     ParseDataOU.obj
 0002:00008394       __STRLITPACK_6             0000000140152394     ParseDataOU.obj
 0002:000083a0       __STRLITPACK_5             00000001401523a0     ParseDataOU.obj
 0002:000083ac       __STRLITPACK_4             00000001401523ac     ParseDataOU.obj
 0002:000083b8       __STRLITPACK_0             00000001401523b8     ParseDataOU.obj
 0002:000083e0       __STRLITPACK_40.0.1        00000001401523e0     GenSCIPUFFSensor.obj
 0002:000083f4       __STRLITPACK_41.0.1        00000001401523f4     GenSCIPUFFSensor.obj
 0002:000083fc       __STRLITPACK_42.0.1        00000001401523fc     GenSCIPUFFSensor.obj
 0002:00008404       __STRLITPACK_44.0.1        0000000140152404     GenSCIPUFFSensor.obj
 0002:0000840c       __STRLITPACK_45.0.1        000000014015240c     GenSCIPUFFSensor.obj
 0002:00008414       __STRLITPACK_46.0.1        0000000140152414     GenSCIPUFFSensor.obj
 0002:0000841c       __STRLITPACK_47.0.1        000000014015241c     GenSCIPUFFSensor.obj
 0002:00008424       __STRLITPACK_48.0.1        0000000140152424     GenSCIPUFFSensor.obj
 0002:0000842c       __STRLITPACK_51.0.1        000000014015242c     GenSCIPUFFSensor.obj
 0002:00008434       __STRLITPACK_52.0.1        0000000140152434     GenSCIPUFFSensor.obj
 0002:0000843c       __STRLITPACK_49.0.1        000000014015243c     GenSCIPUFFSensor.obj
 0002:00008444       __STRLITPACK_53.0.1        0000000140152444     GenSCIPUFFSensor.obj
 0002:0000844c       __STRLITPACK_50.0.1        000000014015244c     GenSCIPUFFSensor.obj
 0002:00008454       __STRLITPACK_43.0.1        0000000140152454     GenSCIPUFFSensor.obj
 0002:0000845c       __STRLITPACK_113.0.4       000000014015245c     GenSCIPUFFSensor.obj
 0002:00008464       __STRLITPACK_114.0.4       0000000140152464     GenSCIPUFFSensor.obj
 0002:0000846c       __STRLITPACK_115.0.4       000000014015246c     GenSCIPUFFSensor.obj
 0002:00008474       __STRLITPACK_116.0.4       0000000140152474     GenSCIPUFFSensor.obj
 0002:0000847c       __STRLITPACK_117.0.4       000000014015247c     GenSCIPUFFSensor.obj
 0002:00008484       __STRLITPACK_118.0.4       0000000140152484     GenSCIPUFFSensor.obj
 0002:0000848c       __STRLITPACK_95.0.3        000000014015248c     GenSCIPUFFSensor.obj
 0002:00008494       __STRLITPACK_96.0.3        0000000140152494     GenSCIPUFFSensor.obj
 0002:0000849c       __STRLITPACK_97.0.3        000000014015249c     GenSCIPUFFSensor.obj
 0002:000084a4       __STRLITPACK_98.0.3        00000001401524a4     GenSCIPUFFSensor.obj
 0002:000084ac       __STRLITPACK_99.0.3        00000001401524ac     GenSCIPUFFSensor.obj
 0002:000084b4       __STRLITPACK_100.0.3       00000001401524b4     GenSCIPUFFSensor.obj
 0002:000084bc       __STRLITPACK_74.0.2        00000001401524bc     GenSCIPUFFSensor.obj
 0002:000084c4       __STRLITPACK_75.0.2        00000001401524c4     GenSCIPUFFSensor.obj
 0002:000084cc       __STRLITPACK_76.0.2        00000001401524cc     GenSCIPUFFSensor.obj
 0002:000084d4       __STRLITPACK_77.0.2        00000001401524d4     GenSCIPUFFSensor.obj
 0002:000084dc       __STRLITPACK_78.0.2        00000001401524dc     GenSCIPUFFSensor.obj
 0002:000084e4       __STRLITPACK_79.0.2        00000001401524e4     GenSCIPUFFSensor.obj
 0002:000084ec       __STRLITPACK_80.0.2        00000001401524ec     GenSCIPUFFSensor.obj
 0002:000084f4       __STRLITPACK_81.0.2        00000001401524f4     GenSCIPUFFSensor.obj
 0002:000084fc       __STRLITPACK_82.0.2        00000001401524fc     GenSCIPUFFSensor.obj
 0002:00008520       __STRLITPACK_3             0000000140152520     GenSCIPUFFSensor.obj
 0002:0000856c       _2il0floatpacket.4         000000014015256c     GenSCIPUFFSensor.obj
 0002:00008570       _2il0floatpacket.5         0000000140152570     GenSCIPUFFSensor.obj
 0002:00008574       _2il0floatpacket.6         0000000140152574     GenSCIPUFFSensor.obj
 0002:00008578       __STRLITPACK_39            0000000140152578     GenSCIPUFFSensor.obj
 0002:00008580       __STRLITPACK_38            0000000140152580     GenSCIPUFFSensor.obj
 0002:00008588       __STRLITPACK_37            0000000140152588     GenSCIPUFFSensor.obj
 0002:00008590       __STRLITPACK_33            0000000140152590     GenSCIPUFFSensor.obj
 0002:000085b8       __STRLITPACK_29            00000001401525b8     GenSCIPUFFSensor.obj
 0002:000085c8       __STRLITPACK_28            00000001401525c8     GenSCIPUFFSensor.obj
 0002:000085d8       __STRLITPACK_25            00000001401525d8     GenSCIPUFFSensor.obj
 0002:000085e4       __STRLITPACK_21            00000001401525e4     GenSCIPUFFSensor.obj
 0002:00008618       __STRLITPACK_17            0000000140152618     GenSCIPUFFSensor.obj
 0002:0000862c       __STRLITPACK_13            000000014015262c     GenSCIPUFFSensor.obj
 0002:00008640       __STRLITPACK_7             0000000140152640     GenSCIPUFFSensor.obj
 0002:00008648       __STRLITPACK_12            0000000140152648     GenSCIPUFFSensor.obj
 0002:00008650       __STRLITPACK_2             0000000140152650     GenSCIPUFFSensor.obj
 0002:0000865c       __STRLITPACK_1             000000014015265c     GenSCIPUFFSensor.obj
 0002:00008668       __STRLITPACK_0             0000000140152668     GenSCIPUFFSensor.obj
 0002:00008674       __STRLITPACK_11            0000000140152674     GenSCIPUFFSensor.obj
 0002:00008680       __STRLITPACK_10            0000000140152680     GenSCIPUFFSensor.obj
 0002:00008688       __STRLITPACK_27            0000000140152688     GenSCIPUFFSensor.obj
 0002:00008690       __STRLITPACK_26            0000000140152690     GenSCIPUFFSensor.obj
 0002:00008698       _2il0floatpacket.7         0000000140152698     GenSCIPUFFSensor.obj
 0002:0000869c       __STRLITPACK_112           000000014015269c     GenSCIPUFFSensor.obj
 0002:000086a4       __STRLITPACK_111           00000001401526a4     GenSCIPUFFSensor.obj
 0002:000086a8       __STRLITPACK_109           00000001401526a8     GenSCIPUFFSensor.obj
 0002:000086ac       __STRLITPACK_108           00000001401526ac     GenSCIPUFFSensor.obj
 0002:000086b4       __STRLITPACK_105           00000001401526b4     GenSCIPUFFSensor.obj
 0002:000086b8       __STRLITPACK_104           00000001401526b8     GenSCIPUFFSensor.obj
 0002:000086bc       __STRLITPACK_103           00000001401526bc     GenSCIPUFFSensor.obj
 0002:000086c0       __STRLITPACK_94            00000001401526c0     GenSCIPUFFSensor.obj
 0002:000086c8       __STRLITPACK_93            00000001401526c8     GenSCIPUFFSensor.obj
 0002:000086cc       __STRLITPACK_91            00000001401526cc     GenSCIPUFFSensor.obj
 0002:000086d0       __STRLITPACK_90            00000001401526d0     GenSCIPUFFSensor.obj
 0002:000086d8       __STRLITPACK_87            00000001401526d8     GenSCIPUFFSensor.obj
 0002:000086dc       __STRLITPACK_86            00000001401526dc     GenSCIPUFFSensor.obj
 0002:000086e0       __STRLITPACK_85            00000001401526e0     GenSCIPUFFSensor.obj
 0002:000086e4       _2il0floatpacket.8         00000001401526e4     GenSCIPUFFSensor.obj
 0002:000086e8       __STRLITPACK_73            00000001401526e8     GenSCIPUFFSensor.obj
 0002:000086ec       __STRLITPACK_72            00000001401526ec     GenSCIPUFFSensor.obj
 0002:000086f4       __STRLITPACK_71            00000001401526f4     GenSCIPUFFSensor.obj
 0002:000086f8       __STRLITPACK_70            00000001401526f8     GenSCIPUFFSensor.obj
 0002:000086fc       __STRLITPACK_69            00000001401526fc     GenSCIPUFFSensor.obj
 0002:00008700       __STRLITPACK_68            0000000140152700     GenSCIPUFFSensor.obj
 0002:00008704       __STRLITPACK_64            0000000140152704     GenSCIPUFFSensor.obj
 0002:00008708       __STRLITPACK_63            0000000140152708     GenSCIPUFFSensor.obj
 0002:0000870c       __STRLITPACK_59            000000014015270c     GenSCIPUFFSensor.obj
 0002:00008710       __STRLITPACK_58            0000000140152710     GenSCIPUFFSensor.obj
 0002:00008714       __STRLITPACK_57            0000000140152714     GenSCIPUFFSensor.obj
 0002:00008718       __STRLITPACK_56            0000000140152718     GenSCIPUFFSensor.obj
 0002:00008720       JULIAN_YMD$NDAY.0.3        0000000140152720     SCIPUFFlib:julian.obj
 0002:00008750       DATETIMESHIFT$NDAY.0.5     0000000140152750     SCIPUFFlib:julian.obj
 0002:00008780       _2il0floatpacket.0         0000000140152780     SCIPUFFlib:julian.obj
 0002:00008790       _2il0floatpacket.0         0000000140152790     SCIPUFFlib:vsort.obj
 0002:000087a0       __STRLITPACK_12.0.1        00000001401527a0     SCIPUFFlib:get_next_data.obj
 0002:000087a8       __STRLITPACK_23.0.4        00000001401527a8     SCIPUFFlib:get_next_data.obj
 0002:000087b0       _2il0floatpacket.0         00000001401527b0     SCIPUFFlib:get_next_data.obj
 0002:000087c0       __STRLITPACK_11            00000001401527c0     SCIPUFFlib:get_next_data.obj
 0002:000087c8       __STRLITPACK_6             00000001401527c8     SCIPUFFlib:get_next_data.obj
 0002:000087cc       __STRLITPACK_5             00000001401527cc     SCIPUFFlib:get_next_data.obj
 0002:000087d0       __STRLITPACK_4             00000001401527d0     SCIPUFFlib:get_next_data.obj
 0002:000087d8       __STRLITPACK_3             00000001401527d8     SCIPUFFlib:get_next_data.obj
 0002:000087dc       __STRLITPACK_15            00000001401527dc     SCIPUFFlib:get_next_data.obj
 0002:000087e0       __STRLITPACK_2             00000001401527e0     SCIPUFFlib:get_next_data.obj
 0002:000087e8       __STRLITPACK_14            00000001401527e8     SCIPUFFlib:get_next_data.obj
 0002:000087ec       __STRLITPACK_26            00000001401527ec     SCIPUFFlib:get_next_data.obj
 0002:000087f0       __STRLITPACK_28            00000001401527f0     SCIPUFFlib:get_next_data.obj
 0002:000087f4       __STRLITPACK_18            00000001401527f4     SCIPUFFlib:get_next_data.obj
 0002:00008800       __STRLITPACK_11.0.1        0000000140152800     SCIPUFFlib:cformat.obj
 0002:00008808       __STRLITPACK_16.0.2        0000000140152808     SCIPUFFlib:cformat.obj
 0002:00008810       __STRLITPACK_26.0.3        0000000140152810     SCIPUFFlib:cformat.obj
 0002:00008818       __STRLITPACK_27.0.3        0000000140152818     SCIPUFFlib:cformat.obj
 0002:00008820       __STRLITPACK_28.0.3        0000000140152820     SCIPUFFlib:cformat.obj
 0002:00008830       _2il0floatpacket.2         0000000140152830     SCIPUFFlib:cformat.obj
 0002:00008840       _2il0floatpacket.0         0000000140152840     SCIPUFFlib:cformat.obj
 0002:00008844       _2il0floatpacket.1         0000000140152844     SCIPUFFlib:cformat.obj
 0002:00008848       __STRLITPACK_6             0000000140152848     SCIPUFFlib:cformat.obj
 0002:0000884c       __STRLITPACK_3             000000014015284c     SCIPUFFlib:cformat.obj
 0002:00008850       __STRLITPACK_15            0000000140152850     SCIPUFFlib:cformat.obj
 0002:00008854       _2il0floatpacket.3         0000000140152854     SCIPUFFlib:cformat.obj
 0002:00008858       __STRLITPACK_25            0000000140152858     SCIPUFFlib:cformat.obj
 0002:0000885c       __STRLITPACK_18            000000014015285c     SCIPUFFlib:cformat.obj
 0002:00008860       __STRLITPACK_17            0000000140152860     SCIPUFFlib:cformat.obj
 0002:00008870       _2il0floatpacket.0         0000000140152870     SCIPUFFlib:trig_degrees.obj
 0002:00008874       _2il0floatpacket.1         0000000140152874     SCIPUFFlib:trig_degrees.obj
 0002:00008878       __STRLITPACK_1             0000000140152878     SCIPUFFlib:deblank.obj
 0002:00008880       u_spc.162.0.0.2            0000000140152880     libifcoremt:for_90_trim.obj
 0002:000088a0       key_encoding.5208.0.8      00000001401528a0     libifcoremt:for_open.obj
 0002:00008900       key_sign.5208.0.8          0000000140152900     libifcoremt:for_open.obj
 0002:00008960       key_decimal.5208.0.8       0000000140152960     libifcoremt:for_open.obj
 0002:000089c0       key_round.5208.0.8         00000001401529c0     libifcoremt:for_open.obj
 0002:00008a80       key_asynch.5208.0.8        0000000140152a80     libifcoremt:for_open.obj
 0002:00008ae0       key_buffered.5208.0.8      0000000140152ae0     libifcoremt:for_open.obj
 0002:00008b40       key_share.5208.0.8         0000000140152b40     libifcoremt:for_open.obj
 0002:00008be0       key_mode.5208.0.8          0000000140152be0     libifcoremt:for_open.obj
 0002:00008c40       key_position.5208.0.8      0000000140152c40     libifcoremt:for_open.obj
 0002:00008ca0       key_pad.5208.0.8           0000000140152ca0     libifcoremt:for_open.obj
 0002:00008d00       key_delim.5208.0.8         0000000140152d00     libifcoremt:for_open.obj
 0002:00008d60       key_action.5208.0.8        0000000140152d60     libifcoremt:for_open.obj
 0002:00008dc0       key_convert.5208.0.8       0000000140152dc0     libifcoremt:for_open.obj
 0002:00008ec0       key_status.5208.0.8        0000000140152ec0     libifcoremt:for_open.obj
 0002:00008f60       key_recordtype.5208.0.8    0000000140152f60     libifcoremt:for_open.obj
 0002:00009020       key_organization.5208.0.8  0000000140153020     libifcoremt:for_open.obj
 0002:00009080       key_form.5208.0.8          0000000140153080     libifcoremt:for_open.obj
 0002:000090e0       key_dispose.5208.0.8       00000001401530e0     libifcoremt:for_open.obj
 0002:000091a0       key_carriage.5208.0.8      00000001401531a0     libifcoremt:for_open.obj
 0002:00009200       key_blank.5208.0.8         0000000140153200     libifcoremt:for_open.obj
 0002:00009260       key_access.5208.0.8        0000000140153260     libifcoremt:for_open.obj
 0002:00009300       for_special_device_table.5613.0.15 0000000140153300     libifcoremt:for_open.obj
 0002:00009420       .2.36_2.switchtab.79       0000000140153420     libifcoremt:for_open.obj
 0002:000094cc       .2.36_2.switchtab.80       00000001401534cc     libifcoremt:for_open.obj
 0002:00009574       .2.37_2.switchtab.40       0000000140153574     libifcoremt:for_open.obj
 0002:00009580       .2.37_2.switchtab.41       0000000140153580     libifcoremt:for_open.obj
 0002:00009588       .2.37_2.switchtab.42       0000000140153588     libifcoremt:for_open.obj
 0002:000095bc       .2.38_2.switchtab.16       00000001401535bc     libifcoremt:for_open.obj
 0002:000095c8       .2.39_2.switchtab.5        00000001401535c8     libifcoremt:for_open.obj
 0002:00009670       .2.40_2.switchtab.25       0000000140153670     libifcoremt:for_open.obj
 0002:0000971c       .2.40_2.switchtab.26       000000014015371c     libifcoremt:for_open.obj
 0002:000097c4       .2.44_2.switchtab.2        00000001401537c4     libifcoremt:for_open.obj
 0002:000097f8       .2.45_2.switchtab.4        00000001401537f8     libifcoremt:for_open.obj
 0002:00009c34       .2.11_2.switchtab.22       0000000140153c34     libifcoremt:for_rseq_fmt.obj
 0002:00009c3c       .2.11_2.switchtab.23       0000000140153c3c     libifcoremt:for_rseq_fmt.obj
 0002:00009c4c       .2.11_2.switchtab.24       0000000140153c4c     libifcoremt:for_rseq_fmt.obj
 0002:00009c5c       .2.12_2.switchtab.3        0000000140153c5c     libifcoremt:for_rseq_fmt.obj
 0002:00009c78       .2.12_2.switchtab.4        0000000140153c78     libifcoremt:for_rseq_fmt.obj
 0002:00009c80       .2.12_2.switchtab.5        0000000140153c80     libifcoremt:for_rseq_fmt.obj
 0002:00009c88       .2.12_2.switchtab.6        0000000140153c88     libifcoremt:for_rseq_fmt.obj
 0002:00009cc8       .2.12_2.switchtab.7        0000000140153cc8     libifcoremt:for_rseq_fmt.obj
 0002:00009cd8       .2.12_2.switchtab.8        0000000140153cd8     libifcoremt:for_rseq_fmt.obj
 0002:00009ce8       .2.12_2.switchtab.9        0000000140153ce8     libifcoremt:for_rseq_fmt.obj
 0002:00009d10       mask.4148.0.0.2            0000000140153d10     libifcoremt:for_f90str.obj
 0002:00009d20       mask.4193.0.0.3            0000000140153d20     libifcoremt:for_f90str.obj
 0002:00009d30       mask.4238.0.0.4            0000000140153d30     libifcoremt:for_f90str.obj
 0002:00009d40       mask.4276.0.0.5            0000000140153d40     libifcoremt:for_f90str.obj
 0002:00009d50       mask.4314.0.0.6            0000000140153d50     libifcoremt:for_f90str.obj
 0002:00009d60       mask.4359.0.0.7            0000000140153d60     libifcoremt:for_f90str.obj
 0002:00009d70       Eqres.4404.0.8             0000000140153d70     libifcoremt:for_f90str.obj
 0002:00009d80       .2.26_2.switchtab.5        0000000140153d80     libifcoremt:for_f90str.obj
 0002:00009db0       _2il0floatpacket.0         0000000140153db0     libifcoremt:for_90_adjust.obj
 0002:00009dc0       .2.5_2.switchtab.11        0000000140153dc0     libifcoremt:for_rint_fmt.obj
 0002:00009dc8       .2.5_2.switchtab.12        0000000140153dc8     libifcoremt:for_rint_fmt.obj
 0002:00009dd0       .2.5_2.switchtab.13        0000000140153dd0     libifcoremt:for_rint_fmt.obj
 0002:00009dd8       .2.5_2.switchtab.14        0000000140153dd8     libifcoremt:for_rint_fmt.obj
 0002:00009e18       .2.5_2.switchtab.15        0000000140153e18     libifcoremt:for_rint_fmt.obj
 0002:00009e28       .2.6_2.switchtab.3         0000000140153e28     libifcoremt:for_rint_fmt.obj
 0002:00009e30       .2.6_2.switchtab.4         0000000140153e30     libifcoremt:for_rint_fmt.obj
 0002:00009e38       .2.6_2.switchtab.5         0000000140153e38     libifcoremt:for_rint_fmt.obj
 0002:00009e78       .2.6_2.switchtab.6         0000000140153e78     libifcoremt:for_rint_fmt.obj
 0002:00009edc       .2.13_2.switchtab.10       0000000140153edc     libifcoremt:for_rint_lis.obj
 0002:00009ee4       .2.13_2.switchtab.11       0000000140153ee4     libifcoremt:for_rint_lis.obj
 0002:00009eec       .2.13_2.switchtab.12       0000000140153eec     libifcoremt:for_rint_lis.obj
 0002:00009f54       .2.13_2.switchtab.13       0000000140153f54     libifcoremt:for_rint_lis.obj
 0002:00009f5c       .2.14_2.switchtab.3        0000000140153f5c     libifcoremt:for_rint_lis.obj
 0002:00009f64       .2.14_2.switchtab.4        0000000140153f64     libifcoremt:for_rint_lis.obj
 0002:00009f6c       .2.14_2.switchtab.5        0000000140153f6c     libifcoremt:for_rint_lis.obj
 0002:00009fd4       .2.14_2.switchtab.6        0000000140153fd4     libifcoremt:for_rint_lis.obj
 0002:00009fdc       .2.15_2.switchtab.4        0000000140153fdc     libifcoremt:for_rint_lis.obj
 0002:00009fec       .2.16_2.switchtab.4        0000000140153fec     libifcoremt:for_rint_lis.obj
 0002:0000a094       .2.17_2.switchtab.7        0000000140154094     libifcoremt:for_rint_lis.obj
 0002:0000a13c       .2.17_2.switchtab.8        000000014015413c     libifcoremt:for_rint_lis.obj
 0002:0000a1e0       .2.17_2.switchtab.9        00000001401541e0     libifcoremt:for_rint_lis.obj
 0002:0000a240       _2il0floatpacket.33        0000000140154240     libifcoremt:for_wseq_lis.obj
 0002:0000a250       _2il0floatpacket.34        0000000140154250     libifcoremt:for_wseq_lis.obj
 0002:0000a260       .2.14_2.switchtab.13       0000000140154260     libifcoremt:for_wseq_lis.obj
 0002:0000a26c       .2.15_2.switchtab.7        000000014015426c     libifcoremt:for_wseq_lis.obj
 0002:0000a274       .2.15_2.switchtab.8        0000000140154274     libifcoremt:for_wseq_lis.obj
 0002:0000a27c       .2.15_2.switchtab.9        000000014015427c     libifcoremt:for_wseq_lis.obj
 0002:0000a2e4       .2.15_2.switchtab.10       00000001401542e4     libifcoremt:for_wseq_lis.obj
 0002:0000a2f8       .2.15_2.switchtab.11       00000001401542f8     libifcoremt:for_wseq_lis.obj
 0002:0000a30c       .2.15_2.switchtab.12       000000014015430c     libifcoremt:for_wseq_lis.obj
 0002:0000a320       .2.15_2.switchtab.13       0000000140154320     libifcoremt:for_wseq_lis.obj
 0002:0000a32c       .2.15_2.switchtab.14       000000014015432c     libifcoremt:for_wseq_lis.obj
 0002:0000a340       .2.15_2.switchtab.15       0000000140154340     libifcoremt:for_wseq_lis.obj
 0002:0000a354       .2.15_2.switchtab.16       0000000140154354     libifcoremt:for_wseq_lis.obj
 0002:0000a368       .2.15_2.switchtab.17       0000000140154368     libifcoremt:for_wseq_lis.obj
 0002:0000a370       .2.16_2.switchtab.4        0000000140154370     libifcoremt:for_wseq_lis.obj
 0002:0000a37c       .2.16_2.switchtab.5        000000014015437c     libifcoremt:for_wseq_lis.obj
 0002:0000a388       .2.16_2.switchtab.6        0000000140154388     libifcoremt:for_wseq_lis.obj
 0002:0000a3b0       _2il0floatpacket.5         00000001401543b0     libifcoremt:for_secnds.obj
 0002:0000a3c0       _2il0floatpacket.6         00000001401543c0     libifcoremt:for_secnds.obj
 0002:0000a3d0       _2il0floatpacket.9         00000001401543d0     libifcoremt:for_secnds.obj
 0002:0000a3e0       _2il0floatpacket.2         00000001401543e0     libifcoremt:for_secnds.obj
 0002:0000a3e8       _2il0floatpacket.4         00000001401543e8     libifcoremt:for_secnds.obj
 0002:0000a3f0       _2il0floatpacket.7         00000001401543f0     libifcoremt:for_secnds.obj
 0002:0000a3f8       _2il0floatpacket.8         00000001401543f8     libifcoremt:for_secnds.obj
 0002:0000a400       _2il0floatpacket.10        0000000140154400     libifcoremt:for_secnds.obj
 0002:0000a408       _2il0floatpacket.11        0000000140154408     libifcoremt:for_secnds.obj
 0002:0000a410       _2il0floatpacket.3         0000000140154410     libifcoremt:for_secnds.obj
 0002:0000a414       _2il0floatpacket.12        0000000140154414     libifcoremt:for_secnds.obj
 0002:0000a420       .2.11_2.switchtab.20       0000000140154420     libifcoremt:for_wseq_fmt.obj
 0002:0000a428       .2.11_2.switchtab.21       0000000140154428     libifcoremt:for_wseq_fmt.obj
 0002:0000a434       .2.12_2.switchtab.3        0000000140154434     libifcoremt:for_wseq_fmt.obj
 0002:0000a43c       .2.12_2.switchtab.4        000000014015443c     libifcoremt:for_wseq_fmt.obj
 0002:0000a444       .2.12_2.switchtab.5        0000000140154444     libifcoremt:for_wseq_fmt.obj
 0002:0000a488       .2.12_2.switchtab.6        0000000140154488     libifcoremt:for_wseq_fmt.obj
 0002:0000a49c       .2.12_2.switchtab.7        000000014015449c     libifcoremt:for_wseq_fmt.obj
 0002:0000a4d0       _2il0floatpacket.7         00000001401544d0     libifcoremt:for_inquire.obj
 0002:0000a4e0       .2.3_2.switchtab.9         00000001401544e0     libifcoremt:for_inquire.obj
 0002:0000a4f0       .2.3_2.switchtab.10        00000001401544f0     libifcoremt:for_inquire.obj
 0002:0000a500       .2.3_2.switchtab.11        0000000140154500     libifcoremt:for_inquire.obj
 0002:0000a514       .2.3_2.switchtab.12        0000000140154514     libifcoremt:for_inquire.obj
 0002:0000a524       .2.3_2.switchtab.13        0000000140154524     libifcoremt:for_inquire.obj
 0002:0000a540       .2.3_2.switchtab.14        0000000140154540     libifcoremt:for_inquire.obj
 0002:0000a550       .2.3_2.switchtab.15        0000000140154550     libifcoremt:for_inquire.obj
 0002:0000a56c       .2.3_2.switchtab.16        000000014015456c     libifcoremt:for_inquire.obj
 0002:0000a588       .2.3_2.switchtab.17        0000000140154588     libifcoremt:for_inquire.obj
 0002:0000a598       .2.3_2.switchtab.18        0000000140154598     libifcoremt:for_inquire.obj
 0002:0000a5a8       .2.3_2.switchtab.19        00000001401545a8     libifcoremt:for_inquire.obj
 0002:0000a5c4       .2.3_2.switchtab.20        00000001401545c4     libifcoremt:for_inquire.obj
 0002:0000a600       _2il0floatpacket.39        0000000140154600     libifcoremt:for_rseq_lis.obj
 0002:0000a610       _2il0floatpacket.40        0000000140154610     libifcoremt:for_rseq_lis.obj
 0002:0000a620       .2.22_2.switchtab.5        0000000140154620     libifcoremt:for_rseq_lis.obj
 0002:0000a628       .2.22_2.switchtab.6        0000000140154628     libifcoremt:for_rseq_lis.obj
 0002:0000a630       .2.22_2.switchtab.7        0000000140154630     libifcoremt:for_rseq_lis.obj
 0002:0000a698       .2.22_2.switchtab.8        0000000140154698     libifcoremt:for_rseq_lis.obj
 0002:0000a6a0       .2.24_2.switchtab.4        00000001401546a0     libifcoremt:for_rseq_lis.obj
 0002:0000a6b0       .2.25_2.switchtab.4        00000001401546b0     libifcoremt:for_rseq_lis.obj
 0002:0000a758       .2.26_2.switchtab.7        0000000140154758     libifcoremt:for_rseq_lis.obj
 0002:0000a7fc       .2.26_2.switchtab.8        00000001401547fc     libifcoremt:for_rseq_lis.obj
 0002:0000a818       .2.26_2.switchtab.9        0000000140154818     libifcoremt:for_rseq_lis.obj
 0002:0000a8e0       .2.9_2.switchtab.28        00000001401548e0     libifcoremt:for_stop.obj
 0002:0000a8ec       .2.9_2.switchtab.29        00000001401548ec     libifcoremt:for_stop.obj
 0002:0000a8f4       .2.10_2.switchtab.6        00000001401548f4     libifcoremt:for_stop.obj
 0002:0000a900       .2.10_2.switchtab.7        0000000140154900     libifcoremt:for_stop.obj
 0002:0000a908       .2.11_2.switchtab.21       0000000140154908     libifcoremt:for_stop.obj
 0002:0000a914       .2.11_2.switchtab.22       0000000140154914     libifcoremt:for_stop.obj
 0002:0000a91c       .2.12_2.switchtab.28       000000014015491c     libifcoremt:for_stop.obj
 0002:0000a928       .2.12_2.switchtab.29       0000000140154928     libifcoremt:for_stop.obj
 0002:0000a958       _2il0floatpacket.4         0000000140154958     libifcoremt:for_mi_int.obj
 0002:0000a960       _2il0floatpacket.5         0000000140154960     libifcoremt:for_mi_int.obj
 0002:0000a968       _2il0floatpacket.6         0000000140154968     libifcoremt:for_mi_int.obj
 0002:0000a970       _2il0floatpacket.7         0000000140154970     libifcoremt:for_mi_int.obj
 0002:0000a978       _2il0floatpacket.0         0000000140154978     libifcoremt:for_mi_int.obj
 0002:0000a97c       _2il0floatpacket.1         000000014015497c     libifcoremt:for_mi_int.obj
 0002:0000a980       _2il0floatpacket.2         0000000140154980     libifcoremt:for_mi_int.obj
 0002:0000a984       _2il0floatpacket.3         0000000140154984     libifcoremt:for_mi_int.obj
 0002:0000a988       .2.5_2.switchtab.11        0000000140154988     libifcoremt:for_wint_fmt.obj
 0002:0000a990       .2.5_2.switchtab.12        0000000140154990     libifcoremt:for_wint_fmt.obj
 0002:0000a998       .2.5_2.switchtab.13        0000000140154998     libifcoremt:for_wint_fmt.obj
 0002:0000a9a0       .2.5_2.switchtab.14        00000001401549a0     libifcoremt:for_wint_fmt.obj
 0002:0000a9e4       .2.6_2.switchtab.3         00000001401549e4     libifcoremt:for_wint_fmt.obj
 0002:0000a9ec       .2.6_2.switchtab.4         00000001401549ec     libifcoremt:for_wint_fmt.obj
 0002:0000a9f4       .2.6_2.switchtab.5         00000001401549f4     libifcoremt:for_wint_fmt.obj
 0002:0000aa90       _2il0floatpacket.7         0000000140154a90     libifcoremt:for_backspace.obj
 0002:0000aaa0       .2.7_2.switchtab.113       0000000140154aa0     libifcoremt:for_backspace.obj
 0002:0000aab0       .2.7_2.switchtab.114       0000000140154ab0     libifcoremt:for_backspace.obj
 0002:0000aad0       _2il0floatpacket.30        0000000140154ad0     libifcoremt:for_wint_lis.obj
 0002:0000aae0       .2.7_2.switchtab.18        0000000140154ae0     libifcoremt:for_wint_lis.obj
 0002:0000aae8       .2.7_2.switchtab.19        0000000140154ae8     libifcoremt:for_wint_lis.obj
 0002:0000aaf0       .2.7_2.switchtab.20        0000000140154af0     libifcoremt:for_wint_lis.obj
 0002:0000ab58       .2.7_2.switchtab.21        0000000140154b58     libifcoremt:for_wint_lis.obj
 0002:0000ab60       .2.8_2.switchtab.11        0000000140154b60     libifcoremt:for_wint_lis.obj
 0002:0000ab68       .2.8_2.switchtab.12        0000000140154b68     libifcoremt:for_wint_lis.obj
 0002:0000ab70       .2.8_2.switchtab.13        0000000140154b70     libifcoremt:for_wint_lis.obj
 0002:0000abd8       .2.8_2.switchtab.14        0000000140154bd8     libifcoremt:for_wint_lis.obj
 0002:0000ac10       _2il0floatpacket.0         0000000140154c10     libifcoremt:for_getarg.obj
 0002:0000ac20       .2.12_2.switchtab.3        0000000140154c20     libifcoremt:for_rseq.obj
 0002:0000ac28       .2.12_2.switchtab.4        0000000140154c28     libifcoremt:for_rseq.obj
 0002:0000ac3c       lf_units.4423.0.6          0000000140154c3c     libifcoremt:for_diags_intel.obj
 0002:0000ac4c       .2.7_2.switchtab.3.0.7     0000000140154c4c     libifcoremt:for_diags_intel.obj
 0002:000107e0       .2.9_2.switchtab.4         000000014015a7e0     libifcoremt:for_desc_item.obj
 0002:000107f8       .2.10_2.switchtab.13       000000014015a7f8     libifcoremt:for_desc_item.obj
 0002:00010810       .2.11_2.switchtab.19       000000014015a810     libifcoremt:for_desc_item.obj
 0002:0001081c       .2.12_2.switchtab.13       000000014015a81c     libifcoremt:for_desc_item.obj
 0002:00010844       .2.38_2.switchtab.2        000000014015a844     libifcoremt:for_lub_mgt.obj
 0002:000108a0       .2.38_2.switchtab.3        000000014015a8a0     libifcoremt:for_lub_mgt.obj
 0002:00010930       _2il0floatpacket.4         000000014015a930     libifcoremt:for_nt_open_proc.obj
 0002:00010940       .2.17_2.switchtab.10       000000014015a940     libifcoremt:for_nt_open_proc.obj
 0002:00010958       .2.17_2.switchtab.11       000000014015a958     libifcoremt:for_nt_open_proc.obj
 0002:00010964       .2.18_2.switchtab.156      000000014015a964     libifcoremt:for_nt_open_proc.obj
 0002:0001096c       .2.18_2.switchtab.157      000000014015a96c     libifcoremt:for_nt_open_proc.obj
 0002:00010978       .2.18_2.switchtab.158      000000014015a978     libifcoremt:for_nt_open_proc.obj
 0002:00010988       .2.18_2.switchtab.159      000000014015a988     libifcoremt:for_nt_open_proc.obj
 0002:00010994       .2.18_2.switchtab.160      000000014015a994     libifcoremt:for_nt_open_proc.obj
 0002:0001099c       .2.18_2.switchtab.161      000000014015a99c     libifcoremt:for_nt_open_proc.obj
 0002:000109a4       .2.18_2.switchtab.162      000000014015a9a4     libifcoremt:for_nt_open_proc.obj
 0002:000109b4       .2.18_2.switchtab.163      000000014015a9b4     libifcoremt:for_nt_open_proc.obj
 0002:000109dc       .2.19_2.switchtab.16       000000014015a9dc     libifcoremt:for_nt_open_proc.obj
 0002:000109f4       .2.19_2.switchtab.17       000000014015a9f4     libifcoremt:for_nt_open_proc.obj
 0002:00010a08       .2.19_2.switchtab.18       000000014015aa08     libifcoremt:for_nt_open_proc.obj
 0002:00010b60       class_table                000000014015ab60     libifcoremt:for_fmt_comp.obj
 0002:00010bc0       fmt_check                  000000014015abc0     libifcoremt:for_fmt_comp.obj
 0002:00010cb0       _2il0floatpacket.5         000000014015acb0     libifcoremt:for_fmt_comp.obj
 0002:00010cc0       _2il0floatpacket.6         000000014015acc0     libifcoremt:for_fmt_comp.obj
 0002:00010ce0       .2.7_2.switchtab.3         000000014015ace0     libifcoremt:for_fmt_comp.obj
 0002:00010d34       .2.7_2.switchtab.4         000000014015ad34     libifcoremt:for_fmt_comp.obj
 0002:00010d5c       .2.16_2.switchtab.201      000000014015ad5c     libifcoremt:for_get.obj
 0002:00010d80       fmt_cat                    000000014015ad80     libifcoremt:for_intrp_fmt.obj
 0002:000114a0       coerce_integer_to_float    000000014015b4a0     libifcoremt:for_intrp_fmt.obj
 0002:00011500       coerce_floating_to_integer 000000014015b500     libifcoremt:for_intrp_fmt.obj
 0002:00011560       .2.5_2.switchtab.33        000000014015b560     libifcoremt:for_intrp_fmt.obj
 0002:0001156c       .2.5_2.switchtab.34        000000014015b56c     libifcoremt:for_intrp_fmt.obj
 0002:00011680       forfloat_to_cvtfloat       000000014015b680     libifcoremt:for_io_util.obj
 0002:00011700       cvt_read_routine           000000014015b700     libifcoremt:for_io_util.obj
 0002:000118a0       cvt_write_routine          000000014015b8a0     libifcoremt:for_io_util.obj
 0002:00011a50       extended_options.4820.0.0.5 000000014015ba50     libifcoremt:for_fmt_val.obj
 0002:00011a60       extended_options.4985.0.0.6 000000014015ba60     libifcoremt:for_fmt_val.obj
 0002:00011a70       .2.13_2.switchtab.3        000000014015ba70     libifcoremt:for_fmt_val.obj
 0002:00011abc       .2.13_2.switchtab.4        000000014015babc     libifcoremt:for_fmt_val.obj
 0002:00011b24       .2.13_2.switchtab.5        000000014015bb24     libifcoremt:for_fmt_val.obj
 0002:00011b8c       .2.13_2.switchtab.6        000000014015bb8c     libifcoremt:for_fmt_val.obj
 0002:00011bf4       .2.13_2.switchtab.7        000000014015bbf4     libifcoremt:for_fmt_val.obj
 0002:00011c10       .2.13_2.switchtab.8        000000014015bc10     libifcoremt:for_fmt_val.obj
 0002:00011c20       .2.13_2.switchtab.9        000000014015bc20     libifcoremt:for_fmt_val.obj
 0002:00011c58       .2.13_2.switchtab.10       000000014015bc58     libifcoremt:for_fmt_val.obj
 0002:00011c90       .2.13_2.switchtab.11       000000014015bc90     libifcoremt:for_fmt_val.obj
 0002:00011cc8       .2.14_2.switchtab.81       000000014015bcc8     libifcoremt:for_fmt_val.obj
 0002:00011d0c       .2.14_2.switchtab.82       000000014015bd0c     libifcoremt:for_fmt_val.obj
 0002:00011d74       .2.14_2.switchtab.83       000000014015bd74     libifcoremt:for_fmt_val.obj
 0002:00011ddc       .2.14_2.switchtab.84       000000014015bddc     libifcoremt:for_fmt_val.obj
 0002:00011e44       .2.14_2.switchtab.85       000000014015be44     libifcoremt:for_fmt_val.obj
 0002:00011e60       .2.14_2.switchtab.86       000000014015be60     libifcoremt:for_fmt_val.obj
 0002:00011e70       .2.14_2.switchtab.87       000000014015be70     libifcoremt:for_fmt_val.obj
 0002:00011eb0       _2il0floatpacket.9         000000014015beb0     libifcoremt:for_udio.obj
 0002:00011eec       .2.15_2.switchtab.1        000000014015beec     libifcoremt:for_put.obj
 0002:00011f00       .2.17_2.switchtab.11       000000014015bf00     libifcoremt:for_put.obj
 0002:00011f20       .2.21_2.switchtab.15       000000014015bf20     libifcoremt:for_wseq.obj
 0002:00011f28       .2.22_2.switchtab.23       000000014015bf28     libifcoremt:for_wseq.obj
 0002:00011f30       .2.22_2.switchtab.24       000000014015bf30     libifcoremt:for_wseq.obj
 0002:00011f38       .2.22_2.switchtab.25       000000014015bf38     libifcoremt:for_wseq.obj
 0002:00011f40       .2.22_2.switchtab.26       000000014015bf40     libifcoremt:for_wseq.obj
 0002:00011f54       .2.22_2.switchtab.27       000000014015bf54     libifcoremt:for_wseq.obj
 0002:00011f64       .2.22_2.switchtab.28       000000014015bf64     libifcoremt:for_wseq.obj
 0002:00011f74       .2.22_2.switchtab.29       000000014015bf74     libifcoremt:for_wseq.obj
 0002:00011f7c       .2.24_2.switchtab.15       000000014015bf7c     libifcoremt:for_wseq.obj
 0002:00011f8c       .2.25_2.switchtab.1        000000014015bf8c     libifcoremt:for_wseq.obj
 0002:00011f94       .2.25_2.switchtab.2        000000014015bf94     libifcoremt:for_wseq.obj
 0002:00012200       mask.4742.0.2              000000014015c200     libifcoremt:for_need_lf.obj
 0002:00012270       .2.40_2.switchtab.17       000000014015c270     libifcoremt:for_init.obj
 0002:000122bc       .2.40_2.switchtab.18       000000014015c2bc     libifcoremt:for_init.obj
 0002:000123a0       .2.40_2.switchtab.19       000000014015c3a0     libifcoremt:for_init.obj
 0002:000124e0       _2il0floatpacket.0         000000014015c4e0     libifcoremt:for_common_inquire.obj
 0002:000124f0       .2.5_2.switchtab.3         000000014015c4f0     libifcoremt:for_common_inquire.obj
 0002:00012500       .2.5_2.switchtab.4         000000014015c500     libifcoremt:for_common_inquire.obj
 0002:00012510       .2.5_2.switchtab.5         000000014015c510     libifcoremt:for_common_inquire.obj
 0002:00012520       .2.5_2.switchtab.6         000000014015c520     libifcoremt:for_common_inquire.obj
 0002:00012530       .2.5_2.switchtab.7         000000014015c530     libifcoremt:for_common_inquire.obj
 0002:00012540       .2.5_2.switchtab.8         000000014015c540     libifcoremt:for_common_inquire.obj
 0002:00012550       .2.5_2.switchtab.9         000000014015c550     libifcoremt:for_common_inquire.obj
 0002:00012560       .2.6_2.switchtab.4         000000014015c560     libifcoremt:for_common_inquire.obj
 0002:00012628       for__default_name_str      000000014015c628     libifcoremt:for_close_proc.obj
 0002:00012634       .2.7_2.switchtab.10        000000014015c634     libifcoremt:for_close_proc.obj
 0002:00012c90       .2.39_2.switchtab.2        000000014015cc90     libifcoremt:for_portlib.obj
 0002:00012c9c       .2.39_2.switchtab.3        000000014015cc9c     libifcoremt:for_portlib.obj
 0002:00012ca8       .2.39_2.switchtab.4        000000014015cca8     libifcoremt:for_portlib.obj
 0002:00012cb0       .2.39_2.switchtab.5        000000014015ccb0     libifcoremt:for_portlib.obj
 0002:00012cd0       cvt_uint64_max             000000014015ccd0     libifcoremt:cvt_text_to_int.obj
 0002:00012cd8       cvt_int64_max              000000014015ccd8     libifcoremt:cvt_text_to_int.obj
 0002:00012ce0       .2.19_2.switchtab.9        000000014015cce0     libifcoremt:cvt_ieee_single.obj
 0002:00012d04       .2.20_2.switchtab.9        000000014015cd04     libifcoremt:cvt_ieee_single.obj
 0002:00012d28       .2.21_2.switchtab.3        000000014015cd28     libifcoremt:cvt_ieee_single.obj
 0002:00012d4c       .2.22_2.switchtab.9        000000014015cd4c     libifcoremt:cvt_ieee_single.obj
 0002:00012d70       .2.23_2.switchtab.9        000000014015cd70     libifcoremt:cvt_ieee_single.obj
 0002:00012d94       .2.24_2.switchtab.3        000000014015cd94     libifcoremt:cvt_ieee_single.obj
 0002:00012db8       .2.25_2.switchtab.9        000000014015cdb8     libifcoremt:cvt_ieee_single.obj
 0002:00012ddc       .2.26_2.switchtab.9        000000014015cddc     libifcoremt:cvt_ieee_single.obj
 0002:00012e00       .2.27_2.switchtab.3        000000014015ce00     libifcoremt:cvt_ieee_single.obj
 0002:00012e24       .2.31_2.switchtab.9        000000014015ce24     libifcoremt:cvt_ieee_double.obj
 0002:00012e48       .2.32_2.switchtab.9        000000014015ce48     libifcoremt:cvt_ieee_double.obj
 0002:00012e6c       .2.33_2.switchtab.3        000000014015ce6c     libifcoremt:cvt_ieee_double.obj
 0002:00012e90       .2.34_2.switchtab.9        000000014015ce90     libifcoremt:cvt_ieee_double.obj
 0002:00012eb4       .2.35_2.switchtab.9        000000014015ceb4     libifcoremt:cvt_ieee_double.obj
 0002:00012ed8       .2.36_2.switchtab.3        000000014015ced8     libifcoremt:cvt_ieee_double.obj
 0002:00012efc       .2.37_2.switchtab.9        000000014015cefc     libifcoremt:cvt_ieee_double.obj
 0002:00012f20       .2.38_2.switchtab.9        000000014015cf20     libifcoremt:cvt_ieee_double.obj
 0002:00012f44       .2.39_2.switchtab.3        000000014015cf44     libifcoremt:cvt_ieee_double.obj
 0002:00012f68       .2.40_2.switchtab.9        000000014015cf68     libifcoremt:cvt_ieee_double.obj
 0002:00012f8c       .2.41_2.switchtab.9        000000014015cf8c     libifcoremt:cvt_ieee_double.obj
 0002:00012fb0       .2.42_2.switchtab.3        000000014015cfb0     libifcoremt:cvt_ieee_double.obj
 0002:00012fd4       .2.43_2.switchtab.11       000000014015cfd4     libifcoremt:cvt_ieee_double.obj
 0002:00012ff8       .2.44_2.switchtab.11       000000014015cff8     libifcoremt:cvt_ieee_double.obj
 0002:0001301c       .2.45_2.switchtab.5        000000014015d01c     libifcoremt:cvt_ieee_double.obj
 0002:00013040       .2.7_2.switchtab.9         000000014015d040     libifcoremt:cvt_vax_f.obj
 0002:00013064       .2.8_2.switchtab.9         000000014015d064     libifcoremt:cvt_vax_f.obj
 0002:00013088       .2.9_2.switchtab.3         000000014015d088     libifcoremt:cvt_vax_f.obj
 0002:000130ac       .2.7_2.switchtab.9         000000014015d0ac     libifcoremt:cvt_ibm_short.obj
 0002:000130d0       .2.8_2.switchtab.9         000000014015d0d0     libifcoremt:cvt_ibm_short.obj
 0002:000130f4       .2.9_2.switchtab.3         000000014015d0f4     libifcoremt:cvt_ibm_short.obj
 0002:00013118       .2.7_2.switchtab.9         000000014015d118     libifcoremt:cvt_vax_g.obj
 0002:0001313c       .2.8_2.switchtab.9         000000014015d13c     libifcoremt:cvt_vax_g.obj
 0002:00013160       .2.9_2.switchtab.3         000000014015d160     libifcoremt:cvt_vax_g.obj
 0002:00013184       .2.7_2.switchtab.9         000000014015d184     libifcoremt:cvt_vax_d.obj
 0002:000131a8       .2.8_2.switchtab.9         000000014015d1a8     libifcoremt:cvt_vax_d.obj
 0002:000131cc       .2.9_2.switchtab.3         000000014015d1cc     libifcoremt:cvt_vax_d.obj
 0002:000131f0       .2.7_2.switchtab.9         000000014015d1f0     libifcoremt:cvt_ibm_long.obj
 0002:00013214       .2.8_2.switchtab.9         000000014015d214     libifcoremt:cvt_ibm_long.obj
 0002:00013238       .2.9_2.switchtab.3         000000014015d238     libifcoremt:cvt_ibm_long.obj
 0002:0001325c       .2.13_2.switchtab.9        000000014015d25c     libifcoremt:cvt_cray.obj
 0002:00013280       .2.14_2.switchtab.9        000000014015d280     libifcoremt:cvt_cray.obj
 0002:000132a4       .2.15_2.switchtab.3        000000014015d2a4     libifcoremt:cvt_cray.obj
 0002:000132c8       .2.16_2.switchtab.9        000000014015d2c8     libifcoremt:cvt_cray.obj
 0002:000132ec       .2.17_2.switchtab.9        000000014015d2ec     libifcoremt:cvt_cray.obj
 0002:00013310       .2.18_2.switchtab.3        000000014015d310     libifcoremt:cvt_cray.obj
 0002:00013340       _2il0floatpacket.0         000000014015d340     libifcoremt:cvt_data_to_text.obj
 0002:00013350       _2il0floatpacket.1         000000014015d350     libifcoremt:cvt_data_to_text.obj
 0002:00013380       _2il0floatpacket.0         000000014015d380     libifcoremt:cvt_int_to_text.obj
 0002:00013390       _2il0floatpacket.1         000000014015d390     libifcoremt:cvt_int_to_text.obj
 0002:000133a0       extended_options.183.0.0.1 000000014015d3a0     libifcoremt:cvt_log_to_text.obj
 0002:000133b0       _2il0floatpacket.0         000000014015d3b0     libifcoremt:cvt_log_to_text.obj
 0002:000133c0       extended_options.731.0.0.5 000000014015d3c0     libifcoremt:cvt_cvtas_x.obj
 0002:000133d0       extended_options.726.0.0.5 000000014015d3d0     libifcoremt:cvt_cvtas_t.obj
 0002:000133e0       extended_options.726.0.0.5 000000014015d3e0     libifcoremt:cvt_cvtas_s.obj
 0002:00013600       _2il0floatpacket.8         000000014015d600     libifcoremt:cvtas_x_to_a.obj
 0002:00013610       .2.3_2.switchtab.22        000000014015d610     libifcoremt:cvtas_x_to_a.obj
 0002:00013618       .2.3_2.switchtab.23        000000014015d618     libifcoremt:cvtas_x_to_a.obj
 0002:00013634       .2.3_2.switchtab.11        000000014015d634     libifcoremt:cvtas_a_to_x.obj
 0002:000136d0       .2.3_2.switchtab.12        000000014015d6d0     libifcoremt:cvtas_a_to_x.obj
 0002:000136d8       .2.3_2.switchtab.13        000000014015d6d8     libifcoremt:cvtas_a_to_x.obj
 0002:000136e0       .2.3_2.switchtab.14        000000014015d6e0     libifcoremt:cvtas_a_to_x.obj
 0002:00013720       _2il0floatpacket.8         000000014015d720     libifcoremt:cvtas_t_to_a.obj
 0002:00013730       .2.3_2.switchtab.17        000000014015d730     libifcoremt:cvtas_t_to_a.obj
 0002:00013738       .2.3_2.switchtab.18        000000014015d738     libifcoremt:cvtas_t_to_a.obj
 0002:00013740       _2il0floatpacket.9         000000014015d740     libifcoremt:cvtas_a_to_t.obj
 0002:00013750       .2.3_2.switchtab.11        000000014015d750     libifcoremt:cvtas_a_to_t.obj
 0002:000137ec       .2.3_2.switchtab.12        000000014015d7ec     libifcoremt:cvtas_a_to_t.obj
 0002:00013830       _2il0floatpacket.8         000000014015d830     libifcoremt:cvtas_s_to_a.obj
 0002:00013840       .2.3_2.switchtab.17        000000014015d840     libifcoremt:cvtas_s_to_a.obj
 0002:00013848       .2.3_2.switchtab.18        000000014015d848     libifcoremt:cvtas_s_to_a.obj
 0002:00013850       _2il0floatpacket.2         000000014015d850     libifcoremt:cvtas_a_to_s.obj
 0002:00013860       .2.3_2.switchtab.11        000000014015d860     libifcoremt:cvtas_a_to_s.obj
 0002:000138fc       .2.3_2.switchtab.12        000000014015d8fc     libifcoremt:cvtas_a_to_s.obj
 0002:00014aa0       __libm_fmodf_dispatch_table 000000014015eaa0     libmmt:fmodf_iface_disp.obj
 0002:00014b20       __libm_expf_dispatch_table 000000014015eb20     libmmt:expf_iface_disp.obj
 0002:00014ba0       __libm_logf_dispatch_table 000000014015eba0     libmmt:logf_iface_disp.obj
 0002:00014c20       __libm_cosf_dispatch_table 000000014015ec20     libmmt:cosf_iface_disp.obj
 0002:00014ca0       __libm_log10f_dispatch_table 000000014015eca0     libmmt:log10f_iface_disp.obj
 0002:00014d20       __libm_sinf_dispatch_table 000000014015ed20     libmmt:sinf_iface_disp.obj
 0002:00014da0       __libm_tanf_dispatch_table 000000014015eda0     libmmt:tanf_iface_disp.obj
 0002:00014e20       __libm_asinf_dispatch_table 000000014015ee20     libmmt:asinf_iface_disp.obj
 0002:00014ea0       __libm_acosf_dispatch_table 000000014015eea0     libmmt:acosf_iface_disp.obj
 0002:00014f20       __libm_atan2f_dispatch_table 000000014015ef20     libmmt:atan2f_iface_disp.obj
 0002:00014fa0       __libm_trunc_dispatch_table 000000014015efa0     libmmt:trunc_iface_disp.obj
 0002:00015020       __libm_lroundf_dispatch_table 000000014015f020     libmmt:lroundf_iface_disp.obj
 0002:000150a0       __libm_llroundf_dispatch_table 000000014015f0a0     libmmt:llroundf_iface_disp.obj
 0002:00015120       __libm_lround_dispatch_table 000000014015f120     libmmt:lround_iface_disp.obj
 0002:000151a0       __libm_llround_dispatch_table 000000014015f1a0     libmmt:llround_iface_disp.obj
 0002:00015220       Th                         000000014015f220     libmmt:expf_gen.obj
 0002:00015a20       LOW_FLOAT_MASK             000000014015fa20     libmmt:expf_gen.obj
 0002:00015a28       log2e                      000000014015fa28     libmmt:expf_gen.obj
 0002:00015a30       c2                         000000014015fa30     libmmt:expf_gen.obj
 0002:00015a40       Th                         000000014015fa40     libmmt:expf_ct.obj
 0002:00016240       LOW_FLOAT_MASK             0000000140160240     libmmt:expf_ct.obj
 0002:00016248       log2e                      0000000140160248     libmmt:expf_ct.obj
 0002:00016250       c2                         0000000140160250     libmmt:expf_ct.obj
 0002:00016260       _2il0floatpacket.0         0000000140160260     libmmt:expf_avx2.obj
 0002:00016268       _2il0floatpacket.1         0000000140160268     libmmt:expf_avx2.obj
 0002:00016270       _2il0floatpacket.2         0000000140160270     libmmt:expf_avx2.obj
 0002:00016278       _2il0floatpacket.3         0000000140160278     libmmt:expf_avx2.obj
 0002:00016280       _2il0floatpacket.1         0000000140160280     libmmt:logf_gen.obj
 0002:00016288       _2il0floatpacket.0         0000000140160288     libmmt:logf_gen.obj
 0002:0001628c       _2il0floatpacket.2         000000014016028c     libmmt:logf_gen.obj
 0002:00016290       _2il0floatpacket.3         0000000140160290     libmmt:logf_gen.obj
 0002:00016294       _Q                         0000000140160294     libmmt:logf_gen.obj
 0002:000162bc       _LN2                       00000001401602bc     libmmt:logf_gen.obj
 0002:000162c4       _P                         00000001401602c4     libmmt:logf_gen.obj
 0002:000162e0       Lf_table                   00000001401602e0     libmmt:logf_ct.obj
 0002:00016b00       __L_tbl                    0000000140160b00     libmmt:logf_avx2.obj
 0002:00017d00       _2il0floatpacket.0         0000000140161d00     libmmt:logf_avx2.obj
 0002:00017d10       _2il0floatpacket.1         0000000140161d10     libmmt:logf_avx2.obj
 0002:00017d20       _2il0floatpacket.2         0000000140161d20     libmmt:logf_avx2.obj
 0002:00017d30       c3                         0000000140161d30     libmmt:logf_avx2.obj
 0002:00017d38       c2                         0000000140161d38     libmmt:logf_avx2.obj
 0002:00017d40       NLOG2                      0000000140161d40     libmmt:logf_avx2.obj
 0002:00017d48       ZERO                       0000000140161d48     libmmt:logf_avx2.obj
 0002:00017d4c       SCALE32                    0000000140161d4c     libmmt:logf_avx2.obj
 0002:00017d60       Ctable                     0000000140161d60     libmmt:cosf_gen.obj
 0002:00018180       Pitable                    0000000140162180     libmmt:cosf_gen.obj
 0002:00018280       Ctable                     0000000140162280     libmmt:cosf_ct.obj
 0002:000186a0       Pitable                    00000001401626a0     libmmt:cosf_ct.obj
 0002:000187a0       _2il0floatpacket.0         00000001401627a0     libmmt:cosf_avx2.obj
 0002:000187a8       _2il0floatpacket.1         00000001401627a8     libmmt:cosf_avx2.obj
 0002:000187b0       _2il0floatpacket.2         00000001401627b0     libmmt:cosf_avx2.obj
 0002:000187b8       _2il0floatpacket.3         00000001401627b8     libmmt:cosf_avx2.obj
 0002:000187c0       _exact_values              00000001401627c0     libmmt:log10f_gen.obj
 0002:00018820       _2il0floatpacket.2         0000000140162820     libmmt:log10f_gen.obj
 0002:00018828       _2il0floatpacket.0         0000000140162828     libmmt:log10f_gen.obj
 0002:0001882c       _2il0floatpacket.1         000000014016282c     libmmt:log10f_gen.obj
 0002:00018830       _2il0floatpacket.3         0000000140162830     libmmt:log10f_gen.obj
 0002:00018834       _Q                         0000000140162834     libmmt:log10f_gen.obj
 0002:00018864       _LOG102                    0000000140162864     libmmt:log10f_gen.obj
 0002:0001886c       _P                         000000014016286c     libmmt:log10f_gen.obj
 0002:000188a0       Lf_table                   00000001401628a0     libmmt:log10f_ct.obj
 0002:000190c0       _2il0floatpacket.0         00000001401630c0     libmmt:log10f_avx2.obj
 0002:000190d0       _2il0floatpacket.1         00000001401630d0     libmmt:log10f_avx2.obj
 0002:000190e0       _2il0floatpacket.2         00000001401630e0     libmmt:log10f_avx2.obj
 0002:000190f0       _2il0floatpacket.3         00000001401630f0     libmmt:log10f_avx2.obj
 0002:000190f8       c4                         00000001401630f8     libmmt:log10f_avx2.obj
 0002:00019100       c2                         0000000140163100     libmmt:log10f_avx2.obj
 0002:00019108       log10_2                    0000000140163108     libmmt:log10f_avx2.obj
 0002:00019110       c3                         0000000140163110     libmmt:log10f_avx2.obj
 0002:00019118       c1                         0000000140163118     libmmt:log10f_avx2.obj
 0002:00019120       _2il0floatpacket.4         0000000140163120     libmmt:log10f_avx2.obj
 0002:00019124       inf                        0000000140163124     libmmt:log10f_avx2.obj
 0002:00019140       Ctable                     0000000140163140     libmmt:sinf_gen.obj
 0002:00019560       Pitable                    0000000140163560     libmmt:sinf_gen.obj
 0002:00019650       ONE_M230                   0000000140163650     libmmt:sinf_gen.obj
 0002:00019660       Ctable                     0000000140163660     libmmt:sinf_ct.obj
 0002:00019a80       Pitable                    0000000140163a80     libmmt:sinf_ct.obj
 0002:00019b70       ONE_M230                   0000000140163b70     libmmt:sinf_ct.obj
 0002:00019b80       _2il0floatpacket.0         0000000140163b80     libmmt:sinf_avx2.obj
 0002:00019b88       _2il0floatpacket.1         0000000140163b88     libmmt:sinf_avx2.obj
 0002:00019b90       _2il0floatpacket.2         0000000140163b90     libmmt:sinf_avx2.obj
 0002:00019b98       _2il0floatpacket.3         0000000140163b98     libmmt:sinf_avx2.obj
 0002:00019ba0       Ctable                     0000000140163ba0     libmmt:tanf_gen.obj
 0002:0001a4a0       BIT_31                     00000001401644a0     libmmt:tanf_gen.obj
 0002:0001a4b0       PP_1                       00000001401644b0     libmmt:tanf_gen.obj
 0002:0001a4c0       P_1                        00000001401644c0     libmmt:tanf_gen.obj
 0002:0001a4d0       PP_2                       00000001401644d0     libmmt:tanf_gen.obj
 0002:0001a4e0       P_2                        00000001401644e0     libmmt:tanf_gen.obj
 0002:0001a4f0       ONE                        00000001401644f0     libmmt:tanf_gen.obj
 0002:0001a500       ONE_P230                   0000000140164500     libmmt:tanf_gen.obj
 0002:0001a508       PI_32_RECIP                0000000140164508     libmmt:tanf_gen.obj
 0002:0001a510       SHIFTER_16                 0000000140164510     libmmt:tanf_gen.obj
 0002:0001a518       SHIFTER                    0000000140164518     libmmt:tanf_gen.obj
 0002:0001a520       Ctable                     0000000140164520     libmmt:tanf_ct.obj
 0002:0001ae20       Pitable                    0000000140164e20     libmmt:tanf_ct.obj
 0002:0001af10       BIT_31                     0000000140164f10     libmmt:tanf_ct.obj
 0002:0001af20       PP_1                       0000000140164f20     libmmt:tanf_ct.obj
 0002:0001af30       P_1                        0000000140164f30     libmmt:tanf_ct.obj
 0002:0001af40       PP_2                       0000000140164f40     libmmt:tanf_ct.obj
 0002:0001af50       P_2                        0000000140164f50     libmmt:tanf_ct.obj
 0002:0001af60       ONE                        0000000140164f60     libmmt:tanf_ct.obj
 0002:0001af70       ONE_P230                   0000000140164f70     libmmt:tanf_ct.obj
 0002:0001af80       PI_27                      0000000140164f80     libmmt:tanf_ct.obj
 0002:0001af90       HHALF                      0000000140164f90     libmmt:tanf_ct.obj
 0002:0001afa0       PI27_HL                    0000000140164fa0     libmmt:tanf_ct.obj
 0002:0001afb0       PI_32_RECIP                0000000140164fb0     libmmt:tanf_ct.obj
 0002:0001afb8       SHIFTER_16                 0000000140164fb8     libmmt:tanf_ct.obj
 0002:0001afc0       SHIFTER                    0000000140164fc0     libmmt:tanf_ct.obj
 0002:0001afe0       _2il0floatpacket.0         0000000140164fe0     libmmt:tanf_avx2.obj
 0002:0001aff0       _2il0floatpacket.1         0000000140164ff0     libmmt:tanf_avx2.obj
 0002:0001b000       _2il0floatpacket.27        0000000140165000     libmmt:asinf_gen.obj
 0002:0001b010       _2il0floatpacket.29        0000000140165010     libmmt:asinf_gen.obj
 0002:0001b020       _2il0floatpacket.0         0000000140165020     libmmt:asinf_gen.obj
 0002:0001b028       _2il0floatpacket.1         0000000140165028     libmmt:asinf_gen.obj
 0002:0001b030       _2il0floatpacket.2         0000000140165030     libmmt:asinf_gen.obj
 0002:0001b038       _2il0floatpacket.3         0000000140165038     libmmt:asinf_gen.obj
 0002:0001b040       _2il0floatpacket.4         0000000140165040     libmmt:asinf_gen.obj
 0002:0001b048       _2il0floatpacket.5         0000000140165048     libmmt:asinf_gen.obj
 0002:0001b050       _2il0floatpacket.6         0000000140165050     libmmt:asinf_gen.obj
 0002:0001b058       _2il0floatpacket.7         0000000140165058     libmmt:asinf_gen.obj
 0002:0001b060       _2il0floatpacket.8         0000000140165060     libmmt:asinf_gen.obj
 0002:0001b068       _2il0floatpacket.9         0000000140165068     libmmt:asinf_gen.obj
 0002:0001b070       _2il0floatpacket.10        0000000140165070     libmmt:asinf_gen.obj
 0002:0001b078       _2il0floatpacket.11        0000000140165078     libmmt:asinf_gen.obj
 0002:0001b080       _2il0floatpacket.12        0000000140165080     libmmt:asinf_gen.obj
 0002:0001b088       _2il0floatpacket.13        0000000140165088     libmmt:asinf_gen.obj
 0002:0001b090       _2il0floatpacket.14        0000000140165090     libmmt:asinf_gen.obj
 0002:0001b098       _2il0floatpacket.15        0000000140165098     libmmt:asinf_gen.obj
 0002:0001b0a0       _2il0floatpacket.16        00000001401650a0     libmmt:asinf_gen.obj
 0002:0001b0a8       _2il0floatpacket.17        00000001401650a8     libmmt:asinf_gen.obj
 0002:0001b0b0       _2il0floatpacket.18        00000001401650b0     libmmt:asinf_gen.obj
 0002:0001b0b8       _2il0floatpacket.19        00000001401650b8     libmmt:asinf_gen.obj
 0002:0001b0c0       _2il0floatpacket.20        00000001401650c0     libmmt:asinf_gen.obj
 0002:0001b0c8       _2il0floatpacket.21        00000001401650c8     libmmt:asinf_gen.obj
 0002:0001b0d0       _2il0floatpacket.22        00000001401650d0     libmmt:asinf_gen.obj
 0002:0001b0d8       _2il0floatpacket.23        00000001401650d8     libmmt:asinf_gen.obj
 0002:0001b0e0       _2il0floatpacket.24        00000001401650e0     libmmt:asinf_gen.obj
 0002:0001b0e8       _2il0floatpacket.28        00000001401650e8     libmmt:asinf_gen.obj
 0002:0001b0f0       _2il0floatpacket.25        00000001401650f0     libmmt:asinf_gen.obj
 0002:0001b0f4       _2il0floatpacket.26        00000001401650f4     libmmt:asinf_gen.obj
 0002:0001b0f8       _small_value_32            00000001401650f8     libmmt:asinf_gen.obj
 0002:0001b100       pi_2f                      0000000140165100     libmmt:asinf_gen.obj
 0002:0001b120       Atable                     0000000140165120     libmmt:asinf_ct.obj
 0002:0001b520       PI_BY_2                    0000000140165520     libmmt:asinf_ct.obj
 0002:0001b530       ONE                        0000000140165530     libmmt:asinf_ct.obj
 0002:0001b538       COEFF7                     0000000140165538     libmmt:asinf_ct.obj
 0002:0001b540       COEFF3                     0000000140165540     libmmt:asinf_ct.obj
 0002:0001b548       COEFF5                     0000000140165548     libmmt:asinf_ct.obj
 0002:0001b550       ONE52                      0000000140165550     libmmt:asinf_ct.obj
 0002:0001b560       _2il0floatpacket.0         0000000140165560     libmmt:asinf_avx2.obj
 0002:0001b570       _2il0floatpacket.2         0000000140165570     libmmt:asinf_avx2.obj
 0002:0001b580       _2il0floatpacket.1         0000000140165580     libmmt:asinf_avx2.obj
 0002:0001b590       _2il0floatpacket.0         0000000140165590     libmmt:acosf_gen.obj
 0002:0001b598       _2il0floatpacket.1         0000000140165598     libmmt:acosf_gen.obj
 0002:0001b5a0       _2il0floatpacket.2         00000001401655a0     libmmt:acosf_gen.obj
 0002:0001b5a8       _2il0floatpacket.3         00000001401655a8     libmmt:acosf_gen.obj
 0002:0001b5b0       _2il0floatpacket.4         00000001401655b0     libmmt:acosf_gen.obj
 0002:0001b5b8       _2il0floatpacket.5         00000001401655b8     libmmt:acosf_gen.obj
 0002:0001b5c0       _2il0floatpacket.6         00000001401655c0     libmmt:acosf_gen.obj
 0002:0001b5c8       _2il0floatpacket.7         00000001401655c8     libmmt:acosf_gen.obj
 0002:0001b5d0       _2il0floatpacket.8         00000001401655d0     libmmt:acosf_gen.obj
 0002:0001b5d8       _2il0floatpacket.9         00000001401655d8     libmmt:acosf_gen.obj
 0002:0001b5e0       _2il0floatpacket.10        00000001401655e0     libmmt:acosf_gen.obj
 0002:0001b5e8       _2il0floatpacket.11        00000001401655e8     libmmt:acosf_gen.obj
 0002:0001b5f0       _2il0floatpacket.13        00000001401655f0     libmmt:acosf_gen.obj
 0002:0001b5f8       _2il0floatpacket.12        00000001401655f8     libmmt:acosf_gen.obj
 0002:0001b5fc       _small_value_64            00000001401655fc     libmmt:acosf_gen.obj
 0002:0001b620       Atable                     0000000140165620     libmmt:acosf_ct.obj
 0002:0001ba20       PI_BY_2                    0000000140165a20     libmmt:acosf_ct.obj
 0002:0001ba30       ZERO_OR_PI                 0000000140165a30     libmmt:acosf_ct.obj
 0002:0001ba40       ONE                        0000000140165a40     libmmt:acosf_ct.obj
 0002:0001ba48       COEFF7                     0000000140165a48     libmmt:acosf_ct.obj
 0002:0001ba50       COEFF3                     0000000140165a50     libmmt:acosf_ct.obj
 0002:0001ba58       COEFF5                     0000000140165a58     libmmt:acosf_ct.obj
 0002:0001ba60       COEFF9                     0000000140165a60     libmmt:acosf_ct.obj
 0002:0001ba80       _2il0floatpacket.0         0000000140165a80     libmmt:acosf_avx2.obj
 0002:0001ba90       _2il0floatpacket.2         0000000140165a90     libmmt:acosf_avx2.obj
 0002:0001baa0       _2il0floatpacket.1         0000000140165aa0     libmmt:acosf_avx2.obj
 0002:0001bab0       _2il0floatpacket.15        0000000140165ab0     libmmt:atan2f_gen.obj
 0002:0001bac0       _2il0floatpacket.16        0000000140165ac0     libmmt:atan2f_gen.obj
 0002:0001bad0       _2il0floatpacket.0         0000000140165ad0     libmmt:atan2f_gen.obj
 0002:0001bad8       _2il0floatpacket.1         0000000140165ad8     libmmt:atan2f_gen.obj
 0002:0001bae0       _2il0floatpacket.2         0000000140165ae0     libmmt:atan2f_gen.obj
 0002:0001bae8       _2il0floatpacket.3         0000000140165ae8     libmmt:atan2f_gen.obj
 0002:0001baf0       _2il0floatpacket.4         0000000140165af0     libmmt:atan2f_gen.obj
 0002:0001baf8       _2il0floatpacket.5         0000000140165af8     libmmt:atan2f_gen.obj
 0002:0001bb00       _2il0floatpacket.6         0000000140165b00     libmmt:atan2f_gen.obj
 0002:0001bb08       _2il0floatpacket.7         0000000140165b08     libmmt:atan2f_gen.obj
 0002:0001bb10       _2il0floatpacket.8         0000000140165b10     libmmt:atan2f_gen.obj
 0002:0001bb18       _2il0floatpacket.9         0000000140165b18     libmmt:atan2f_gen.obj
 0002:0001bb20       _2il0floatpacket.10        0000000140165b20     libmmt:atan2f_gen.obj
 0002:0001bb28       _2il0floatpacket.11        0000000140165b28     libmmt:atan2f_gen.obj
 0002:0001bb30       _2il0floatpacket.12        0000000140165b30     libmmt:atan2f_gen.obj
 0002:0001bb38       _2il0floatpacket.13        0000000140165b38     libmmt:atan2f_gen.obj
 0002:0001bb40       pi34                       0000000140165b40     libmmt:atan2f_gen.obj
 0002:0001bb50       pi4                        0000000140165b50     libmmt:atan2f_gen.obj
 0002:0001bb60       pi2                        0000000140165b60     libmmt:atan2f_gen.obj
 0002:0001bb70       pi                         0000000140165b70     libmmt:atan2f_gen.obj
 0002:0001bb80       pi4n                       0000000140165b80     libmmt:atan2f_gen.obj
 0002:0001bb90       _2il0floatpacket.14        0000000140165b90     libmmt:atan2f_gen.obj
 0002:0001bb94       _2il0floatpacket.17        0000000140165b94     libmmt:atan2f_gen.obj
 0002:0001bb98       _small_value_64            0000000140165b98     libmmt:atan2f_gen.obj
 0002:0001bba8       _zeros                     0000000140165ba8     libmmt:atan2f_gen.obj
 0002:0001bbb0       _ones                      0000000140165bb0     libmmt:atan2f_gen.obj
 0002:0001bbb8       _minnormf                  0000000140165bb8     libmmt:atan2f_gen.obj
 0002:0001bbc0       atan_tbl                   0000000140165bc0     libmmt:atan2f_ct.obj
 0002:0001c0d0       PI2                        00000001401660d0     libmmt:atan2f_ct.obj
 0002:0001c0e0       pi_table_add               00000001401660e0     libmmt:atan2f_ct.obj
 0002:0001c100       a3d                        0000000140166100     libmmt:atan2f_ct.obj
 0002:0001c108       M230                       0000000140166108     libmmt:atan2f_ct.obj
 0002:0001c110       pi_table                   0000000140166110     libmmt:atan2f_ct.obj
 0002:0001c140       _2il0floatpacket.0         0000000140166140     libmmt:atan2f_avx2.obj
 0002:0001c150       _2il0floatpacket.1         0000000140166150     libmmt:atan2f_avx2.obj
 0002:0001c160       _2il0floatpacket.2         0000000140166160     libmmt:atan2f_avx2.obj
 0002:0001c170       _2il0floatpacket.3         0000000140166170     libmmt:atan2f_avx2.obj
 0002:0001c180       _2il0floatpacket.4         0000000140166180     libmmt:atan2f_avx2.obj
 0002:0001c190       _2il0floatpacket.5         0000000140166190     libmmt:atan2f_avx2.obj
 0002:0001c194       _2il0floatpacket.6         0000000140166194     libmmt:atan2f_avx2.obj
 0002:0001c198       _2il0floatpacket.7         0000000140166198     libmmt:atan2f_avx2.obj
 0002:0001c1a0       _ones                      00000001401661a0     libmmt:trunc_gen.obj
 0002:0001c1b0       _zeros                     00000001401661b0     libmmt:trunc_gen.obj
 0002:0001c1c0       shift_base                 00000001401661c0     libmmt:trunc_ct.obj
 0002:0001c1c8       exponent_mask              00000001401661c8     libmmt:trunc_ct.obj
 0002:0001c1d0       sign_mask                  00000001401661d0     libmmt:trunc_ct.obj
 0002:0001c1d8       one                        00000001401661d8     libmmt:trunc_ct.obj
 0002:0001c1e0       _2il0floatpacket.1         00000001401661e0     libmmt:lroundf_gen.obj
 0002:0001c1f0       _2il0floatpacket.0         00000001401661f0     libmmt:lroundf_gen.obj
 0002:0001c200       _2il0floatpacket.1         0000000140166200     libmmt:llroundf_gen.obj
 0002:0001c210       _2il0floatpacket.0         0000000140166210     libmmt:llroundf_gen.obj
 0002:0001c220       NEG_TWO_POW_63             0000000140166220     libmmt:llroundf_ct.obj
 0002:0001c230       TWO_POW_63                 0000000140166230     libmmt:llroundf_ct.obj
 0002:0001c240       _2il0floatpacket.2         0000000140166240     libmmt:lround_gen.obj
 0002:0001c250       _2il0floatpacket.0         0000000140166250     libmmt:lround_gen.obj
 0002:0001c258       _2il0floatpacket.1         0000000140166258     libmmt:lround_gen.obj
 0002:0001c260       NEG_TWO_POW_31             0000000140166260     libmmt:lround_ct.obj
 0002:0001c270       TWO_POW_31                 0000000140166270     libmmt:lround_ct.obj
 0002:0001c280       _2il0floatpacket.1         0000000140166280     libmmt:llround_gen.obj
 0002:0001c290       _2il0floatpacket.0         0000000140166290     libmmt:llround_gen.obj
 0002:0001c2a0       NEG_TWO_POW_63             00000001401662a0     libmmt:llround_ct.obj
 0002:0001c2b0       TWO_POW_63                 00000001401662b0     libmmt:llround_ct.obj
 0002:0001c2c0       __libm_fmod_dispatch_table 00000001401662c0     libmmt:fmod_iface_disp.obj
 0002:0001c340       __libm_type_info_table.11819.0.8 0000000140166340     libmmt:libm_error.obj
 0002:0001c3a0       __libm_errtype_names.11819.0.8 00000001401663a0     libmmt:libm_error.obj
 0002:0001c3d8       __libm_errno_table.11819.0.8 00000001401663d8     libmmt:libm_error.obj
 0002:0001c3e0       __libm_err_code_mapping_table 00000001401663e0     libmmt:libm_error.obj
 0002:0001c9e0       __libm_err_data_table      00000001401669e0     libmmt:libm_error.obj
 0002:0001caa0       __libm_err_response_table  0000000140166aa0     libmmt:libm_error.obj
 0002:0001cb40       __libm_action_list         0000000140166b40     libmmt:libm_error.obj
 0002:0001cbe0       __libm_func_names          0000000140166be0     libmmt:libm_error.obj
 0002:0001cf60       __libm_key_value           0000000140166f60     libmmt:libm_error.obj
 0002:0001d090       __libm_message_table       0000000140167090     libmmt:libm_error.obj
 0002:0001d0c0       .2.19_2.switchtab.34       00000001401670c0     libmmt:libm_error.obj
 0002:0001e960       __libm_tan_dispatch_table  0000000140168960     libmmt:tan_iface_disp.obj
 0002:0001e9e0       TRUNC_MASK                 00000001401689e0     libmmt:fmod_ct.obj
 0002:0001e9e8       NSGNMASK                   00000001401689e8     libmmt:fmod_ct.obj
 0002:0001e9f0       YSCALE_UP                  00000001401689f0     libmmt:fmod_ct.obj
 0002:0001e9f8       YSCALE_DOWN1               00000001401689f8     libmmt:fmod_ct.obj
 0002:0001ea00       YSCALE_DOWN2               0000000140168a00     libmmt:fmod_ct.obj
 0002:0001ea08       SCALE_UP                   0000000140168a08     libmmt:fmod_ct.obj
 0002:0001ea10       SCALE_DOWN                 0000000140168a10     libmmt:fmod_ct.obj
 0002:0001ea20       Ctable                     0000000140168a20     libmmt:tan_gen.obj
 0002:00020020       PI_INV_TABLE               000000014016a020     libmmt:tan_gen.obj
 0002:000200d0       ONEHALF                    000000014016a0d0     libmmt:tan_gen.obj
 0002:000200e0       MUL16                      000000014016a0e0     libmmt:tan_gen.obj
 0002:000200f0       sign_mask                  000000014016a0f0     libmmt:tan_gen.obj
 0002:00020100       PI32INV                    000000014016a100     libmmt:tan_gen.obj
 0002:00020110       P_1                        000000014016a110     libmmt:tan_gen.obj
 0002:00020120       P_2                        000000014016a120     libmmt:tan_gen.obj
 0002:00020130       P_3                        000000014016a130     libmmt:tan_gen.obj
 0002:00020140       MASK_35                    000000014016a140     libmmt:tan_gen.obj
 0002:00020150       Q_11                       000000014016a150     libmmt:tan_gen.obj
 0002:00020160       Q_9                        000000014016a160     libmmt:tan_gen.obj
 0002:00020170       Q_7                        000000014016a170     libmmt:tan_gen.obj
 0002:00020180       Q_5                        000000014016a180     libmmt:tan_gen.obj
 0002:00020190       Q_3                        000000014016a190     libmmt:tan_gen.obj
 0002:000201a0       PI_4                       000000014016a1a0     libmmt:tan_gen.obj
 0002:000201b0       QQ_2                       000000014016a1b0     libmmt:tan_gen.obj
 0002:000201b8       ONE                        000000014016a1b8     libmmt:tan_gen.obj
 0002:000201c0       TWO_POW_55                 000000014016a1c0     libmmt:tan_gen.obj
 0002:000201c8       TWO_POW_M55                000000014016a1c8     libmmt:tan_gen.obj
 0002:000201d0       NEG_ZERO                   000000014016a1d0     libmmt:tan_gen.obj
 0002:000201e0       Ctable                     000000014016a1e0     libmmt:tan_ct.obj
 0002:000217e0       PI_INV_TABLE               000000014016b7e0     libmmt:tan_ct.obj
 0002:00021890       ONEHALF                    000000014016b890     libmmt:tan_ct.obj
 0002:000218a0       MUL16                      000000014016b8a0     libmmt:tan_ct.obj
 0002:000218b0       sign_mask                  000000014016b8b0     libmmt:tan_ct.obj
 0002:000218c0       PI32INV                    000000014016b8c0     libmmt:tan_ct.obj
 0002:000218d0       P_1                        000000014016b8d0     libmmt:tan_ct.obj
 0002:000218e0       P_2                        000000014016b8e0     libmmt:tan_ct.obj
 0002:000218f0       P_3                        000000014016b8f0     libmmt:tan_ct.obj
 0002:00021900       MASK_35                    000000014016b900     libmmt:tan_ct.obj
 0002:00021910       Q_11                       000000014016b910     libmmt:tan_ct.obj
 0002:00021920       Q_9                        000000014016b920     libmmt:tan_ct.obj
 0002:00021930       Q_7                        000000014016b930     libmmt:tan_ct.obj
 0002:00021940       Q_5                        000000014016b940     libmmt:tan_ct.obj
 0002:00021950       Q_3                        000000014016b950     libmmt:tan_ct.obj
 0002:00021960       PI_4                       000000014016b960     libmmt:tan_ct.obj
 0002:00021970       QQ_2                       000000014016b970     libmmt:tan_ct.obj
 0002:00021978       ONE                        000000014016b978     libmmt:tan_ct.obj
 0002:00021980       TWO_POW_55                 000000014016b980     libmmt:tan_ct.obj
 0002:00021988       TWO_POW_M55                000000014016b988     libmmt:tan_ct.obj
 0002:00021990       NEG_ZERO                   000000014016b990     libmmt:tan_ct.obj
 0002:000219a0       _2il0floatpacket.0         000000014016b9a0     libmmt:tan_avx2.obj
 0002:000219b0       _2il0floatpacket.1         000000014016b9b0     libmmt:tan_avx2.obj
 0002:000219c0       _2il0floatpacket.2         000000014016b9c0     libmmt:tan_avx2.obj
 0002:000219d0       _2il0floatpacket.3         000000014016b9d0     libmmt:tan_avx2.obj
 0002:00021b50       rterrs                     000000014016bb50     LIBCMT:crt0msg.obj
 0002:000226c0       GS_ExceptionPointers       000000014016c6c0     LIBCMT:gs_report.obj
 0002:000226d0       _mb_locale_names           000000014016c6d0     LIBCMT:mbctype.obj
 0002:00022c00       _first_127char             000000014016cc00     LIBCMT:wsetloca.obj
 0002:00023510       __real@433fffffffffffff    000000014016d510     LIBCMT:fpsr.obj
 0002:00023518       __real@c33fffffffffffff    000000014016d518     LIBCMT:fpsr.obj
 0002:000280c0       c_feature_names            00000001401720c0     libirc:new_proc_init.obj
 0002:000286e0       d_zero                     00000001401726e0     libirc:q2ints.obj
 0002:000286e8       d_one                      00000001401726e8     libirc:q2ints.obj
 0002:000286f0       d_norm                     00000001401726f0     libirc:q2ints.obj
 0002:000286f8       d_one                      00000001401726f8     libirc:ia32_divq.obj
 0002:00028700       d_norm                     0000000140172700     libirc:ia32_divq.obj
 0002:00028708       d_huge                     0000000140172708     libirc:ia32_divq.obj
 0002:00028710       _infsq                     0000000140172710     libirc:ia32_divq.obj
 0002:00028730       d_half                     0000000140172730     libirc:ia32_divq.obj
 0002:00028738       _maxnumq                   0000000140172738     libirc:ia32_divq.obj
 0002:00028758       d_zero                     0000000140172758     libirc:ia32_divq.obj
 0002:00028760       d_tiny                     0000000140172760     libirc:ia32_divq.obj
 0002:00028768       _zerosq                    0000000140172768     libirc:ia32_divq.obj
 0002:00028790       QNaNIndefiniteq            0000000140172790     libirc:ia32_addsubq.obj
 0002:000287a0       d_one                      00000001401727a0     libirc:ia32_addsubq.obj
 0002:000287a8       d_norm                     00000001401727a8     libirc:ia32_addsubq.obj
 0002:000287b0       d_huge                     00000001401727b0     libirc:ia32_addsubq.obj
 0002:000287b8       _infsq                     00000001401727b8     libirc:ia32_addsubq.obj
 0002:000287d8       _maxnumq                   00000001401727d8     libirc:ia32_addsubq.obj
 0002:000287f8       d_tiny                     00000001401727f8     libirc:ia32_addsubq.obj
 0002:00028800       d_zero                     0000000140172800     libirc:ia32_addsubq.obj
 0002:00028808       _zerosq                    0000000140172808     libirc:ia32_addsubq.obj
 0002:00028830       d_zero                     0000000140172830     libirc:qcomp.obj
 0002:00028838       __l_one                    0000000140172838     libirc:fp2q.obj
 0002:00028848       d_tiny                     0000000140172848     libirc:q2fp.obj
 0002:00028850       d_one                      0000000140172850     libirc:q2fp.obj
 0002:00028858       d_huge                     0000000140172858     libirc:q2fp.obj
 0002:00028860       d_norm                     0000000140172860     libirc:q2fp.obj
 0002:00028868       d_zero                     0000000140172868     libirc:q2fp.obj
 0002:00028870       .2.15_2.switchtab.54       0000000140172870     libirc:sse2_strtok.obj
 0002:00028880       .2.15_2.switchtab.55       0000000140172880     libirc:sse2_strtok.obj
 0002:00028890       .2.15_2.switchtab.56       0000000140172890     libirc:sse2_strtok.obj
 0002:000288a0       .2.15_2.switchtab.57       00000001401728a0     libirc:sse2_strtok.obj
 0002:000288b0       addr_mode.12221.0.0.3      00000001401728b0     libirc:tbk_display.obj
 0002:00028d00       irc_msgtab                 0000000140172d00     libirc:irc_msg_support.obj
 0002:0002a1e0       tbk__default_unknown       00000001401741e0     libirc:tbk_backtrace.obj
 0002:0002a1e8       .2.33_2.switchtab.22       00000001401741e8     libirc:tbk_backtrace.obj
 0002:0002a204       .2.34_2.switchtab.14       0000000140174204     libirc:tbk_backtrace.obj
 0002:0002a260       InstInfoTable5X            0000000140174260     LIBCMT:filter_simd.obj
 0002:0002a360       InstInfoTableCX            0000000140174360     LIBCMT:filter_simd.obj
 0002:0002a460       InstInfoTable2X            0000000140174460     LIBCMT:filter_simd.obj
 0002:0002a560       InstInfoTableDX            0000000140174560     LIBCMT:filter_simd.obj
 0002:0002a660       InstInfoTable7X            0000000140174660     LIBCMT:filter_simd.obj
 0002:0002a760       InstInfoTableEX            0000000140174760     LIBCMT:filter_simd.obj
 0002:0002a860       InstInfoTable0X            0000000140174860     LIBCMT:filter_simd.obj
 0002:0002a8e0       InstInfoTable4X            00000001401748e0     LIBCMT:filter_simd.obj
 0002:0002a9e0       InstInfoTableX             00000001401749e0     LIBCMT:filter_simd.obj
 0002:0002aa30       modrm32                    0000000140174a30     LIBCMT:filter_simd.obj
 0002:0002c59c       $unwind$address_promptcompoutarray 000000014017659c     ARAPlib_lib:C2Fortran.obj
 0002:0002c5a4       $unwind$promptcompoutarray_address_ 00000001401765a4     ARAPlib_lib:C2Fortran.obj
 0002:00032618       $xdatasym                  000000014017c618     LIBCMT:chkstk.obj
 0002:00032620       $xdatasym                  000000014017c620     LIBCMT:memcpy.obj
 0002:00032624       $unwind$fast_error_exit    000000014017c624     LIBCMT:crt0.obj
 0002:0003262c       $unwind$__tmainCRTStartup  000000014017c62c     LIBCMT:crt0.obj
 0002:00032650       $unwind$__tmainCRTStartup$filt$0 000000014017c650     LIBCMT:crt0.obj
 0002:00032658       $unwind$mainCRTStartup     000000014017c658     LIBCMT:crt0.obj
 0002:00032660       $xdatasym                  000000014017c660     LIBCMT:amdsecgs.obj
 0002:00032664       $unwind$__GSHandlerCheckCommon 000000014017c664     LIBCMT:gshandler.obj
 0002:0003266c       $unwind$__GSHandlerCheck   000000014017c66c     LIBCMT:gshandler.obj
 0002:00032674       $unwind$strstr             000000014017c674     LIBCMT:strstr.obj
 0002:00032680       $unwind$_toupper_l         000000014017c680     LIBCMT:toupper.obj
 0002:00032690       $unwind$??0_LocaleUpdate@@QEAA@PEAUlocaleinfo_struct@@@Z 000000014017c690     LIBCMT:toupper.obj
 0002:00032698       $xdatasym                  000000014017c698     LIBCMT:strncpy.obj
 0002:0003269c       $unwind$malloc             000000014017c69c     LIBCMT:malloc.obj
 0002:000326ac       $unwind$_heap_alloc        000000014017c6ac     LIBCMT:malloc.obj
 0002:000326b4       $unwind$realloc            000000014017c6b4     LIBCMT:realloc.obj
 0002:000326c4       $unwind$free               000000014017c6c4     LIBCMT:free.obj
 0002:000326cc       $unwind$_aligned_free      000000014017c6cc     LIBCMT:align.obj
 0002:000326d4       $unwind$_aligned_malloc    000000014017c6d4     LIBCMT:align.obj
 0002:000326dc       $unwind$_aligned_offset_malloc 000000014017c6dc     LIBCMT:align.obj
 0002:000326f0       $unwind$_aligned_recalloc  000000014017c6f0     LIBCMT:align.obj
 0002:000326f8       $unwind$_aligned_offset_realloc 000000014017c6f8     LIBCMT:align.obj
 0002:00032714       $unwind$_aligned_offset_recalloc 000000014017c714     LIBCMT:align.obj
 0002:00032728       $unwind$_aligned_msize     000000014017c728     LIBCMT:align.obj
 0002:00032734       $unwind$__fpecode          000000014017c734     LIBCMT:winsig.obj
 0002:0003273c       $unwind$__pxcptinfoptrs    000000014017c73c     LIBCMT:winsig.obj
 0002:00032744       $unwind$signal             000000014017c744     LIBCMT:winsig.obj
 0002:00032770       $unwind$signal$fin$0       000000014017c770     LIBCMT:winsig.obj
 0002:00032778       $unwind$raise              000000014017c778     LIBCMT:winsig.obj
 0002:000327a8       $unwind$raise$fin$0        000000014017c7a8     LIBCMT:winsig.obj
 0002:000327b0       $unwind$ctrlevent_capture  000000014017c7b0     LIBCMT:winsig.obj
 0002:000327d8       $unwind$ctrlevent_capture$fin$0 000000014017c7d8     LIBCMT:winsig.obj
 0002:000327e0       $unwind$atexit             000000014017c7e0     LIBCMT:onexit.obj
 0002:000327e8       $unwind$_onexit            000000014017c7e8     LIBCMT:onexit.obj
 0002:00032818       $unwind$_onexit$fin$0      000000014017c818     LIBCMT:onexit.obj
 0002:00032820       $unwind$__onexitinit       000000014017c820     LIBCMT:onexit.obj
 0002:00032828       $unwind$_onexit_nolock     000000014017c828     LIBCMT:onexit.obj
 0002:00032840       $unwind$_beginthread       000000014017c840     LIBCMT:thread.obj
 0002:00032858       $unwind$_endthread         000000014017c858     LIBCMT:thread.obj
 0002:00032860       $unwind$_threadstart       000000014017c860     LIBCMT:thread.obj
 0002:00032868       $unwind$_callthreadstart   000000014017c868     LIBCMT:thread.obj
 0002:00032888       $unwind$_callthreadstart$filt$0 000000014017c888     LIBCMT:thread.obj
 0002:00032890       $unwind$clock              000000014017c890     LIBCMT:clock.obj
 0002:00032898       $unwind$__inittime         000000014017c898     LIBCMT:clock.obj
 0002:000328a0       $unwind$_amsg_exit         000000014017c8a0     LIBCMT:crt0dat.obj
 0002:000328a8       $unwind$__crtExitProcess   000000014017c8a8     LIBCMT:crt0dat.obj
 0002:000328b0       $unwind$__crtCorExitProcess 000000014017c8b0     LIBCMT:crt0dat.obj
 0002:000328b8       $unwind$_cinit             000000014017c8b8     LIBCMT:crt0dat.obj
 0002:000328c0       $unwind$__freeCrtMemory    000000014017c8c0     LIBCMT:crt0dat.obj
 0002:000328cc       $unwind$_init_pointers     000000014017c8cc     LIBCMT:crt0dat.obj
 0002:000328d4       $unwind$__copy_path_to_wide_string 000000014017c8d4     LIBCMT:crt0dat.obj
 0002:000328ec       $unwind$__copy_to_char     000000014017c8ec     LIBCMT:crt0dat.obj
 0002:00032904       $unwind$_get_pgmptr        000000014017c904     LIBCMT:crt0dat.obj
 0002:0003290c       $unwind$_get_wpgmptr       000000014017c90c     LIBCMT:crt0dat.obj
 0002:00032914       $unwind$_initterm          000000014017c914     LIBCMT:crt0dat.obj
 0002:00032928       $unwind$_initterm_e        000000014017c928     LIBCMT:crt0dat.obj
 0002:00032934       $unwind$doexit             000000014017c934     LIBCMT:crt0dat.obj
 0002:00032964       $unwind$doexit$fin$0       000000014017c964     LIBCMT:crt0dat.obj
 0002:0003296c       $unwind$abort              000000014017c96c     LIBCMT:abort.obj
 0002:00032974       $unwind$strerror           000000014017c974     LIBCMT:strerror.obj
 0002:00032980       $unwind$strerror_s         000000014017c980     LIBCMT:strerror.obj
 0002:00032990       $unwind$_invoke_watson_if_error 000000014017c990     LIBCMT:strerror.obj
 0002:00032998       $unwind$_get_sys_err_msg   000000014017c998     LIBCMT:strerror.obj
 0002:000329a0       $unwind$_alloc_osfhnd      000000014017c9a0     LIBCMT:osfinfo.obj
 0002:000329e4       $unwind$_alloc_osfhnd$fin$0 000000014017c9e4     LIBCMT:osfinfo.obj
 0002:000329ec       $unwind$_alloc_osfhnd$fin$1 000000014017c9ec     LIBCMT:osfinfo.obj
 0002:000329f4       $unwind$_free_osfhnd       000000014017c9f4     LIBCMT:osfinfo.obj
 0002:00032a04       $unwind$_set_osfhnd        000000014017ca04     LIBCMT:osfinfo.obj
 0002:00032a18       $unwind$__lock_fhandle     000000014017ca18     LIBCMT:osfinfo.obj
 0002:00032a44       $unwind$__lock_fhandle$fin$0 000000014017ca44     LIBCMT:osfinfo.obj
 0002:00032a4c       $unwind$_get_osfhandle     000000014017ca4c     LIBCMT:osfinfo.obj
 0002:00032a54       $unwind$_open_osfhandle    000000014017ca54     LIBCMT:osfinfo.obj
 0002:00032a80       $unwind$_open_osfhandle$fin$0 000000014017ca80     LIBCMT:osfinfo.obj
 0002:00032a88       $unwind$_fileno            000000014017ca88     LIBCMT:fileno.obj
 0002:00032a90       $unwind$_access            000000014017ca90     LIBCMT:access.obj
 0002:00032a98       $unwind$_access_s          000000014017ca98     LIBCMT:access.obj
 0002:00032aa4       $unwind$_errno             000000014017caa4     LIBCMT:dosmap.obj
 0002:00032aac       $unwind$_set_errno         000000014017caac     LIBCMT:dosmap.obj
 0002:00032ab4       $unwind$_get_errno         000000014017cab4     LIBCMT:dosmap.obj
 0002:00032abc       $unwind$__doserrno         000000014017cabc     LIBCMT:dosmap.obj
 0002:00032ac4       $unwind$_set_doserrno      000000014017cac4     LIBCMT:dosmap.obj
 0002:00032acc       $unwind$_get_doserrno      000000014017cacc     LIBCMT:dosmap.obj
 0002:00032ad4       $unwind$_dosmaperr         000000014017cad4     LIBCMT:dosmap.obj
 0002:00032ae0       $unwind$_tolower_l         000000014017cae0     LIBCMT:tolower.obj
 0002:00032af0       $unwind$isalpha            000000014017caf0     LIBCMT:_ctype.obj
 0002:00032af8       $unwind$_isalpha_l         000000014017caf8     LIBCMT:_ctype.obj
 0002:00032b00       $unwind$isupper            000000014017cb00     LIBCMT:_ctype.obj
 0002:00032b08       $unwind$_isupper_l         000000014017cb08     LIBCMT:_ctype.obj
 0002:00032b10       $unwind$islower            000000014017cb10     LIBCMT:_ctype.obj
 0002:00032b18       $unwind$_islower_l         000000014017cb18     LIBCMT:_ctype.obj
 0002:00032b20       $unwind$isdigit            000000014017cb20     LIBCMT:_ctype.obj
 0002:00032b28       $unwind$_isdigit_l         000000014017cb28     LIBCMT:_ctype.obj
 0002:00032b30       $unwind$isxdigit           000000014017cb30     LIBCMT:_ctype.obj
 0002:00032b38       $unwind$_isxdigit_l        000000014017cb38     LIBCMT:_ctype.obj
 0002:00032b40       $unwind$isspace            000000014017cb40     LIBCMT:_ctype.obj
 0002:00032b48       $unwind$_isspace_l         000000014017cb48     LIBCMT:_ctype.obj
 0002:00032b50       $unwind$ispunct            000000014017cb50     LIBCMT:_ctype.obj
 0002:00032b58       $unwind$_ispunct_l         000000014017cb58     LIBCMT:_ctype.obj
 0002:00032b60       $unwind$_isblank_l         000000014017cb60     LIBCMT:_ctype.obj
 0002:00032b68       $unwind$isalnum            000000014017cb68     LIBCMT:_ctype.obj
 0002:00032b70       $unwind$_isalnum_l         000000014017cb70     LIBCMT:_ctype.obj
 0002:00032b78       $unwind$isprint            000000014017cb78     LIBCMT:_ctype.obj
 0002:00032b80       $unwind$_isprint_l         000000014017cb80     LIBCMT:_ctype.obj
 0002:00032b88       $unwind$isgraph            000000014017cb88     LIBCMT:_ctype.obj
 0002:00032b90       $unwind$_isgraph_l         000000014017cb90     LIBCMT:_ctype.obj
 0002:00032b98       $unwind$iscntrl            000000014017cb98     LIBCMT:_ctype.obj
 0002:00032ba0       $unwind$_iscntrl_l         000000014017cba0     LIBCMT:_ctype.obj
 0002:00032ba8       $unwind$__iscsymf          000000014017cba8     LIBCMT:_ctype.obj
 0002:00032bb0       $unwind$__iscsym           000000014017cbb0     LIBCMT:_ctype.obj
 0002:00032bb8       $unwind$_iscsymf_l         000000014017cbb8     LIBCMT:_ctype.obj
 0002:00032bc0       $unwind$_iscsym_l          000000014017cbc0     LIBCMT:_ctype.obj
 0002:00032bc8       $unwind$rand               000000014017cbc8     LIBCMT:rand.obj
 0002:00032bd0       $unwind$srand              000000014017cbd0     LIBCMT:rand.obj
 0002:00032bd8       $unwind$_write             000000014017cbd8     LIBCMT:write.obj
 0002:00032c04       $unwind$_write$fin$0       000000014017cc04     LIBCMT:write.obj
 0002:00032c0c       $unwind$_write_nolock      000000014017cc0c     LIBCMT:write.obj
 0002:00032c30       $unwind$_controlfp_s       000000014017cc30     LIBCMT:contrlfp.obj
 0002:00032c38       $unwind$_getenv_helper_nolock 000000014017cc38     LIBCMT:getenv.obj
 0002:00032c48       $unwind$getenv             000000014017cc48     LIBCMT:getenv.obj
 0002:00032c68       $unwind$getenv$fin$0       000000014017cc68     LIBCMT:getenv.obj
 0002:00032c70       $unwind$getenv_s           000000014017cc70     LIBCMT:getenv.obj
 0002:00032cb0       $unwind$getenv_s$fin$0     000000014017ccb0     LIBCMT:getenv.obj
 0002:00032cb8       $unwind$_dupenv_s          000000014017ccb8     LIBCMT:getenv.obj
 0002:00032cf8       $unwind$_dupenv_s$fin$0    000000014017ccf8     LIBCMT:getenv.obj
 0002:00032d00       $unwind$_getenv_s_helper   000000014017cd00     LIBCMT:getenv.obj
 0002:00032d14       $unwind$_dupenv_s_helper   000000014017cd14     LIBCMT:getenv.obj
 0002:00032d28       $unwind$_clearfp           000000014017cd28     LIBCMT:ieee.obj
 0002:00032d30       $unwind$_set_controlfp     000000014017cd30     LIBCMT:ieee.obj
 0002:00032d38       $unwind$_control87         000000014017cd38     LIBCMT:ieee.obj
 0002:00032d68       $unwind$_control87$filt$0  000000014017cd68     LIBCMT:ieee.obj
 0002:00032d70       $unwind$fputs              000000014017cd70     LIBCMT:fputs.obj
 0002:00032d9c       $unwind$fputs$fin$0        000000014017cd9c     LIBCMT:fputs.obj
 0002:00032da4       $unwind$_cftoe             000000014017cda4     LIBCMT:cvt.obj
 0002:00032dac       $unwind$_cftoa             000000014017cdac     LIBCMT:cvt.obj
 0002:00032db4       $unwind$_cftof             000000014017cdb4     LIBCMT:cvt.obj
 0002:00032dbc       $unwind$_cfltcvt           000000014017cdbc     LIBCMT:cvt.obj
 0002:00032dc4       $unwind$_cfltcvt_l         000000014017cdc4     LIBCMT:cvt.obj
 0002:00032dcc       $unwind$_cropzeros_l       000000014017cdcc     LIBCMT:cvt.obj
 0002:00032dd4       $unwind$_fassign_l         000000014017cdd4     LIBCMT:cvt.obj
 0002:00032ddc       $unwind$_forcdecpt_l       000000014017cddc     LIBCMT:cvt.obj
 0002:00032de4       $unwind$_shift             000000014017cde4     LIBCMT:cvt.obj
 0002:00032df0       $unwind$_cftoe2_l          000000014017cdf0     LIBCMT:cvt.obj
 0002:00032e0c       $unwind$_cftoe_l           000000014017ce0c     LIBCMT:cvt.obj
 0002:00032e24       $unwind$_cftoa_l           000000014017ce24     LIBCMT:cvt.obj
 0002:00032e40       $unwind$_cftof2_l          000000014017ce40     LIBCMT:cvt.obj
 0002:00032e58       $unwind$_cftof_l           000000014017ce58     LIBCMT:cvt.obj
 0002:00032e70       $unwind$_cftog_l           000000014017ce70     LIBCMT:cvt.obj
 0002:00032e88       $unwind$_cftog             000000014017ce88     LIBCMT:cvt.obj
 0002:00032e90       $unwind$_initp_misc_cfltcvt_tab 000000014017ce90     LIBCMT:cmiscdat.obj
 0002:00032e9c       $unwind$__isa_available_init 000000014017ce9c     LIBCMT:cpu_disp.obj
 0002:00032eb0       $unwind$?__CxxUnhandledExceptionFilter@@YAJPEAU_EXCEPTION_POINTERS@@@Z 000000014017ceb0     LIBCMT:unhandld.obj
 0002:00032eb8       $unwind$__CxxSetUnhandledExceptionFilter 000000014017ceb8     LIBCMT:unhandld.obj
 0002:00032ec0       $unwind$_XcptFilter        000000014017cec0     LIBCMT:winxfltr.obj
 0002:00032ed4       $unwind$_getptd            000000014017ced4     LIBCMT:tidtable.obj
 0002:00032edc       $unwind$_getptd_noexit     000000014017cedc     LIBCMT:tidtable.obj
 0002:00032ee8       $unwind$_freefls           000000014017cee8     LIBCMT:tidtable.obj
 0002:00032f1c       $unwind$_freefls$fin$1     000000014017cf1c     LIBCMT:tidtable.obj
 0002:00032f24       $unwind$_freefls$fin$0     000000014017cf24     LIBCMT:tidtable.obj
 0002:00032f2c       $unwind$_freeptd           000000014017cf2c     LIBCMT:tidtable.obj
 0002:00032f34       $unwind$_initptd           000000014017cf34     LIBCMT:tidtable.obj
 0002:00032f68       $unwind$_initptd$fin$1     000000014017cf68     LIBCMT:tidtable.obj
 0002:00032f70       $unwind$_initptd$fin$0     000000014017cf70     LIBCMT:tidtable.obj
 0002:00032f78       $unwind$_mtinit            000000014017cf78     LIBCMT:tidtable.obj
 0002:00032f80       $unwind$_mtterm            000000014017cf80     LIBCMT:tidtable.obj
 0002:00032f88       $unwind$_heap_init         000000014017cf88     LIBCMT:heapinit.obj
 0002:00032f90       $unwind$_ioinit            000000014017cf90     LIBCMT:ioinit.obj
 0002:00032fd8       $unwind$_ioinit$fin$0      000000014017cfd8     LIBCMT:ioinit.obj
 0002:00032fe0       $unwind$_ioterm            000000014017cfe0     LIBCMT:ioinit.obj
 0002:00032ff0       $unwind$_setargv           000000014017cff0     LIBCMT:stdargv.obj
 0002:00033000       $unwind$parse_cmdline      000000014017d000     LIBCMT:stdargv.obj
 0002:0003301c       $unwind$_setenvp           000000014017d01c     LIBCMT:stdenvp.obj
 0002:00033030       $unwind$_FF_MSGBANNER      000000014017d030     LIBCMT:crt0msg.obj
 0002:00033038       $unwind$_NMSG_WRITE        000000014017d038     LIBCMT:crt0msg.obj
 0002:0003305c       $unwind$_set_error_mode    000000014017d05c     LIBCMT:errmode.obj
 0002:00033064       $unwind$__security_init_cookie 000000014017d064     LIBCMT:gs_support.obj
 0002:00033070       $unwind$_RTC_Initialize    000000014017d070     LIBCMT:initsect.obj
 0002:0003307c       $unwind$_RTC_Terminate     000000014017d07c     LIBCMT:initsect.obj
 0002:00033088       $unwind$__crtGetEnvironmentStringsA 000000014017d088     LIBCMT:a_env.obj
 0002:000330a0       $unwind$__C_specific_handler 000000014017d0a0     LIBCMT:chandler.obj
 0002:000330bc       $unwind$__report_securityfailure 000000014017d0bc     LIBCMT:gs_report.obj
 0002:000330c4       $unwind$__report_securityfailureEx 000000014017d0c4     LIBCMT:gs_report.obj
 0002:000330cc       $unwind$__report_rangecheckfailure 000000014017d0cc     LIBCMT:gs_report.obj
 0002:000330d4       $unwind$__raise_securityfailure 000000014017d0d4     LIBCMT:gs_report.obj
 0002:000330dc       $unwind$__report_gsfailure 000000014017d0dc     LIBCMT:gs_report.obj
 0002:000330e4       $unwind$__updatetlocinfo   000000014017d0e4     LIBCMT:localref.obj
 0002:00033104       $unwind$__updatetlocinfo$fin$0 000000014017d104     LIBCMT:localref.obj
 0002:0003310c       $unwind$__freetlocinfo     000000014017d10c     LIBCMT:localref.obj
 0002:00033120       $unwind$_updatetlocinfoEx_nolock 000000014017d120     LIBCMT:localref.obj
 0002:0003312c       $unwind$__updatetmbcinfo   000000014017d12c     LIBCMT:mbctype.obj
 0002:00033150       $unwind$__updatetmbcinfo$fin$0 000000014017d150     LIBCMT:mbctype.obj
 0002:00033158       $unwind$_setmbcp           000000014017d158     LIBCMT:mbctype.obj
 0002:00033188       $unwind$_setmbcp$fin$0     000000014017d188     LIBCMT:mbctype.obj
 0002:00033190       $unwind$_getmbcp           000000014017d190     LIBCMT:mbctype.obj
 0002:00033198       $unwind$__initmbctable     000000014017d198     LIBCMT:mbctype.obj
 0002:000331a0       $unwind$_setmbcp_nolock    000000014017d1a0     LIBCMT:mbctype.obj
 0002:000331c0       $unwind$?getSystemCP@@YAHH@Z 000000014017d1c0     LIBCMT:mbctype.obj
 0002:000331c8       $unwind$?setSBCS@@YAXPEAUthreadmbcinfostruct@@@Z 000000014017d1c8     LIBCMT:mbctype.obj
 0002:000331dc       $unwind$?setSBUpLow@@YAXPEAUthreadmbcinfostruct@@@Z 000000014017d1dc     LIBCMT:mbctype.obj
 0002:000331f8       $unwind$_isctype_l         000000014017d1f8     LIBCMT:isctype.obj
 0002:00033208       $unwind$__iswcsymf         000000014017d208     LIBCMT:_wctype.obj
 0002:00033210       $unwind$_iswcsymf_l        000000014017d210     LIBCMT:_wctype.obj
 0002:00033218       $unwind$__iswcsym          000000014017d218     LIBCMT:_wctype.obj
 0002:00033220       $unwind$_iswcsym_l         000000014017d220     LIBCMT:_wctype.obj
 0002:00033228       $unwind$isleadbyte         000000014017d228     LIBCMT:_wctype.obj
 0002:00033230       $unwind$_isleadbyte_l      000000014017d230     LIBCMT:_wctype.obj
 0002:00033238       $unwind$__crtLCMapStringA  000000014017d238     LIBCMT:a_map.obj
 0002:00033248       $unwind$_freea             000000014017d248     LIBCMT:a_map.obj
 0002:00033250       $unwind$?__crtLCMapStringA_stat@@YAHPEAUlocaleinfo_struct@@PEB_WKPEBDHPEADHHH@Z 000000014017d250     LIBCMT:a_map.obj
 0002:00033278       $unwind$_configthreadlocale 000000014017d278     LIBCMT:wsetloca.obj
 0002:00033280       $unwind$_get_current_locale 000000014017d280     LIBCMT:wsetloca.obj
 0002:000332b4       $unwind$_get_current_locale$fin$1 000000014017d2b4     LIBCMT:wsetloca.obj
 0002:000332bc       $unwind$_get_current_locale$fin$0 000000014017d2bc     LIBCMT:wsetloca.obj
 0002:000332c4       $unwind$_create_locale     000000014017d2c4     LIBCMT:wsetloca.obj
 0002:000332d8       $unwind$_free_locale       000000014017d2d8     LIBCMT:wsetloca.obj
 0002:00033308       $unwind$_free_locale$fin$1 000000014017d308     LIBCMT:wsetloca.obj
 0002:00033310       $unwind$_free_locale$fin$0 000000014017d310     LIBCMT:wsetloca.obj
 0002:00033318       $unwind$_wsetlocale        000000014017d318     LIBCMT:wsetloca.obj
 0002:00033368       $unwind$_wsetlocale$fin$1  000000014017d368     LIBCMT:wsetloca.obj
 0002:00033370       $unwind$_wsetlocale$fin$0  000000014017d370     LIBCMT:wsetloca.obj
 0002:00033378       $unwind$_wsetlocale$fin$2  000000014017d378     LIBCMT:wsetloca.obj
 0002:00033380       $unwind$_wcreate_locale    000000014017d380     LIBCMT:wsetloca.obj
 0002:00033394       $unwind$__copy_locale_name 000000014017d394     LIBCMT:wsetloca.obj
 0002:000333a4       $unwind$_locterm           000000014017d3a4     LIBCMT:wsetloca.obj
 0002:000333c4       $unwind$_locterm$fin$0     000000014017d3c4     LIBCMT:wsetloca.obj
 0002:000333cc       $unwind$_expandlocale      000000014017d3cc     LIBCMT:wsetloca.obj
 0002:000333ec       $unwind$_wcscats           000000014017d3ec     LIBCMT:wsetloca.obj
 0002:000333fc       $unwind$__lc_lctowcs       000000014017d3fc     LIBCMT:wsetloca.obj
 0002:00033410       $unwind$__lc_wcstolc       000000014017d410     LIBCMT:wsetloca.obj
 0002:00033428       $unwind$_wsetlocale_set_cat 000000014017d428     LIBCMT:wsetloca.obj
 0002:0003344c       $unwind$_wsetlocale_get_all 000000014017d44c     LIBCMT:wsetloca.obj
 0002:00033468       $unwind$_wsetlocale_nolock 000000014017d468     LIBCMT:wsetloca.obj
 0002:0003348c       $unwind$_copytlocinfo_nolock 000000014017d48c     LIBCMT:wsetloca.obj
 0002:00033494       $unwind$_callnewh          000000014017d494     LIBCMT:handler.obj
 0002:0003349c       $unwind$?_set_new_handler@@YAP6AH_K@ZP6AH0@Z@Z 000000014017d49c     LIBCMT:handler.obj
 0002:000334a8       $unwind$_invalid_parameter_noinfo 000000014017d4a8     LIBCMT:invarg.obj
 0002:000334b0       $unwind$_invalid_parameter_noinfo_noreturn 000000014017d4b0     LIBCMT:invarg.obj
 0002:000334b8       $unwind$_invoke_watson     000000014017d4b8     LIBCMT:invarg.obj
 0002:000334c0       $unwind$_call_reportfault  000000014017d4c0     LIBCMT:invarg.obj
 0002:000334e0       $unwind$_set_invalid_parameter_handler 000000014017d4e0     LIBCMT:invarg.obj
 0002:000334ec       $unwind$_invalid_parameter 000000014017d4ec     LIBCMT:invarg.obj
 0002:00033500       $unwind$?_invoke_watson@@YAXPEBG00I_K@Z 000000014017d500     LIBCMT:invarg.obj
 0002:00033508       $xdatasym                  000000014017d508     LIBCMT:memset.obj
 0002:0003350c       $unwind$_expand            000000014017d50c     LIBCMT:expand.obj
 0002:00033520       $unwind$_is_LFH_enabled    000000014017d520     LIBCMT:expand.obj
 0002:00033528       $unwind$_msize             000000014017d528     LIBCMT:msize.obj
 0002:00033530       $unwind$_lock              000000014017d530     LIBCMT:mlock.obj
 0002:0003353c       $unwind$_mtinitlocknum     000000014017d53c     LIBCMT:mlock.obj
 0002:00033564       $unwind$_mtinitlocknum$fin$0 000000014017d564     LIBCMT:mlock.obj
 0002:0003356c       $unwind$_mtinitlocks       000000014017d56c     LIBCMT:mlock.obj
 0002:0003357c       $unwind$_mtdeletelocks     000000014017d57c     LIBCMT:mlock.obj
 0002:00033590       $unwind$_lockerr_exit      000000014017d590     LIBCMT:mlock.obj
 0002:00033598       $unwind$wait_a_bit         000000014017d598     LIBCMT:crtheap.obj
 0002:000335a0       $unwind$_malloc_crt        000000014017d5a0     LIBCMT:crtheap.obj
 0002:000335b8       $unwind$_calloc_crt        000000014017d5b8     LIBCMT:crtheap.obj
 0002:000335d0       $unwind$_realloc_crt       000000014017d5d0     LIBCMT:crtheap.obj
 0002:000335e8       $unwind$_recalloc_crt      000000014017d5e8     LIBCMT:crtheap.obj
 0002:00033600       $unwind$__crtIsPackagedApp 000000014017d600     LIBCMT:winapisupp.obj
 0002:00033608       $unwind$__crtGetShowWindowMode 000000014017d608     LIBCMT:winapisupp.obj
 0002:00033610       $unwind$__crtUnhandledException 000000014017d610     LIBCMT:winapisupp.obj
 0002:00033618       $unwind$__crtTerminateProcess 000000014017d618     LIBCMT:winapisupp.obj
 0002:00033620       $unwind$__crtCaptureCurrentContext 000000014017d620     LIBCMT:winapisupp.obj
 0002:0003362c       $unwind$__crtCapturePreviousContext 000000014017d62c     LIBCMT:winapisupp.obj
 0002:00033638       $unwind$__crtInitializeCriticalSectionEx 000000014017d638     LIBCMT:winapisupp.obj
 0002:00033640       $unwind$__crtSetThreadpoolTimer 000000014017d640     LIBCMT:winapisupp.obj
 0002:00033648       $unwind$__crtWaitForThreadpoolTimerCallbacks 000000014017d648     LIBCMT:winapisupp.obj
 0002:00033650       $unwind$__crtCloseThreadpoolTimer 000000014017d650     LIBCMT:winapisupp.obj
 0002:00033658       $unwind$__crtSetThreadpoolWait 000000014017d658     LIBCMT:winapisupp.obj
 0002:00033660       $unwind$__crtCloseThreadpoolWait 000000014017d660     LIBCMT:winapisupp.obj
 0002:00033668       $unwind$__crtFlushProcessWriteBuffers 000000014017d668     LIBCMT:winapisupp.obj
 0002:00033670       $unwind$__crtFreeLibraryWhenCallbackReturns 000000014017d670     LIBCMT:winapisupp.obj
 0002:00033678       $unwind$__crtGetLogicalProcessorInformation 000000014017d678     LIBCMT:winapisupp.obj
 0002:00033680       $unwind$__crtCreateSymbolicLinkW 000000014017d680     LIBCMT:winapisupp.obj
 0002:00033688       $unwind$__crtGetFileInformationByHandleEx 000000014017d688     LIBCMT:winapisupp.obj
 0002:00033690       $unwind$__crtSetFileInformationByHandle 000000014017d690     LIBCMT:winapisupp.obj
 0002:00033698       $unwind$__crtGetTickCount64 000000014017d698     LIBCMT:winapisupp.obj
 0002:000336a0       $unwind$__crtLoadWinApiPointers 000000014017d6a0     LIBCMT:winapisupp.obj
 0002:000336a8       $unwind$__IsPackagedAppHelper 000000014017d6a8     LIBCMT:winapisupp.obj
 0002:000336b0       $unwind$_IsNonwritableInCurrentImage 000000014017d6b0     LIBCMT:pesect.obj
 0002:000336d4       $unwind$_IsNonwritableInCurrentImage$filt$0 000000014017d6d4     LIBCMT:pesect.obj
 0002:000336dc       $unwind$?terminate@@YAXXZ  000000014017d6dc     LIBCMT:hooks.obj
 0002:000336fc       $unwind$?unexpected@@YAXXZ 000000014017d6fc     LIBCMT:hooks.obj
 0002:00033704       $unwind$?_inconsistency@@YAXXZ 000000014017d704     LIBCMT:hooks.obj
 0002:00033724       $unwind$_initp_eh_hooks    000000014017d724     LIBCMT:hooks.obj
 0002:0003372c       $unwind$__getlocaleinfo    000000014017d72c     LIBCMT:inithelp.obj
 0002:0003374c       $unwind$rand_s             000000014017d74c     LIBCMT:rand_s.obj
 0002:00033760       $unwind$_stbuf             000000014017d760     LIBCMT:_sftbuf.obj
 0002:00033770       $unwind$_ftbuf             000000014017d770     LIBCMT:_sftbuf.obj
 0002:00033778       $unwind$strcpy_s           000000014017d778     LIBCMT:strcpy_s.obj
 0002:00033780       $unwind$strncpy_s          000000014017d780     LIBCMT:strncpy_s.obj
 0002:00033788       $unwind$_strtoi64          000000014017d788     LIBCMT:strtoq.obj
 0002:00033790       $unwind$_strtoi64_l        000000014017d790     LIBCMT:strtoq.obj
 0002:00033798       $unwind$_strtoui64         000000014017d798     LIBCMT:strtoq.obj
 0002:000337a0       $unwind$_strtoui64_l       000000014017d7a0     LIBCMT:strtoq.obj
 0002:000337a8       $unwind$_strtoll_l         000000014017d7a8     LIBCMT:strtoq.obj
 0002:000337b0       $unwind$_strtoull_l        000000014017d7b0     LIBCMT:strtoq.obj
 0002:000337b8       $unwind$strtof             000000014017d7b8     LIBCMT:strtoq.obj
 0002:000337c0       $unwind$_strtof_l          000000014017d7c0     LIBCMT:strtoq.obj
 0002:000337c8       $unwind$?strtoxq@@YA_KPEAUlocaleinfo_struct@@PEBDPEAPEBDHH@Z 000000014017d7c8     LIBCMT:strtoq.obj
 0002:000337e4       $unwind$_strtoimax_l       000000014017d7e4     LIBCMT:strtoq.obj
 0002:000337ec       $unwind$_strtoumax_l       000000014017d7ec     LIBCMT:strtoq.obj
 0002:000337f4       $unwind$strtol             000000014017d7f4     LIBCMT:strtol.obj
 0002:000337fc       $unwind$_strtol_l          000000014017d7fc     LIBCMT:strtol.obj
 0002:00033804       $unwind$strtoul            000000014017d804     LIBCMT:strtol.obj
 0002:0003380c       $unwind$_strtoul_l         000000014017d80c     LIBCMT:strtol.obj
 0002:00033814       $unwind$?strtoxl@@YAKPEAUlocaleinfo_struct@@PEBDPEAPEBDHH@Z 000000014017d814     LIBCMT:strtol.obj
 0002:0003382c       $unwind$_waccess           000000014017d82c     LIBCMT:waccess.obj
 0002:00033834       $unwind$_waccess_s         000000014017d834     LIBCMT:waccess.obj
 0002:00033844       $unwind$_isatty            000000014017d844     LIBCMT:isatty.obj
 0002:0003384c       $unwind$_lseeki64          000000014017d84c     LIBCMT:lseeki64.obj
 0002:00033878       $unwind$_lseeki64$fin$0    000000014017d878     LIBCMT:lseeki64.obj
 0002:00033880       $unwind$_lseeki64_nolock   000000014017d880     LIBCMT:lseeki64.obj
 0002:00033890       $unwind$_mbtowc_l          000000014017d890     LIBCMT:mbtowc.obj
 0002:000338a8       $unwind$_putwch            000000014017d8a8     LIBCMT:putwch.obj
 0002:000338c8       $unwind$_putwch$fin$0      000000014017d8c8     LIBCMT:putwch.obj
 0002:000338d0       $unwind$_putwch_nolock     000000014017d8d0     LIBCMT:putwch.obj
 0002:000338d8       $xdatasym                  000000014017d8d8     LIBCMT:strlen.obj
 0002:000338dc       $unwind$__wtomb_environ    000000014017d8dc     LIBCMT:wtombenv.obj
 0002:000338ec       $unwind$calloc             000000014017d8ec     LIBCMT:calloc.obj
 0002:000338f4       $unwind$_mbsnbicoll_l      000000014017d8f4     LIBCMT:mbsnbico.obj
 0002:00033910       $xdatasym                  000000014017d910     LIBCMT:fpsr.obj
 0002:00033918       $unwind$_lock_file         000000014017d918     LIBCMT:_file.obj
 0002:00033920       $unwind$_lock_file2        000000014017d920     LIBCMT:_file.obj
 0002:00033928       $unwind$__initstdio        000000014017d928     LIBCMT:_file.obj
 0002:00033934       $unwind$__endstdio         000000014017d934     LIBCMT:_file.obj
 0002:0003393c       $unwind$fwrite             000000014017d93c     LIBCMT:fwrite.obj
 0002:00033968       $unwind$fwrite$fin$0       000000014017d968     LIBCMT:fwrite.obj
 0002:00033970       $unwind$_fwrite_nolock     000000014017d970     LIBCMT:fwrite.obj
 0002:0003398c       $unwind$strrchr            000000014017d98c     LIBCMT:strrchr.obj
 0002:00033994       $unwind$_fptostr           000000014017d994     LIBCMT:_fptostr.obj
 0002:000339a0       $unwind$_atodbl_l          000000014017d9a0     LIBCMT:atodbl.obj
 0002:000339b4       $unwind$_atoldbl_l         000000014017d9b4     LIBCMT:atodbl.obj
 0002:000339c8       $unwind$__crt_atoflt_l     000000014017d9c8     LIBCMT:atodbl.obj
 0002:000339dc       $unwind$_fltout2           000000014017d9dc     LIBCMT:cfout.obj
 0002:000339f4       $unwind$__dtold            000000014017d9f4     LIBCMT:cfout.obj
 0002:000339fc       $unwind$_set_output_format 000000014017d9fc     LIBCMT:outputformat.obj
 0002:00033a08       $xdatasym                  000000014017da08     LIBCMT:jmpuwind.obj
 0002:00033a1c       $unwind$_ismbbkana_l       000000014017da1c     LIBCMT:ismbbyte.obj
 0002:00033a28       $unwind$?x_ismbbtype_l@@YAHPEAUlocaleinfo_struct@@IHH@Z 000000014017da28     LIBCMT:ismbbyte.obj
 0002:00033a38       $unwind$wcscat_s           000000014017da38     LIBCMT:wcscat_s.obj
 0002:00033a40       $unwind$wcscpy_s           000000014017da40     LIBCMT:wcscpy_s.obj
 0002:00033a48       $unwind$wcsncpy_s          000000014017da48     LIBCMT:wcsncpy_s.obj
 0002:00033a50       $unwind$__crtMessageBoxW   000000014017da50     LIBCMT:crtmboxw.obj
 0002:00033a6c       $unwind$__crtMessageBoxWaitThreadW 000000014017da6c     LIBCMT:crtmboxw.obj
 0002:00033a74       $unwind$__init_monetary    000000014017da74     LIBCMT:initmon.obj
 0002:00033a90       $unwind$__free_lconv_mon   000000014017da90     LIBCMT:initmon.obj
 0002:00033a98       $unwind$__init_numeric     000000014017da98     LIBCMT:initnum.obj
 0002:00033ab4       $unwind$__free_lconv_num   000000014017dab4     LIBCMT:initnum.obj
 0002:00033abc       $unwind$__init_time        000000014017dabc     LIBCMT:inittime.obj
 0002:00033acc       $unwind$_get_lc_time       000000014017dacc     LIBCMT:inittime.obj
 0002:00033ae4       $unwind$__free_lc_time     000000014017dae4     LIBCMT:inittime.obj
 0002:00033aec       $unwind$localeconv         000000014017daec     LIBCMT:lconv.obj
 0002:00033af4       $unwind$__crtGetStringTypeA 000000014017daf4     LIBCMT:a_str.obj
 0002:00033b04       $unwind$?__crtGetStringTypeA_stat@@YAHPEAUlocaleinfo_struct@@KPEBDHPEAGHH@Z 000000014017db04     LIBCMT:a_str.obj
 0002:00033b2c       $unwind$iswctype           000000014017db2c     LIBCMT:iswctype.obj
 0002:00033b34       $unwind$__crtDownlevelLocaleNameToLCID 000000014017db34     LIBCMT:winapinls.obj
 0002:00033b3c       $unwind$__crtDownlevelLCIDToLocaleName 000000014017db3c     LIBCMT:winapinls.obj
 0002:00033b50       $unwind$__crtCompareStringEx 000000014017db50     LIBCMT:winapinls.obj
 0002:00033b60       $unwind$__crtEnumSystemLocalesEx 000000014017db60     LIBCMT:winapinls.obj
 0002:00033b68       $unwind$__crtGetDateFormatEx 000000014017db68     LIBCMT:winapinls.obj
 0002:00033b78       $unwind$__crtGetLocaleInfoEx 000000014017db78     LIBCMT:winapinls.obj
 0002:00033b88       $unwind$__crtGetTimeFormatEx 000000014017db88     LIBCMT:winapinls.obj
 0002:00033b98       $unwind$__crtGetUserDefaultLocaleName 000000014017db98     LIBCMT:winapinls.obj
 0002:00033ba4       $unwind$__crtIsValidLocaleName 000000014017dba4     LIBCMT:winapinls.obj
 0002:00033bac       $unwind$__crtLCMapStringEx 000000014017dbac     LIBCMT:winapinls.obj
 0002:00033bbc       $unwind$GetTableIndexFromLocaleName 000000014017dbbc     LIBCMT:winapinls.obj
 0002:00033bd4       $unwind$__pctype_func      000000014017dbd4     LIBCMT:ctype.obj
 0002:00033bdc       $unwind$___mb_cur_max_func 000000014017dbdc     LIBCMT:initctyp.obj
 0002:00033be4       $unwind$___lc_locale_name_func 000000014017dbe4     LIBCMT:initctyp.obj
 0002:00033bec       $unwind$___lc_codepage_func 000000014017dbec     LIBCMT:initctyp.obj
 0002:00033bf4       $unwind$___lc_collate_cp_func 000000014017dbf4     LIBCMT:initctyp.obj
 0002:00033bfc       $unwind$__init_ctype       000000014017dbfc     LIBCMT:initctyp.obj
 0002:00033c28       $xdatasym                  000000014017dc28     LIBCMT:memcmp.obj
 0002:00033c2c       $unwind$__get_qualified_locale 000000014017dc2c     LIBCMT:getqloc.obj
 0002:00033c4c       $unwind$TranslateName      000000014017dc4c     LIBCMT:getqloc.obj
 0002:00033c68       $unwind$GetLocaleNameFromLangCountry 000000014017dc68     LIBCMT:getqloc.obj
 0002:00033c70       $unwind$LangCountryEnumProcEx 000000014017dc70     LIBCMT:getqloc.obj
 0002:00033c90       $unwind$GetLocaleNameFromLanguage 000000014017dc90     LIBCMT:getqloc.obj
 0002:00033c98       $unwind$LanguageEnumProcEx 000000014017dc98     LIBCMT:getqloc.obj
 0002:00033cb0       $unwind$GetLocaleNameFromDefault 000000014017dcb0     LIBCMT:getqloc.obj
 0002:00033cc4       $unwind$ProcessCodePage    000000014017dcc4     LIBCMT:getqloc.obj
 0002:00033cd4       $unwind$TestDefaultCountry 000000014017dcd4     LIBCMT:getqloc.obj
 0002:00033ce8       $unwind$TestDefaultLanguage 000000014017dce8     LIBCMT:getqloc.obj
 0002:00033cf8       $unwind$__get_qualified_locale_downlevel 000000014017dcf8     LIBCMT:getqloc_downlevel.obj
 0002:00033d14       $unwind$TranslateName      000000014017dd14     LIBCMT:getqloc_downlevel.obj
 0002:00033d30       $unwind$GetLcidFromLangCountry 000000014017dd30     LIBCMT:getqloc_downlevel.obj
 0002:00033d3c       $unwind$LangCountryEnumProc 000000014017dd3c     LIBCMT:getqloc_downlevel.obj
 0002:00033d5c       $unwind$GetLcidFromLanguage 000000014017dd5c     LIBCMT:getqloc_downlevel.obj
 0002:00033d68       $unwind$LanguageEnumProc   000000014017dd68     LIBCMT:getqloc_downlevel.obj
 0002:00033d84       $unwind$GetLcidFromCountry 000000014017dd84     LIBCMT:getqloc_downlevel.obj
 0002:00033d90       $unwind$CountryEnumProc    000000014017dd90     LIBCMT:getqloc_downlevel.obj
 0002:00033db0       $unwind$GetLcidFromDefault 000000014017ddb0     LIBCMT:getqloc_downlevel.obj
 0002:00033db8       $unwind$ProcessCodePage    000000014017ddb8     LIBCMT:getqloc_downlevel.obj
 0002:00033dc8       $unwind$TestDefaultLanguage 000000014017ddc8     LIBCMT:getqloc_downlevel.obj
 0002:00033ddc       $unwind$_recalloc          000000014017dddc     LIBCMT:recalloc.obj
 0002:00033dec       $unwind$_calloc_impl       000000014017ddec     LIBCMT:calloc_impl.obj
 0002:00033df8       $unwind$__crtGetLocaleInfoA 000000014017ddf8     LIBCMT:a_loc.obj
 0002:00033e08       $unwind$?__crtGetLocaleInfoA_stat@@YAHPEAUlocaleinfo_struct@@PEB_WKPEADH@Z 000000014017de08     LIBCMT:a_loc.obj
 0002:00033e30       $unwind$fflush             000000014017de30     LIBCMT:fflush.obj
 0002:00033e54       $unwind$fflush$fin$0       000000014017de54     LIBCMT:fflush.obj
 0002:00033e5c       $unwind$_fflush_nolock     000000014017de5c     LIBCMT:fflush.obj
 0002:00033e64       $unwind$_flush             000000014017de64     LIBCMT:fflush.obj
 0002:00033e74       $unwind$flsall             000000014017de74     LIBCMT:fflush.obj
 0002:00033eb4       $unwind$flsall$fin$0       000000014017deb4     LIBCMT:fflush.obj
 0002:00033ebc       $unwind$flsall$fin$1       000000014017debc     LIBCMT:fflush.obj
 0002:00033ec4       $unwind$_strtod_l          000000014017dec4     LIBCMT:strtod.obj
 0002:00033ee0       $unwind$__initconout       000000014017dee0     LIBCMT:initcon.obj
 0002:00033ee8       $unwind$__termconout       000000014017dee8     LIBCMT:initcon.obj
 0002:00033ef0       $unwind$__crtsetenv        000000014017def0     LIBCMT:setenv.obj
 0002:00033f0c       $unwind$copy_environ       000000014017df0c     LIBCMT:setenv.obj
 0002:00033f1c       $unwind$findenv            000000014017df1c     LIBCMT:setenv.obj
 0002:00033f2c       $unwind$_strnicoll_l       000000014017df2c     LIBCMT:strnicol.obj
 0002:00033f40       $unwind$__crtCompareStringA 000000014017df40     LIBCMT:a_cmp.obj
 0002:00033f50       $unwind$?__crtCompareStringA_stat@@YAHPEAUlocaleinfo_struct@@PEB_WKPEBDH2HH@Z 000000014017df50     LIBCMT:a_cmp.obj
 0002:00033f70       $unwind$_fcloseall         000000014017df70     LIBCMT:closeall.obj
 0002:00033f98       $unwind$_fcloseall$fin$0   000000014017df98     LIBCMT:closeall.obj
 0002:00033fa0       $unwind$_flsbuf            000000014017dfa0     LIBCMT:_flsbuf.obj
 0002:00033fb4       $unwind$_ld12tod           000000014017dfb4     LIBCMT:intrncvt.obj
 0002:00033fd8       $unwind$_ld12tof           000000014017dfd8     LIBCMT:intrncvt.obj
 0002:00033ffc       $unwind$_ld12told          000000014017dffc     LIBCMT:intrncvt.obj
 0002:00034014       $unwind$_RoundMan          000000014017e014     LIBCMT:intrncvt.obj
 0002:0003402c       $unwind$_ShrMan            000000014017e02c     LIBCMT:intrncvt.obj
 0002:00034040       $unwind$_ld12cvt           000000014017e040     LIBCMT:intrncvt.obj
 0002:00034060       $unwind$__strgtold12_l     000000014017e060     LIBCMT:strgtold.obj
 0002:00034084       $unwind$__STRINGTOLD_L     000000014017e084     LIBCMT:strgtold.obj
 0002:00034098       $unwind$__multtenpow12     000000014017e098     LIBCMT:strgtold.obj
 0002:000340bc       $unwind$__ld12mul          000000014017e0bc     LIBCMT:strgtold.obj
 0002:000340e0       $unwind$$I10_OUTPUT        000000014017e0e0     LIBCMT:x10fout.obj
 0002:00034104       $unwind$_itow_s            000000014017e104     LIBCMT:xtows.obj
 0002:0003410c       $unwind$_ltow_s            000000014017e10c     LIBCMT:xtows.obj
 0002:00034114       $unwind$_ultow_s           000000014017e114     LIBCMT:xtows.obj
 0002:0003411c       $unwind$_i64tow_s          000000014017e11c     LIBCMT:xtows.obj
 0002:00034124       $unwind$_ui64tow_s         000000014017e124     LIBCMT:xtows.obj
 0002:0003412c       $unwind$xtow_s             000000014017e12c     LIBCMT:xtows.obj
 0002:00034140       $unwind$x64tow_s           000000014017e140     LIBCMT:xtows.obj
 0002:00034154       $unwind$wcschr             000000014017e154     LIBCMT:wcschr.obj
 0002:0003415c       $unwind$_wcsicmp           000000014017e15c     LIBCMT:wcsicmp.obj
 0002:00034164       $unwind$_wcsicmp_l         000000014017e164     LIBCMT:wcsicmp.obj
 0002:00034178       $unwind$_wcsnicmp          000000014017e178     LIBCMT:wcsnicmp.obj
 0002:00034180       $unwind$_wcsnicmp_l        000000014017e180     LIBCMT:wcsnicmp.obj
 0002:00034198       $unwind$_commit            000000014017e198     LIBCMT:commit.obj
 0002:000341c0       $unwind$_commit$fin$0      000000014017e1c0     LIBCMT:commit.obj
 0002:000341c8       $unwind$_fltin2            000000014017e1c8     LIBCMT:cfin.obj
 0002:000341e0       $unwind$_strdup            000000014017e1e0     LIBCMT:strdup.obj
 0002:000341f0       $unwind$_mbschr_l          000000014017e1f0     LIBCMT:mbschr.obj
 0002:00034200       $unwind$_strnicmp          000000014017e200     LIBCMT:strnicmp.obj
 0002:00034208       $unwind$_strnicmp_l        000000014017e208     LIBCMT:strnicmp.obj
 0002:0003421c       $unwind$fclose             000000014017e21c     LIBCMT:fclose.obj
 0002:00034240       $unwind$fclose$fin$0       000000014017e240     LIBCMT:fclose.obj
 0002:00034248       $unwind$_fclose_nolock     000000014017e248     LIBCMT:fclose.obj
 0002:00034254       $unwind$_getbuf            000000014017e254     LIBCMT:_getbuf.obj
 0002:0003425c       $unwind$__mtold12          000000014017e25c     LIBCMT:mantold.obj
 0002:00034274       $unwind$?wcstoxl@@YAKPEB_WPEAPEB_WHH@Z 000000014017e274     LIBCMT:wcstol.obj
 0002:0003428c       $unwind$_wcstoll_l         000000014017e28c     LIBCMT:wcstoq.obj
 0002:00034294       $unwind$_wcstoull_l        000000014017e294     LIBCMT:wcstoq.obj
 0002:0003429c       $unwind$_wcstof_l          000000014017e29c     LIBCMT:wcstoq.obj
 0002:000342b0       $unwind$_wcstoi64          000000014017e2b0     LIBCMT:wcstoq.obj
 0002:000342b8       $unwind$_wcstoi64_l        000000014017e2b8     LIBCMT:wcstoq.obj
 0002:000342c0       $unwind$_wcstoui64         000000014017e2c0     LIBCMT:wcstoq.obj
 0002:000342c8       $unwind$_wcstoui64_l       000000014017e2c8     LIBCMT:wcstoq.obj
 0002:000342d0       $unwind$?wcstoxq@@YA_KPEAUlocaleinfo_struct@@PEB_WPEAPEB_WHH@Z 000000014017e2d0     LIBCMT:wcstoq.obj
 0002:000342e8       $unwind$_wcstoimax_l       000000014017e2e8     LIBCMT:wcstoq.obj
 0002:000342f0       $unwind$_wcstoumax_l       000000014017e2f0     LIBCMT:wcstoq.obj
 0002:000342f8       $unwind$_towlower_l        000000014017e2f8     LIBCMT:towlower.obj
 0002:00034304       $unwind$strchr             000000014017e304     LIBCMT:strchr.obj
 0002:0003430c       $unwind$_close             000000014017e30c     LIBCMT:close.obj
 0002:00034334       $unwind$_close$fin$0       000000014017e334     LIBCMT:close.obj
 0002:0003433c       $unwind$_close_nolock      000000014017e33c     LIBCMT:close.obj
 0002:00034348       $unwind$_freebuf           000000014017e348     LIBCMT:_freebuf.obj
 0002:00034350       $unwind$_wcstod_l          000000014017e350     LIBCMT:wcstod.obj
 0002:0003436c       $unwind$__crtLCMapStringW  000000014017e36c     LIBCMT:w_map.obj
 0002:0003437c       $unwind$_wfltin2           000000014017e37c     LIBCMT:wcfin.obj
 0002:00034394       $unwind$__wstrgtold12_l    000000014017e394     LIBCMT:wstrgtold.obj
 0002:000343b8       $unwind$__WSTRINGTOLD_L    000000014017e3b8     LIBCMT:wstrgtold.obj
 0002:00035090       $xdatasym                  000000014017f090     LIBCMT:strncat.obj
 0002:00035094       $unwind$strcat_s           000000014017f094     LIBCMT:strcat_s.obj
 0002:0003509c       $unwind$strtok             000000014017f09c     LIBCMT:strtok.obj
 0002:000350b0       $xdatasym                  000000014017f0b0     LIBCMT:strcat.obj
 0002:000350b8       $unwind$_splitpath         000000014017f0b8     LIBCMT:splitpat.obj
 0002:000350c8       $unwind$_splitpath_helper  000000014017f0c8     LIBCMT:splitpat.obj
 0002:000350e0       $unwind$_mbsnbcpy_s        000000014017f0e0     LIBCMT:mbsnbcpy_s.obj
 0002:000350e8       $unwind$LoadOperand        000000014017f0e8     LIBCMT:filter_simd.obj
 0002:000350f4       $unwind$LoopDppxSimdValue  000000014017f0f4     LIBCMT:filter_simd.obj
 0002:00035110       $unwind$DppxEmulationWrapper 000000014017f110     LIBCMT:filter_simd.obj
 0002:0003512c       $unwind$sib0               000000014017f12c     LIBCMT:filter_simd.obj
 0002:0003513c       $unwind$sib8               000000014017f13c     LIBCMT:filter_simd.obj
 0002:0003514c       $unwind$sib32              000000014017f14c     LIBCMT:filter_simd.obj
 0002:0003515c       $unwind$_fpieee_flt_simd   000000014017f15c     LIBCMT:filter_simd.obj
 0002:000351a4       $unwind$_mbsnbcpy_s_l      000000014017f1a4     LIBCMT:mbsnbcpy_s_l.obj
 0002:000351bc       $unwind$RoundFloatToIntegral 000000014017f1bc     LIBCMT:xmmi_fp_emul.obj
 0002:000351d4       $unwind$_XMMI_FP_Emulation 000000014017f1d4     LIBCMT:xmmi_fp_emul.obj
 0002:000351f8       $unwind$RoundDoubleToIntegral 000000014017f1f8     LIBCMT:xmmi2_fp_emul.obj
 0002:00035210       $unwind$_XMMI2_FP_Emulation 000000014017f210     LIBCMT:xmmi2_fp_emul.obj
 0002:00035234       $unwind$__GSHandlerCheck_SEH 000000014017f234     LIBCMT:gshandlerseh.obj
 0002:0003596c       .idata$6                   000000014017f96c     SCIPtool:SCIPtool.dll
 0002:000359b8       .idata$6                   000000014017f9b8     SWIM:SWIM.dll
 0002:00035a70       .idata$6                   000000014017fa70     SYStool:SYStool.dll
 0002:00035a7c       .idata$6                   000000014017fa7c     libiomp5md:libiomp5md.dll
 0002:000363fe       .idata$6                   00000001401803fe     KERNEL32:KERNEL32.dll
 0002:00036438       .idata$6                   0000000140180438     ImageHlp:imagehlp.dll
 0003:000004c0       LOADSEN$format_pack.0.2    00000001401814c0     LoadSen.obj
 0003:00001160       RUNSCI$format_pack.0.2     0000000140182160     runSCI.obj
 0003:00001384       .2.19_2_kmpc_loc_struct_pack.37 0000000140182384     runSCI.obj
 0003:0000139c       .2.19_2__kmpc_loc_pack.36  000000014018239c     runSCI.obj
 0003:000013c0       TIMETOSTRING$format_pack.0.6 00000001401823c0     runSCI.obj
 0003:00001540       RUNSCIRDCMDLINE$format_pack.0.4 0000000140182540     runSCI.obj
 0003:00001660       TOOLCALLBACK$format_pack.0.3 0000000140182660     runSCI.obj
 0003:00001720       PARSEDATASO$format_pack.0.1 0000000140182720     ParseDataSO.obj
 0003:00001a80       WRITEPRIMEFILE$format_pack.0.2 0000000140182a80     ParseDataSO.obj
 0003:00001b00       SETSRCPARAMMC$format_pack.0.8 0000000140182b00     ParseDataSO.obj
 0003:00001b60       REALLOCRELLIST$format_pack.0.3 0000000140182b60     ParseDataSO.obj
 0003:00001b80       PARSEDATARE$format_pack.0.1 0000000140182b80     ParseDataRE.obj
 0003:00001dc0       PARSEDATATE$format_pack.0.1 0000000140182dc0     ParseDataTE.obj
 0003:00001e00       PARSEDATAME$format_pack.0.1 0000000140182e00     ParseDataME.obj
 0003:000020e0       RUNAERMODINP$format_pack.0.1 00000001401830e0     RunAERMODInp.obj
 0003:00002160       REPORTDEFAULTS$format_pack.0.2 0000000140183160     RunAERMODInp.obj
 0003:000022c0       PARSEDATACO$format_pack.0.1 00000001401832c0     ParseDataCO.obj
 0003:00002560       GENSCIPUFFAREASOURCE$format_pack.0.1 0000000140183560     GenSCIPUFFAreaSource.obj
 0003:0000256c       REALLOCMCRELLIST$format_pack.0.4 000000014018356c     GenSCIPUFFAreaSource.obj
 0003:00002584       PARSEDATASC$format_pack.0.3 0000000140183584     ReadArrayLimits.obj
 0003:000025a8       READPATHWAYSC$format_pack.0.2 00000001401835a8     ReadArrayLimits.obj
 0003:000025b4       GETZRUFFROMWEATHER$format_pack.0.1 00000001401835b4     GetZrufFromWeather.obj
 0003:000025f0       FILEINPUT$format_pack.0.1  00000001401835f0     FileInput.obj
 0003:0000262c       READAERMODINPUT$format_pack.0.1 000000014018362c     ReadAERMODInput.obj
 0003:0000265c       READPATHWAY$format_pack.0.2 000000014018365c     ReadAERMODInput.obj
 0003:00002680       GENSCIPUFFWEATHER$format_pack.0.1 0000000140183680     GenSCIPUFFWeather.obj
 0003:000027a0       READNEXTREL$format_pack.0.2 00000001401837a0     UpdateContRel.obj
 0003:000027c0       INITSCIPUFFPROJECT$format_pack.0.1 00000001401837c0     InitSCIPUFFProject.obj
 0003:00002820       GETTIMEFROMWEATHER$format_pack.0.1 0000000140183820     GetTimeFromWeather.obj
 0003:000028c0       SKIPMETHEADERAERMOD$format_pack.0.6 00000001401838c0     GetTimeFromWeather.obj
 0003:00002988       SKIPMODELHEADERAERMOD$format_pack.0.4 0000000140183988     GetTimeFromWeather.obj
 0003:0000299c       SKIPMET2DAERMOD$format_pack.0.8 000000014018399c     GetTimeFromWeather.obj
 0003:000029c4       SKIPMET3DAERMOD$format_pack.0.7 00000001401839c4     GetTimeFromWeather.obj
 0003:00002a00       SETEMISSIONS$format_pack.0.1 0000000140183a00     ReadEmissionFile.obj
 0003:00002a40       PARSEHOUREMIS$format_pack.0.3 0000000140183a40     ReadEmissionFile.obj
 0003:00002b80       READNEXTEMISSION$format_pack.0.2 0000000140183b80     ReadEmissionFile.obj
 0003:00002c60       GETDOMREFFROMWEATHER$format_pack.0.1 0000000140183c60     GetDomRefFromWeather.obj
 0003:00002ce0       SETSCIPUFFDOMAIN$format_pack.0.1 0000000140183ce0     SetSCIPUFFDomain.obj
 0003:00002d20       PARSEDATAMA$format_pack.0.1 0000000140183d20     ParseDataMA.obj
 0003:00002e1c       FINDMATLNAME$format_pack.0.2 0000000140183e1c     ParseDataMA.obj
 0003:00002e34       GETMATLDENSITY$format_pack.0.3 0000000140183e34     ParseDataMA.obj
 0003:00002e80       PARSEDATAOU$format_pack.0.1 0000000140183e80     ParseDataOU.obj
 0003:00002ea0       GENSCIPUFFSENSOR$format_pack.0.1 0000000140183ea0     GenSCIPUFFSensor.obj
 0003:00002f0c       GENPOLARGRID$format_pack.0.4 0000000140183f0c     GenSCIPUFFSensor.obj
 0003:00002f48       GENRECTGRID$format_pack.0.3 0000000140183f48     GenSCIPUFFSensor.obj
 0003:00002fa0       GENDISCLIST$format_pack.0.2 0000000140183fa0     GenSCIPUFFSensor.obj
 0003:00003000       JULIAN_DAY$NDAY.0.1        0000000140184000     SCIPUFFlib:julian.obj
 0003:00003030       JULIAN_DAY$MDAY.0.1        0000000140184030     SCIPUFFlib:julian.obj
 0003:00003060       GET_NEXT_DATA$format_pack.0.1 0000000140184060     SCIPUFFlib:get_next_data.obj
 0003:0000306c       INIT_NEXT_DATA$format_pack.0.4 000000014018406c     SCIPUFFlib:get_next_data.obj
 0003:00003078       C_FORMAT$FMT.0.1           0000000140184078     SCIPUFFlib:cformat.obj
 0003:000030a8       D_FORMAT$format_pack.0.3   00000001401840a8     SCIPUFFlib:cformat.obj
 0003:000030d0       endianvarname              00000001401840d0     libifcoremt:for_open.obj
 0003:000030d8       rectypevarname             00000001401840d8     libifcoremt:for_open.obj
 0003:000030e0       for__fastmem_policy.4818.0.11 00000001401840e0     libifcoremt:for_vm.obj
 0003:000030e4       need_to_check_KMP          00000001401840e4     libifcoremt:for_vm.obj
 0003:000030e8       cannot_find_char.5575.0.6  00000001401840e8     libifcoremt:for_rint_lis.obj
 0003:00003188       global_resources_recurschk 0000000140184188     libifcoremt:for_reentrancy.obj
 0003:000031a0       global_resources           00000001401841a0     libifcoremt:for_reentrancy.obj
 0003:000031e0       cannot_find_char.5651.0.8  00000001401841e0     libifcoremt:for_rseq_lis.obj
 0003:00003200       msf_def_stopstr_msg        0000000140184200     libifcoremt:for_stop.obj
 0003:00003240       msf_def_stopn_msg          0000000140184240     libifcoremt:for_stop.obj
 0003:00003280       first_time.4239.0.1        0000000140184280     libifcoremt:for_diags_intel.obj
 0003:00003284       desc_lst.4524.0.10         0000000140184284     libifcoremt:for_diags_intel.obj
 0003:000032a0       for_msgtab_intel           00000001401842a0     libifcoremt:for_diags_intel.obj
 0003:000054a0       for__dec_error_header      00000001401864a0     libifcoremt:for_diags_intel.obj
 0003:000054e0       first_msg                  00000001401864e0     libifcoremt:for_diags_intel.obj
 0003:000054e8       use_internal_msg           00000001401864e8     libifcoremt:for_diags_intel.obj
 0003:000054f0       severity_table             00000001401864f0     libifcoremt:for_diags_intel.obj
 0003:00005520       forrtl_header              0000000140186520     libifcoremt:for_diags_intel.obj
 0003:00005540       looper.5122.0.13           0000000140186540     libifcoremt:for_lub_mgt.obj
 0003:00005544       old_context.5122.0.13      0000000140186544     libifcoremt:for_lub_mgt.obj
 0003:00005548       for__newunit_curr          0000000140186548     libifcoremt:for_lub_mgt.obj
 0003:0000554c       env_var_value.5084.0.15    000000014018654c     libifcoremt:for_aio.obj
 0003:00005550       current_arg.6325.0.8       0000000140186550     libifcoremt:for_nt_open_proc.obj
 0003:000055e0       __exp2_tbl                 00000001401865e0     libmmt:expf_avx2.obj
 0003:000056e0       Sd                         00000001401866e0     libmmt:expf_avx2.obj
 0003:000056e8       L2E                        00000001401866e8     libmmt:expf_avx2.obj
 0003:000056f0       L2                         00000001401866f0     libmmt:expf_avx2.obj
 0003:00005700       __tbl                      0000000140186700     libmmt:cosf_avx2.obj
 0003:00005b00       RShifter                   0000000140186b00     libmmt:cosf_avx2.obj
 0003:00005b08       InvPi                      0000000140186b08     libmmt:cosf_avx2.obj
 0003:00005b10       Pi_h                       0000000140186b10     libmmt:cosf_avx2.obj
 0003:00005b18       Pi_l                       0000000140186b18     libmmt:cosf_avx2.obj
 0003:00005b20       two                        0000000140186b20     libmmt:cosf_avx2.obj
 0003:00005b24       half                       0000000140186b24     libmmt:cosf_avx2.obj
 0003:00005b40       __log1p_tbl                0000000140186b40     libmmt:log10f_avx2.obj
 0003:00006360       __tbl                      0000000140187360     libmmt:sinf_avx2.obj
 0003:00006760       RShifter                   0000000140187760     libmmt:sinf_avx2.obj
 0003:00006768       InvPi                      0000000140187768     libmmt:sinf_avx2.obj
 0003:00006770       Pi_h                       0000000140187770     libmmt:sinf_avx2.obj
 0003:00006778       Pi_l                       0000000140187778     libmmt:sinf_avx2.obj
 0003:00006780       one                        0000000140187780     libmmt:sinf_avx2.obj
 0003:000067a0       __tanf_tbl                 00000001401877a0     libmmt:tanf_avx2.obj
 0003:00006fa0       RShifter                   0000000140187fa0     libmmt:tanf_avx2.obj
 0003:00006fa8       InvPi                      0000000140187fa8     libmmt:tanf_avx2.obj
 0003:00006fb0       Pi_h                       0000000140187fb0     libmmt:tanf_avx2.obj
 0003:00006fb8       Pi_l                       0000000140187fb8     libmmt:tanf_avx2.obj
 0003:00006fc0       one                        0000000140187fc0     libmmt:tanf_avx2.obj
 0003:00006fe0       __asinf_coeffs             0000000140187fe0     libmmt:asinf_avx2.obj
 0003:000075a0       PI2H                       00000001401885a0     libmmt:asinf_avx2.obj
 0003:000075a8       Shifter_d                  00000001401885a8     libmmt:asinf_avx2.obj
 0003:000075b0       half                       00000001401885b0     libmmt:asinf_avx2.obj
 0003:000075b4       Shifter                    00000001401885b4     libmmt:asinf_avx2.obj
 0003:000075b8       inf                        00000001401885b8     libmmt:asinf_avx2.obj
 0003:000075c0       __asinf_coeffs             00000001401885c0     libmmt:acosf_avx2.obj
 0003:00007b80       PIH                        0000000140188b80     libmmt:acosf_avx2.obj
 0003:00007b90       Shifter_d                  0000000140188b90     libmmt:acosf_avx2.obj
 0003:00007b98       PI2H                       0000000140188b98     libmmt:acosf_avx2.obj
 0003:00007ba0       half                       0000000140188ba0     libmmt:acosf_avx2.obj
 0003:00007ba4       Shifter                    0000000140188ba4     libmmt:acosf_avx2.obj
 0003:00007ba8       inf                        0000000140188ba8     libmmt:acosf_avx2.obj
 0003:00007bc0       __atanf_tbl                0000000140188bc0     libmmt:atan2f_avx2.obj
 0003:000083d0       Pi2                        00000001401893d0     libmmt:atan2f_avx2.obj
 0003:000083d4       Pi2_low                    00000001401893d4     libmmt:atan2f_avx2.obj
 0003:00008400       use_message_catalog        0000000140189400     libmmt:libm_error.obj
 0003:00008420       __tan_tbl                  0000000140189420     libmmt:tan_avx2.obj
 0003:0000a620       __tan_c0_tbl               000000014018b620     libmmt:tan_avx2.obj
 0003:0000b820       Shifter                    000000014018c820     libmmt:tan_avx2.obj
 0003:0000b828       InvPi                      000000014018c828     libmmt:tan_avx2.obj
 0003:0000b830       PI2_BITS                   000000014018c830     libmmt:tan_avx2.obj
 0003:0000b838       PI3_BITS                   000000014018c838     libmmt:tan_avx2.obj
 0003:0000b870       errtable                   000000014018c870     LIBCMT:dosmap.obj
 0003:0000b9d8       ErrnoNoMem                 000000014018c9d8     LIBCMT:dosmap.obj
 0003:0000b9dc       DoserrorNoMem              000000014018c9dc     LIBCMT:dosmap.obj
 0003:0000bee8       __rgctypeflag              000000014018cee8     LIBCMT:mbctype.obj
 0003:0000bef0       __rgcode_page_info         000000014018cef0     LIBCMT:mbctype.obj
 0003:0000c430       _ctype_loc_style           000000014018d430     LIBCMT:wsetloca.obj
 0003:0000c440       _locktable                 000000014018d440     LIBCMT:mlock.obj
 0003:0000c680       ?isPackaged@?1??__crtIsPackagedApp@@9@9 000000014018d680     LIBCMT:winapisupp.obj
 0003:0000cb18       DoubleFormat               000000014018db18     LIBCMT:intrncvt.obj
 0003:0000cb30       FloatFormat                000000014018db30     LIBCMT:intrncvt.obj
 0003:0000d140       p_one                      000000014018e140     libirc:ia32_divq.obj
 0003:0000d148       p_norm                     000000014018e148     libirc:ia32_divq.obj
 0003:0000d150       p_huge                     000000014018e150     libirc:ia32_divq.obj
 0003:0000d158       p_half                     000000014018e158     libirc:ia32_divq.obj
 0003:0000d160       p_zero                     000000014018e160     libirc:ia32_divq.obj
 0003:0000d168       p_tiny                     000000014018e168     libirc:ia32_divq.obj
 0003:0000d170       p_one                      000000014018e170     libirc:ia32_addsubq.obj
 0003:0000d178       p_norm                     000000014018e178     libirc:ia32_addsubq.obj
 0003:0000d180       p_huge                     000000014018e180     libirc:ia32_addsubq.obj
 0003:0000d188       p_tiny                     000000014018e188     libirc:ia32_addsubq.obj
 0003:0000d190       p_zero                     000000014018e190     libirc:ia32_addsubq.obj
 0003:0000d198       p_tiny                     000000014018e198     libirc:q2fp.obj
 0003:0000d1a0       p_one                      000000014018e1a0     libirc:q2fp.obj
 0003:0000d1a8       p_huge                     000000014018e1a8     libirc:q2fp.obj
 0003:0000d1b0       p_norm                     000000014018e1b0     libirc:q2fp.obj
 0003:0000d1b8       p_zero                     000000014018e1b8     libirc:q2fp.obj
 0003:0000d1c0       first_msg                  000000014018e1c0     libirc:irc_msg_support.obj
 0003:0000d1c4       use_internal_msg           000000014018e1c4     libirc:irc_msg_support.obj
 0003:0000d1e0       cpuid2_cache_tbl           000000014018e1e0     libirc:fast_mem_ops.obj
 0003:0000da00       __MIN_DOUBLE_NORMAL        000000014018ea00     LIBCMT:xmmi2_fp_emul.obj
 0003:0000da08       __TWO_TO_768               000000014018ea08     LIBCMT:xmmi2_fp_emul.obj
 0003:0000da60       .T4383_.0.3                000000014018ea60     runSCI.obj
 0003:0000dac0       exceptionbeg               000000014018eac0     libifcoremt:for_open.obj
 0003:0000dbc0       exceptionend               000000014018ebc0     libifcoremt:for_open.obj
 0003:0000dcc0       rectype_exceptionbeg       000000014018ecc0     libifcoremt:for_open.obj
 0003:0000ddc0       rectype_exceptionend       000000014018edc0     libifcoremt:for_open.obj
 0003:0000dec0       endianmode                 000000014018eec0     libifcoremt:for_open.obj
 0003:0000dec4       endianexception            000000014018eec4     libifcoremt:for_open.obj
 0003:0000dec8       exceptioncount             000000014018eec8     libifcoremt:for_open.obj
 0003:0000decc       endian_var_scanned         000000014018eecc     libifcoremt:for_open.obj
 0003:0000ded0       rectype_var_scanned        000000014018eed0     libifcoremt:for_open.obj
 0003:0000ded4       rectype_mode               000000014018eed4     libifcoremt:for_open.obj
 0003:0000ded8       rectype_exception          000000014018eed8     libifcoremt:for_open.obj
 0003:0000dedc       rectype_exceptioncount     000000014018eedc     libifcoremt:for_open.obj
 0003:0000df00       for__hbw_availability.4821.0.12 000000014018ef00     libifcoremt:for_vm.obj
 0003:0000df20       for__vm_alloc_table        000000014018ef20     libifcoremt:for_vm.obj
 0003:00016120       KMP_is_available           0000000140197120     libifcoremt:for_vm.obj
 0003:00016124       for__protect_vmalloc_table 0000000140197124     libifcoremt:for_vm.obj
 0003:00016140       reentrancy_cleanup_once_block 0000000140197140     libifcoremt:for_reentrancy.obj
 0003:00016148       threadstor_index           0000000140197148     libifcoremt:for_reentrancy.obj
 0003:0001614c       done.4906.0.14             000000014019714c     libifcoremt:for_reentrancy.obj
 0003:00016150       threadstor_init_once_block 0000000140197150     libifcoremt:for_reentrancy.obj
 0003:00016158       reentrancy_init_once_block 0000000140197158     libifcoremt:for_reentrancy.obj
 0003:00016164       stop_msg_done_block        0000000140197164     libifcoremt:for_stop.obj
 0003:00016180       ptr_to_THIS_IMAGE.4239.0.1 0000000140197180     libifcoremt:for_diags_intel.obj
 0003:00016188       this_image_number.4239.0.1 0000000140197188     libifcoremt:for_diags_intel.obj
 0003:000161a0       fmt_buf.4588.0.12          00000001401971a0     libifcoremt:for_diags_intel.obj
 0003:000162c0       tmp_buf                    00000001401972c0     libifcoremt:for_diags_intel.obj
 0003:000163c0       tmp_ptr                    00000001401973c0     libifcoremt:for_diags_intel.obj
 0003:000163c8       current_user_error_handler 00000001401973c8     libifcoremt:for_diags_intel.obj
 0003:000163d0       current_user_error_context 00000001401973d0     libifcoremt:for_diags_intel.obj
 0003:000163e8       tmp_sev                    00000001401973e8     libifcoremt:for_diags_intel.obj
 0003:000163ec       abort_on_exit              00000001401973ec     libifcoremt:for_diags_intel.obj
 0003:000163f0       redirect_stderr_once_block.4625.0.16 00000001401973f0     libifcoremt:for_diags_intel.obj
 0003:00016400       old_star_lub.5122.0.13     0000000140197400     libifcoremt:for_lub_mgt.obj
 0003:0001ed48       for__newunit_mask          000000014019fd48     libifcoremt:for_lub_mgt.obj
 0003:0001ed50       for__newunit_flag          000000014019fd50     libifcoremt:for_lub_mgt.obj
 0003:0001ed60       aio_lub_mutex              000000014019fd60     libifcoremt:for_aio.obj
 0003:0001ed88       aio_lub_table_mutex        000000014019fd88     libifcoremt:for_aio.obj
 0003:0001edb0       aio_lub                    000000014019fdb0     libifcoremt:for_aio.obj
 0003:0001edb8       OpenThread_ptr             000000014019fdb8     libifcoremt:for_aio.obj
 0003:0001edc0       aio_rte_thread             000000014019fdc0     libifcoremt:for_aio.obj
 0003:0001edd0       threads_in_flight          000000014019fdd0     libifcoremt:for_aio.obj
 0003:0001edd8       thread_count               000000014019fdd8     libifcoremt:for_aio.obj
 0003:0001ede0       count.4738.0.3             000000014019fde0     libifcoremt:for_aio.obj
 0003:0001ede4       aio_init_flg               000000014019fde4     libifcoremt:for_aio.obj
 0003:0001ede8       aio_init_once_block        000000014019fde8     libifcoremt:for_aio.obj
 0003:0001edf8       iteration.4809.0.2         000000014019fdf8     libifcoremt:for_get.obj
 0003:00024fc0       for_process_start_time     00000001401a5fc0     libifcoremt:for_init.obj
 0003:00024fc8       static_1_argv.4357.0.5     00000001401a5fc8     libifcoremt:for_init.obj
 0003:00024fd8       rtl_init_once_block.4318.0.3 00000001401a5fd8     libifcoremt:for_init.obj
 0003:00025014       for__protect_trace_ops     00000001401a6014     libifcoremt:tbk_traceback.obj
 0003:00025018       for__posix_io_flag_sem.4857.0.5 00000001401a6018     libifcoremt:for_portlib.obj
 0003:00025020       lub_read.4771.0.1          00000001401a6020     libifcoremt:for_preconnected_units_init.obj
 0003:000252c0       lub_accept.4771.0.1        00000001401a62c0     libifcoremt:for_preconnected_units_init.obj
 0003:00025560       lub_print.4771.0.1         00000001401a6560     libifcoremt:for_preconnected_units_init.obj
 0003:00025800       lub_type.4771.0.1          00000001401a6800     libifcoremt:for_preconnected_units_init.obj
 0003:00025aa0       lub_stderr.4771.0.1        00000001401a6aa0     libifcoremt:for_preconnected_units_init.obj
 0003:00025d40       lub_read_5.4771.0.1        00000001401a6d40     libifcoremt:for_preconnected_units_init.obj
 0003:00025fe0       lub_print_6.4771.0.1       00000001401a6fe0     libifcoremt:for_preconnected_units_init.obj
 0003:00026284       zero                       00000001401a7284     libmmt:log10f_avx2.obj
 0003:00026288       zero                       00000001401a7288     libmmt:asinf_avx2.obj
 0003:0002628c       zero                       00000001401a728c     libmmt:acosf_avx2.obj
 0003:00026290       message_catalog            00000001401a7290     libmmt:libm_error.obj
 0003:000262b0       ctrlc_action               00000001401a72b0     LIBCMT:winsig.obj
 0003:000262b8       ctrlbreak_action           00000001401a72b8     LIBCMT:winsig.obj
 0003:000262c0       abort_action               00000001401a72c0     LIBCMT:winsig.obj
 0003:000262c8       term_action                00000001401a72c8     LIBCMT:winsig.obj
 0003:000262d0       ConsoleCtrlHandler_Installed 00000001401a72d0     LIBCMT:winsig.obj
 0003:000262d8       start_tics                 00000001401a72d8     LIBCMT:clock.obj
 0003:00026550       ?_pgmname@?1??_setargv@@9@9 00000001401a7550     LIBCMT:stdargv.obj
 0003:00026670       ?outmsg@?8??_NMSG_WRITE@@9@9 00000001401a7670     LIBCMT:crt0msg.obj
 0003:00026ca0       GS_ExceptionRecord         00000001401a7ca0     LIBCMT:gs_report.obj
 0003:00026d40       GS_ContextRecord           00000001401a7d40     LIBCMT:gs_report.obj
 0003:00027210       DebuggerWasPresent         00000001401a8210     LIBCMT:gs_report.obj
 0003:00027238       fSystemSet                 00000001401a8238     LIBCMT:mbctype.obj
 0003:00027260       lclcritsects               00000001401a8260     LIBCMT:mlock.obj
 0003:000274a8       g_pfnRtlGenRandom          00000001401a84a8     LIBCMT:rand_s.obj
 0003:000274c8       ?pfnMessageBox@?1??__crtMessageBoxW@@9@9 00000001401a84c8     LIBCMT:crtmboxw.obj
 0003:000274d0       ?pfnGetActiveWindow@?1??__crtMessageBoxW@@9@9 00000001401a84d0     LIBCMT:crtmboxw.obj
 0003:000274d8       ?pfnGetLastActivePopup@?1??__crtMessageBoxW@@9@9 00000001401a84d8     LIBCMT:crtmboxw.obj
 0003:000274e0       ?pfnGetProcessWindowStation@?1??__crtMessageBoxW@@9@9 00000001401a84e0     LIBCMT:crtmboxw.obj
 0003:000274e8       ?pfnGetUserObjectInformation@?1??__crtMessageBoxW@@9@9 00000001401a84e8     LIBCMT:crtmboxw.obj
 0003:000274f8       __crtCallProc              00000001401a84f8     LIBCMT:winapinls.obj
 0003:00027500       __intel_wrapper_init_mutex.11813.0.31 00000001401a8500     libirc:intel_lib_vs_wrappers_init.obj
 0003:00027540       icrt___iob                 00000001401a8540     libirc:intel_lib_vs_wrappers_init.obj
 0003:000275d0       icrt___stdio_common_vfprintf 00000001401a85d0     libirc:intel_lib_vs_wrappers_init.obj
 0003:000275d8       icrt___stdio_common_vfwprintf 00000001401a85d8     libirc:intel_lib_vs_wrappers_init.obj
 0003:000275e0       icrt___stdio_common_vsprintf 00000001401a85e0     libirc:intel_lib_vs_wrappers_init.obj
 0003:000275e8       icrt___stdio_common_vswprintf 00000001401a85e8     libirc:intel_lib_vs_wrappers_init.obj
 0003:000275f0       icrt___stdio_common_vsscanf 00000001401a85f0     libirc:intel_lib_vs_wrappers_init.obj
 0003:000275f8       icrt___acrt_iob_func       00000001401a85f8     libirc:intel_lib_vs_wrappers_init.obj
 0003:00027600       g_last_token               00000001401a8600     libirc:sse2_strtok.obj
 0003:00027620       get_msg_buf                00000001401a8620     libirc:irc_msg_support.obj
 0003:00027820       get_text_buf               00000001401a8820     libirc:irc_msg_support.obj
 0003:00027a20       print_buf                  00000001401a8a20     libirc:irc_msg_support.obj
 0003:00027c20       message_catalog            00000001401a8c20     libirc:irc_msg_support.obj
 0003:00027c40       pRtlCaptureContext.12231.0.1 00000001401a8c40     libirc:tbk_backtrace.obj
 0003:00027c60       error_msg                  00000001401a8c60     libirc:tbk_backtrace.obj
 0003:00027ce0       __libirc_cache_tbl         00000001401a8ce0     libirc:fast_mem_ops.obj
 0003:00027d20       __libirc_tmp               00000001401a8d20     libirc:fast_mem_ops.obj
 0003:00027d48       eptr                       00000001401a8d48     libifcoremt:for_main.obj
 0003:00027d50       fpe_ieee_sts               00000001401a8d50     libifcoremt:for_main.obj
 0004:00005af0       $pdata$address_promptcompoutarray 00000001401ffaf0     ARAPlib_lib:C2Fortran.obj
 0004:00005afc       $pdata$promptcompoutarray_address_ 00000001401ffafc     ARAPlib_lib:C2Fortran.obj
 0004:00005b20       $pdata$__tmainCRTStartup   00000001401ffb20     LIBCMT:crt0.obj
 0004:00005b2c       $pdata$fast_error_exit     00000001401ffb2c     LIBCMT:crt0.obj
 0004:00005b38       $pdata$mainCRTStartup      00000001401ffb38     LIBCMT:crt0.obj
 0004:00005b50       $pdata$__GSHandlerCheck    00000001401ffb50     LIBCMT:gshandler.obj
 0004:00005b5c       $pdata$__GSHandlerCheckCommon 00000001401ffb5c     LIBCMT:gshandler.obj
 0004:00005b68       $pdata$strstr              00000001401ffb68     LIBCMT:strstr.obj
 0004:00005b74       $pdata$??0_LocaleUpdate@@QEAA@PEAUlocaleinfo_struct@@@Z 00000001401ffb74     LIBCMT:toupper.obj
 0004:00005b80       $pdata$_toupper_l          00000001401ffb80     LIBCMT:toupper.obj
 0004:00005b98       $pdata$_heap_alloc         00000001401ffb98     LIBCMT:malloc.obj
 0004:00005ba4       $pdata$malloc              00000001401ffba4     LIBCMT:malloc.obj
 0004:00005bb0       $pdata$realloc             00000001401ffbb0     LIBCMT:realloc.obj
 0004:00005bbc       $pdata$free                00000001401ffbbc     LIBCMT:free.obj
 0004:00005bc8       $pdata$_aligned_free       00000001401ffbc8     LIBCMT:align.obj
 0004:00005bd4       $pdata$_aligned_malloc     00000001401ffbd4     LIBCMT:align.obj
 0004:00005be0       $pdata$_aligned_msize      00000001401ffbe0     LIBCMT:align.obj
 0004:00005bec       $pdata$_aligned_offset_malloc 00000001401ffbec     LIBCMT:align.obj
 0004:00005bf8       $pdata$_aligned_offset_realloc 00000001401ffbf8     LIBCMT:align.obj
 0004:00005c04       $pdata$_aligned_offset_recalloc 00000001401ffc04     LIBCMT:align.obj
 0004:00005c10       $pdata$_aligned_recalloc   00000001401ffc10     LIBCMT:align.obj
 0004:00005c1c       $pdata$__fpecode           00000001401ffc1c     LIBCMT:winsig.obj
 0004:00005c28       $pdata$__pxcptinfoptrs     00000001401ffc28     LIBCMT:winsig.obj
 0004:00005c34       $pdata$ctrlevent_capture   00000001401ffc34     LIBCMT:winsig.obj
 0004:00005c40       $pdata$raise               00000001401ffc40     LIBCMT:winsig.obj
 0004:00005c4c       $pdata$signal              00000001401ffc4c     LIBCMT:winsig.obj
 0004:00005c58       $pdata$__onexitinit        00000001401ffc58     LIBCMT:onexit.obj
 0004:00005c64       $pdata$_onexit             00000001401ffc64     LIBCMT:onexit.obj
 0004:00005c70       $pdata$_onexit_nolock      00000001401ffc70     LIBCMT:onexit.obj
 0004:00005c7c       $pdata$atexit              00000001401ffc7c     LIBCMT:onexit.obj
 0004:00005c88       $pdata$_beginthread        00000001401ffc88     LIBCMT:thread.obj
 0004:00005c94       $pdata$_callthreadstart    00000001401ffc94     LIBCMT:thread.obj
 0004:00005ca0       $pdata$_endthread          00000001401ffca0     LIBCMT:thread.obj
 0004:00005cac       $pdata$_threadstart        00000001401ffcac     LIBCMT:thread.obj
 0004:00005cb8       $pdata$__inittime          00000001401ffcb8     LIBCMT:clock.obj
 0004:00005cc4       $pdata$clock               00000001401ffcc4     LIBCMT:clock.obj
 0004:00005cd0       $pdata$__copy_path_to_wide_string 00000001401ffcd0     LIBCMT:crt0dat.obj
 0004:00005cdc       $pdata$__copy_to_char      00000001401ffcdc     LIBCMT:crt0dat.obj
 0004:00005ce8       $pdata$__crtCorExitProcess 00000001401ffce8     LIBCMT:crt0dat.obj
 0004:00005cf4       $pdata$__crtExitProcess    00000001401ffcf4     LIBCMT:crt0dat.obj
 0004:00005d00       $pdata$__freeCrtMemory     00000001401ffd00     LIBCMT:crt0dat.obj
 0004:00005d0c       $pdata$_amsg_exit          00000001401ffd0c     LIBCMT:crt0dat.obj
 0004:00005d18       $pdata$_cinit              00000001401ffd18     LIBCMT:crt0dat.obj
 0004:00005d24       $pdata$_get_pgmptr         00000001401ffd24     LIBCMT:crt0dat.obj
 0004:00005d30       $pdata$_get_wpgmptr        00000001401ffd30     LIBCMT:crt0dat.obj
 0004:00005d3c       $pdata$_init_pointers      00000001401ffd3c     LIBCMT:crt0dat.obj
 0004:00005d48       $pdata$_initterm           00000001401ffd48     LIBCMT:crt0dat.obj
 0004:00005d54       $pdata$_initterm_e         00000001401ffd54     LIBCMT:crt0dat.obj
 0004:00005d60       $pdata$doexit              00000001401ffd60     LIBCMT:crt0dat.obj
 0004:00005d6c       $pdata$abort               00000001401ffd6c     LIBCMT:abort.obj
 0004:00005d78       $pdata$_get_sys_err_msg    00000001401ffd78     LIBCMT:strerror.obj
 0004:00005d84       $pdata$_invoke_watson_if_error 00000001401ffd84     LIBCMT:strerror.obj
 0004:00005d90       $pdata$strerror            00000001401ffd90     LIBCMT:strerror.obj
 0004:00005d9c       $pdata$strerror_s          00000001401ffd9c     LIBCMT:strerror.obj
 0004:00005da8       $pdata$__lock_fhandle      00000001401ffda8     LIBCMT:osfinfo.obj
 0004:00005db4       $pdata$_alloc_osfhnd       00000001401ffdb4     LIBCMT:osfinfo.obj
 0004:00005dc0       $pdata$_free_osfhnd        00000001401ffdc0     LIBCMT:osfinfo.obj
 0004:00005dcc       $pdata$_get_osfhandle      00000001401ffdcc     LIBCMT:osfinfo.obj
 0004:00005dd8       $pdata$_open_osfhandle     00000001401ffdd8     LIBCMT:osfinfo.obj
 0004:00005de4       $pdata$_set_osfhnd         00000001401ffde4     LIBCMT:osfinfo.obj
 0004:00005df0       $pdata$_fileno             00000001401ffdf0     LIBCMT:fileno.obj
 0004:00005dfc       $pdata$_access             00000001401ffdfc     LIBCMT:access.obj
 0004:00005e08       $pdata$_access_s           00000001401ffe08     LIBCMT:access.obj
 0004:00005e14       $pdata$__doserrno          00000001401ffe14     LIBCMT:dosmap.obj
 0004:00005e20       $pdata$_dosmaperr          00000001401ffe20     LIBCMT:dosmap.obj
 0004:00005e2c       $pdata$_errno              00000001401ffe2c     LIBCMT:dosmap.obj
 0004:00005e38       $pdata$_get_doserrno       00000001401ffe38     LIBCMT:dosmap.obj
 0004:00005e44       $pdata$_get_errno          00000001401ffe44     LIBCMT:dosmap.obj
 0004:00005e50       $pdata$_set_doserrno       00000001401ffe50     LIBCMT:dosmap.obj
 0004:00005e5c       $pdata$_set_errno          00000001401ffe5c     LIBCMT:dosmap.obj
 0004:00005e68       $pdata$_tolower_l          00000001401ffe68     LIBCMT:tolower.obj
 0004:00005e74       $pdata$__iscsym            00000001401ffe74     LIBCMT:_ctype.obj
 0004:00005e80       $pdata$__iscsymf           00000001401ffe80     LIBCMT:_ctype.obj
 0004:00005e8c       $pdata$_isalnum_l          00000001401ffe8c     LIBCMT:_ctype.obj
 0004:00005e98       $pdata$_isalpha_l          00000001401ffe98     LIBCMT:_ctype.obj
 0004:00005ea4       $pdata$_isblank_l          00000001401ffea4     LIBCMT:_ctype.obj
 0004:00005eb0       $pdata$_iscntrl_l          00000001401ffeb0     LIBCMT:_ctype.obj
 0004:00005ebc       $pdata$_iscsym_l           00000001401ffebc     LIBCMT:_ctype.obj
 0004:00005ec8       $pdata$_iscsymf_l          00000001401ffec8     LIBCMT:_ctype.obj
 0004:00005ed4       $pdata$_isdigit_l          00000001401ffed4     LIBCMT:_ctype.obj
 0004:00005ee0       $pdata$_isgraph_l          00000001401ffee0     LIBCMT:_ctype.obj
 0004:00005eec       $pdata$_islower_l          00000001401ffeec     LIBCMT:_ctype.obj
 0004:00005ef8       $pdata$_isprint_l          00000001401ffef8     LIBCMT:_ctype.obj
 0004:00005f04       $pdata$_ispunct_l          00000001401fff04     LIBCMT:_ctype.obj
 0004:00005f10       $pdata$_isspace_l          00000001401fff10     LIBCMT:_ctype.obj
 0004:00005f1c       $pdata$_isupper_l          00000001401fff1c     LIBCMT:_ctype.obj
 0004:00005f28       $pdata$_isxdigit_l         00000001401fff28     LIBCMT:_ctype.obj
 0004:00005f34       $pdata$isalnum             00000001401fff34     LIBCMT:_ctype.obj
 0004:00005f40       $pdata$isalpha             00000001401fff40     LIBCMT:_ctype.obj
 0004:00005f4c       $pdata$iscntrl             00000001401fff4c     LIBCMT:_ctype.obj
 0004:00005f58       $pdata$isdigit             00000001401fff58     LIBCMT:_ctype.obj
 0004:00005f64       $pdata$isgraph             00000001401fff64     LIBCMT:_ctype.obj
 0004:00005f70       $pdata$islower             00000001401fff70     LIBCMT:_ctype.obj
 0004:00005f7c       $pdata$isprint             00000001401fff7c     LIBCMT:_ctype.obj
 0004:00005f88       $pdata$ispunct             00000001401fff88     LIBCMT:_ctype.obj
 0004:00005f94       $pdata$isspace             00000001401fff94     LIBCMT:_ctype.obj
 0004:00005fa0       $pdata$isupper             00000001401fffa0     LIBCMT:_ctype.obj
 0004:00005fac       $pdata$isxdigit            00000001401fffac     LIBCMT:_ctype.obj
 0004:00005fb8       $pdata$rand                00000001401fffb8     LIBCMT:rand.obj
 0004:00005fc4       $pdata$srand               00000001401fffc4     LIBCMT:rand.obj
 0004:00005fd0       $pdata$_write              00000001401fffd0     LIBCMT:write.obj
 0004:00005fdc       $pdata$_write_nolock       00000001401fffdc     LIBCMT:write.obj
 0004:00005fe8       $pdata$_controlfp_s        00000001401fffe8     LIBCMT:contrlfp.obj
 0004:00005ff4       $pdata$_dupenv_s           00000001401ffff4     LIBCMT:getenv.obj
 0004:00006000       $pdata$_dupenv_s_helper    0000000140200000     LIBCMT:getenv.obj
 0004:0000600c       $pdata$_getenv_helper_nolock 000000014020000c     LIBCMT:getenv.obj
 0004:00006018       $pdata$_getenv_s_helper    0000000140200018     LIBCMT:getenv.obj
 0004:00006024       $pdata$getenv              0000000140200024     LIBCMT:getenv.obj
 0004:00006030       $pdata$getenv_s            0000000140200030     LIBCMT:getenv.obj
 0004:0000603c       $pdata$_clearfp            000000014020003c     LIBCMT:ieee.obj
 0004:00006048       $pdata$_control87          0000000140200048     LIBCMT:ieee.obj
 0004:00006054       $pdata$_set_controlfp      0000000140200054     LIBCMT:ieee.obj
 0004:00006060       $pdata$fputs               0000000140200060     LIBCMT:fputs.obj
 0004:0000606c       $pdata$_cfltcvt            000000014020006c     LIBCMT:cvt.obj
 0004:00006078       $pdata$_cfltcvt_l          0000000140200078     LIBCMT:cvt.obj
 0004:00006084       $pdata$_cftoa              0000000140200084     LIBCMT:cvt.obj
 0004:00006090       $pdata$_cftoa_l            0000000140200090     LIBCMT:cvt.obj
 0004:0000609c       $pdata$_cftoe              000000014020009c     LIBCMT:cvt.obj
 0004:000060a8       $pdata$_cftoe2_l           00000001402000a8     LIBCMT:cvt.obj
 0004:000060b4       $pdata$_cftoe_l            00000001402000b4     LIBCMT:cvt.obj
 0004:000060c0       $pdata$_cftof              00000001402000c0     LIBCMT:cvt.obj
 0004:000060cc       $pdata$_cftof2_l           00000001402000cc     LIBCMT:cvt.obj
 0004:000060d8       $pdata$_cftof_l            00000001402000d8     LIBCMT:cvt.obj
 0004:000060e4       $pdata$_cftog              00000001402000e4     LIBCMT:cvt.obj
 0004:000060f0       $pdata$_cftog_l            00000001402000f0     LIBCMT:cvt.obj
 0004:000060fc       $pdata$_cropzeros_l        00000001402000fc     LIBCMT:cvt.obj
 0004:00006108       $pdata$_fassign_l          0000000140200108     LIBCMT:cvt.obj
 0004:00006114       $pdata$_forcdecpt_l        0000000140200114     LIBCMT:cvt.obj
 0004:00006120       $pdata$_shift              0000000140200120     LIBCMT:cvt.obj
 0004:0000612c       $pdata$_initp_misc_cfltcvt_tab 000000014020012c     LIBCMT:cmiscdat.obj
 0004:00006138       $pdata$__isa_available_init 0000000140200138     LIBCMT:cpu_disp.obj
 0004:00006144       $pdata$?__CxxUnhandledExceptionFilter@@YAJPEAU_EXCEPTION_POINTERS@@@Z 0000000140200144     LIBCMT:unhandld.obj
 0004:00006150       $pdata$__CxxSetUnhandledExceptionFilter 0000000140200150     LIBCMT:unhandld.obj
 0004:0000615c       $pdata$_XcptFilter         000000014020015c     LIBCMT:winxfltr.obj
 0004:00006168       $pdata$_freefls            0000000140200168     LIBCMT:tidtable.obj
 0004:00006174       $pdata$_freeptd            0000000140200174     LIBCMT:tidtable.obj
 0004:00006180       $pdata$_getptd             0000000140200180     LIBCMT:tidtable.obj
 0004:0000618c       $pdata$_getptd_noexit      000000014020018c     LIBCMT:tidtable.obj
 0004:00006198       $pdata$_initptd            0000000140200198     LIBCMT:tidtable.obj
 0004:000061a4       $pdata$_mtinit             00000001402001a4     LIBCMT:tidtable.obj
 0004:000061b0       $pdata$_mtterm             00000001402001b0     LIBCMT:tidtable.obj
 0004:000061bc       $pdata$_heap_init          00000001402001bc     LIBCMT:heapinit.obj
 0004:000061c8       $pdata$_ioinit             00000001402001c8     LIBCMT:ioinit.obj
 0004:000061d4       $pdata$_ioterm             00000001402001d4     LIBCMT:ioinit.obj
 0004:000061e0       $pdata$_setargv            00000001402001e0     LIBCMT:stdargv.obj
 0004:000061ec       $pdata$parse_cmdline       00000001402001ec     LIBCMT:stdargv.obj
 0004:000061f8       $pdata$_setenvp            00000001402001f8     LIBCMT:stdenvp.obj
 0004:00006204       $pdata$_FF_MSGBANNER       0000000140200204     LIBCMT:crt0msg.obj
 0004:00006210       $pdata$_NMSG_WRITE         0000000140200210     LIBCMT:crt0msg.obj
 0004:0000621c       $pdata$_set_error_mode     000000014020021c     LIBCMT:errmode.obj
 0004:00006228       $pdata$__security_init_cookie 0000000140200228     LIBCMT:gs_support.obj
 0004:00006234       $pdata$_RTC_Initialize     0000000140200234     LIBCMT:initsect.obj
 0004:00006240       $pdata$_RTC_Terminate      0000000140200240     LIBCMT:initsect.obj
 0004:0000624c       $pdata$__crtGetEnvironmentStringsA 000000014020024c     LIBCMT:a_env.obj
 0004:00006258       $pdata$__C_specific_handler 0000000140200258     LIBCMT:chandler.obj
 0004:00006264       $pdata$__raise_securityfailure 0000000140200264     LIBCMT:gs_report.obj
 0004:00006270       $pdata$__report_gsfailure  0000000140200270     LIBCMT:gs_report.obj
 0004:0000627c       $pdata$__report_rangecheckfailure 000000014020027c     LIBCMT:gs_report.obj
 0004:00006288       $pdata$__report_securityfailure 0000000140200288     LIBCMT:gs_report.obj
 0004:00006294       $pdata$__report_securityfailureEx 0000000140200294     LIBCMT:gs_report.obj
 0004:000062a0       $pdata$__freetlocinfo      00000001402002a0     LIBCMT:localref.obj
 0004:000062ac       $pdata$__updatetlocinfo    00000001402002ac     LIBCMT:localref.obj
 0004:000062b8       $pdata$_updatetlocinfoEx_nolock 00000001402002b8     LIBCMT:localref.obj
 0004:000062c4       $pdata$__initmbctable      00000001402002c4     LIBCMT:mbctype.obj
 0004:000062d0       $pdata$?getSystemCP@@YAHH@Z 00000001402002d0     LIBCMT:mbctype.obj
 0004:000062dc       $pdata$?setSBCS@@YAXPEAUthreadmbcinfostruct@@@Z 00000001402002dc     LIBCMT:mbctype.obj
 0004:000062e8       $pdata$?setSBUpLow@@YAXPEAUthreadmbcinfostruct@@@Z 00000001402002e8     LIBCMT:mbctype.obj
 0004:000062f4       $pdata$__updatetmbcinfo    00000001402002f4     LIBCMT:mbctype.obj
 0004:00006300       $pdata$_getmbcp            0000000140200300     LIBCMT:mbctype.obj
 0004:0000630c       $pdata$_setmbcp            000000014020030c     LIBCMT:mbctype.obj
 0004:00006318       $pdata$_setmbcp_nolock     0000000140200318     LIBCMT:mbctype.obj
 0004:00006324       $pdata$_isctype_l          0000000140200324     LIBCMT:isctype.obj
 0004:00006330       $pdata$__iswcsym           0000000140200330     LIBCMT:_wctype.obj
 0004:0000633c       $pdata$__iswcsymf          000000014020033c     LIBCMT:_wctype.obj
 0004:00006348       $pdata$_isleadbyte_l       0000000140200348     LIBCMT:_wctype.obj
 0004:00006354       $pdata$_iswcsym_l          0000000140200354     LIBCMT:_wctype.obj
 0004:00006360       $pdata$_iswcsymf_l         0000000140200360     LIBCMT:_wctype.obj
 0004:0000636c       $pdata$isleadbyte          000000014020036c     LIBCMT:_wctype.obj
 0004:00006378       $pdata$?__crtLCMapStringA_stat@@YAHPEAUlocaleinfo_struct@@PEB_WKPEBDHPEADHHH@Z 0000000140200378     LIBCMT:a_map.obj
 0004:00006384       $pdata$__crtLCMapStringA   0000000140200384     LIBCMT:a_map.obj
 0004:00006390       $pdata$_freea              0000000140200390     LIBCMT:a_map.obj
 0004:0000639c       $pdata$_locterm            000000014020039c     LIBCMT:wsetloca.obj
 0004:000063a8       $pdata$__copy_locale_name  00000001402003a8     LIBCMT:wsetloca.obj
 0004:000063b4       $pdata$__lc_lctowcs        00000001402003b4     LIBCMT:wsetloca.obj
 0004:000063c0       $pdata$__lc_wcstolc        00000001402003c0     LIBCMT:wsetloca.obj
 0004:000063cc       $pdata$_configthreadlocale 00000001402003cc     LIBCMT:wsetloca.obj
 0004:000063d8       $pdata$_copytlocinfo_nolock 00000001402003d8     LIBCMT:wsetloca.obj
 0004:000063e4       $pdata$_create_locale      00000001402003e4     LIBCMT:wsetloca.obj
 0004:000063f0       $pdata$_expandlocale       00000001402003f0     LIBCMT:wsetloca.obj
 0004:000063fc       $pdata$_free_locale        00000001402003fc     LIBCMT:wsetloca.obj
 0004:00006408       $pdata$_get_current_locale 0000000140200408     LIBCMT:wsetloca.obj
 0004:00006414       $pdata$_wcreate_locale     0000000140200414     LIBCMT:wsetloca.obj
 0004:00006420       $pdata$_wcscats            0000000140200420     LIBCMT:wsetloca.obj
 0004:0000642c       $pdata$_wsetlocale         000000014020042c     LIBCMT:wsetloca.obj
 0004:00006438       $pdata$_wsetlocale_get_all 0000000140200438     LIBCMT:wsetloca.obj
 0004:00006444       $pdata$_wsetlocale_nolock  0000000140200444     LIBCMT:wsetloca.obj
 0004:00006450       $pdata$_wsetlocale_set_cat 0000000140200450     LIBCMT:wsetloca.obj
 0004:0000645c       $pdata$?_set_new_handler@@YAP6AH_K@ZP6AH0@Z@Z 000000014020045c     LIBCMT:handler.obj
 0004:00006468       $pdata$_callnewh           0000000140200468     LIBCMT:handler.obj
 0004:00006474       $pdata$?_invoke_watson@@YAXPEBG00I_K@Z 0000000140200474     LIBCMT:invarg.obj
 0004:00006480       $pdata$_call_reportfault   0000000140200480     LIBCMT:invarg.obj
 0004:0000648c       $pdata$_invalid_parameter  000000014020048c     LIBCMT:invarg.obj
 0004:00006498       $pdata$_invalid_parameter_noinfo 0000000140200498     LIBCMT:invarg.obj
 0004:000064a4       $pdata$_invalid_parameter_noinfo_noreturn 00000001402004a4     LIBCMT:invarg.obj
 0004:000064b0       $pdata$_invoke_watson      00000001402004b0     LIBCMT:invarg.obj
 0004:000064bc       $pdata$_set_invalid_parameter_handler 00000001402004bc     LIBCMT:invarg.obj
 0004:000064d4       $pdata$_expand             00000001402004d4     LIBCMT:expand.obj
 0004:000064e0       $pdata$_is_LFH_enabled     00000001402004e0     LIBCMT:expand.obj
 0004:000064ec       $pdata$_msize              00000001402004ec     LIBCMT:msize.obj
 0004:000064f8       $pdata$_lock               00000001402004f8     LIBCMT:mlock.obj
 0004:00006504       $pdata$_lockerr_exit       0000000140200504     LIBCMT:mlock.obj
 0004:00006510       $pdata$_mtdeletelocks      0000000140200510     LIBCMT:mlock.obj
 0004:0000651c       $pdata$_mtinitlocknum      000000014020051c     LIBCMT:mlock.obj
 0004:00006528       $pdata$_mtinitlocks        0000000140200528     LIBCMT:mlock.obj
 0004:00006534       $pdata$_calloc_crt         0000000140200534     LIBCMT:crtheap.obj
 0004:00006540       $pdata$_malloc_crt         0000000140200540     LIBCMT:crtheap.obj
 0004:0000654c       $pdata$_realloc_crt        000000014020054c     LIBCMT:crtheap.obj
 0004:00006558       $pdata$_recalloc_crt       0000000140200558     LIBCMT:crtheap.obj
 0004:00006564       $pdata$wait_a_bit          0000000140200564     LIBCMT:crtheap.obj
 0004:00006570       $pdata$__IsPackagedAppHelper 0000000140200570     LIBCMT:winapisupp.obj
 0004:0000657c       $pdata$__crtCaptureCurrentContext 000000014020057c     LIBCMT:winapisupp.obj
 0004:00006588       $pdata$__crtCapturePreviousContext 0000000140200588     LIBCMT:winapisupp.obj
 0004:00006594       $pdata$__crtCloseThreadpoolTimer 0000000140200594     LIBCMT:winapisupp.obj
 0004:000065a0       $pdata$__crtCloseThreadpoolWait 00000001402005a0     LIBCMT:winapisupp.obj
 0004:000065ac       $pdata$__crtCreateSymbolicLinkW 00000001402005ac     LIBCMT:winapisupp.obj
 0004:000065b8       $pdata$__crtFlushProcessWriteBuffers 00000001402005b8     LIBCMT:winapisupp.obj
 0004:000065c4       $pdata$__crtFreeLibraryWhenCallbackReturns 00000001402005c4     LIBCMT:winapisupp.obj
 0004:000065d0       $pdata$__crtGetFileInformationByHandleEx 00000001402005d0     LIBCMT:winapisupp.obj
 0004:000065dc       $pdata$__crtGetLogicalProcessorInformation 00000001402005dc     LIBCMT:winapisupp.obj
 0004:000065e8       $pdata$__crtGetShowWindowMode 00000001402005e8     LIBCMT:winapisupp.obj
 0004:000065f4       $pdata$__crtGetTickCount64 00000001402005f4     LIBCMT:winapisupp.obj
 0004:00006600       $pdata$__crtInitializeCriticalSectionEx 0000000140200600     LIBCMT:winapisupp.obj
 0004:0000660c       $pdata$__crtIsPackagedApp  000000014020060c     LIBCMT:winapisupp.obj
 0004:00006618       $pdata$__crtLoadWinApiPointers 0000000140200618     LIBCMT:winapisupp.obj
 0004:00006624       $pdata$__crtSetFileInformationByHandle 0000000140200624     LIBCMT:winapisupp.obj
 0004:00006630       $pdata$__crtSetThreadpoolTimer 0000000140200630     LIBCMT:winapisupp.obj
 0004:0000663c       $pdata$__crtSetThreadpoolWait 000000014020063c     LIBCMT:winapisupp.obj
 0004:00006648       $pdata$__crtTerminateProcess 0000000140200648     LIBCMT:winapisupp.obj
 0004:00006654       $pdata$__crtUnhandledException 0000000140200654     LIBCMT:winapisupp.obj
 0004:00006660       $pdata$__crtWaitForThreadpoolTimerCallbacks 0000000140200660     LIBCMT:winapisupp.obj
 0004:0000666c       $pdata$_IsNonwritableInCurrentImage 000000014020066c     LIBCMT:pesect.obj
 0004:00006678       $pdata$?_inconsistency@@YAXXZ 0000000140200678     LIBCMT:hooks.obj
 0004:00006684       $pdata$?terminate@@YAXXZ   0000000140200684     LIBCMT:hooks.obj
 0004:00006690       $pdata$?unexpected@@YAXXZ  0000000140200690     LIBCMT:hooks.obj
 0004:0000669c       $pdata$_initp_eh_hooks     000000014020069c     LIBCMT:hooks.obj
 0004:000066a8       $pdata$__getlocaleinfo     00000001402006a8     LIBCMT:inithelp.obj
 0004:000066b4       $pdata$rand_s              00000001402006b4     LIBCMT:rand_s.obj
 0004:000066c0       $pdata$_ftbuf              00000001402006c0     LIBCMT:_sftbuf.obj
 0004:000066cc       $pdata$_stbuf              00000001402006cc     LIBCMT:_sftbuf.obj
 0004:000066d8       $pdata$strcpy_s            00000001402006d8     LIBCMT:strcpy_s.obj
 0004:000066e4       $pdata$strncpy_s           00000001402006e4     LIBCMT:strncpy_s.obj
 0004:000066f0       $pdata$?strtoxq@@YA_KPEAUlocaleinfo_struct@@PEBDPEAPEBDHH@Z 00000001402006f0     LIBCMT:strtoq.obj
 0004:000066fc       $pdata$_strtof_l           00000001402006fc     LIBCMT:strtoq.obj
 0004:00006708       $pdata$_strtoi64           0000000140200708     LIBCMT:strtoq.obj
 0004:00006714       $pdata$_strtoi64_l         0000000140200714     LIBCMT:strtoq.obj
 0004:00006720       $pdata$_strtoimax_l        0000000140200720     LIBCMT:strtoq.obj
 0004:0000672c       $pdata$_strtoll_l          000000014020072c     LIBCMT:strtoq.obj
 0004:00006738       $pdata$_strtoui64          0000000140200738     LIBCMT:strtoq.obj
 0004:00006744       $pdata$_strtoui64_l        0000000140200744     LIBCMT:strtoq.obj
 0004:00006750       $pdata$_strtoull_l         0000000140200750     LIBCMT:strtoq.obj
 0004:0000675c       $pdata$_strtoumax_l        000000014020075c     LIBCMT:strtoq.obj
 0004:00006768       $pdata$strtof              0000000140200768     LIBCMT:strtoq.obj
 0004:00006774       $pdata$?strtoxl@@YAKPEAUlocaleinfo_struct@@PEBDPEAPEBDHH@Z 0000000140200774     LIBCMT:strtol.obj
 0004:00006780       $pdata$_strtol_l           0000000140200780     LIBCMT:strtol.obj
 0004:0000678c       $pdata$_strtoul_l          000000014020078c     LIBCMT:strtol.obj
 0004:00006798       $pdata$strtol              0000000140200798     LIBCMT:strtol.obj
 0004:000067a4       $pdata$strtoul             00000001402007a4     LIBCMT:strtol.obj
 0004:000067b0       $pdata$_waccess            00000001402007b0     LIBCMT:waccess.obj
 0004:000067bc       $pdata$_waccess_s          00000001402007bc     LIBCMT:waccess.obj
 0004:000067c8       $pdata$_isatty             00000001402007c8     LIBCMT:isatty.obj
 0004:000067d4       $pdata$_lseeki64           00000001402007d4     LIBCMT:lseeki64.obj
 0004:000067e0       $pdata$_lseeki64_nolock    00000001402007e0     LIBCMT:lseeki64.obj
 0004:000067ec       $pdata$_mbtowc_l           00000001402007ec     LIBCMT:mbtowc.obj
 0004:000067f8       $pdata$_putwch             00000001402007f8     LIBCMT:putwch.obj
 0004:00006804       $pdata$_putwch_nolock      0000000140200804     LIBCMT:putwch.obj
 0004:0000681c       $pdata$__wtomb_environ     000000014020081c     LIBCMT:wtombenv.obj
 0004:00006828       $pdata$calloc              0000000140200828     LIBCMT:calloc.obj
 0004:00006834       $pdata$_mbsnbicoll_l       0000000140200834     LIBCMT:mbsnbico.obj
 0004:0000684c       $pdata$__initstdio         000000014020084c     LIBCMT:_file.obj
 0004:00006858       $pdata$__endstdio          0000000140200858     LIBCMT:_file.obj
 0004:00006864       $pdata$_lock_file          0000000140200864     LIBCMT:_file.obj
 0004:00006870       $pdata$_lock_file2         0000000140200870     LIBCMT:_file.obj
 0004:0000687c       $pdata$_fwrite_nolock      000000014020087c     LIBCMT:fwrite.obj
 0004:00006888       $pdata$fwrite              0000000140200888     LIBCMT:fwrite.obj
 0004:00006894       $pdata$strrchr             0000000140200894     LIBCMT:strrchr.obj
 0004:000068a0       $pdata$_fptostr            00000001402008a0     LIBCMT:_fptostr.obj
 0004:000068ac       $pdata$__crt_atoflt_l      00000001402008ac     LIBCMT:atodbl.obj
 0004:000068b8       $pdata$_atodbl_l           00000001402008b8     LIBCMT:atodbl.obj
 0004:000068c4       $pdata$_atoldbl_l          00000001402008c4     LIBCMT:atodbl.obj
 0004:000068d0       $pdata$__dtold             00000001402008d0     LIBCMT:cfout.obj
 0004:000068dc       $pdata$_fltout2            00000001402008dc     LIBCMT:cfout.obj
 0004:000068e8       $pdata$_set_output_format  00000001402008e8     LIBCMT:outputformat.obj
 0004:00006924       $pdata$?x_ismbbtype_l@@YAHPEAUlocaleinfo_struct@@IHH@Z 0000000140200924     LIBCMT:ismbbyte.obj
 0004:00006930       $pdata$_ismbbkana_l        0000000140200930     LIBCMT:ismbbyte.obj
 0004:0000693c       $pdata$wcscat_s            000000014020093c     LIBCMT:wcscat_s.obj
 0004:00006948       $pdata$wcscpy_s            0000000140200948     LIBCMT:wcscpy_s.obj
 0004:00006954       $pdata$wcsncpy_s           0000000140200954     LIBCMT:wcsncpy_s.obj
 0004:00006960       $pdata$__crtMessageBoxW    0000000140200960     LIBCMT:crtmboxw.obj
 0004:0000696c       $pdata$__crtMessageBoxWaitThreadW 000000014020096c     LIBCMT:crtmboxw.obj
 0004:00006978       $pdata$__free_lconv_mon    0000000140200978     LIBCMT:initmon.obj
 0004:00006984       $pdata$__init_monetary     0000000140200984     LIBCMT:initmon.obj
 0004:00006990       $pdata$__free_lconv_num    0000000140200990     LIBCMT:initnum.obj
 0004:0000699c       $pdata$__init_numeric      000000014020099c     LIBCMT:initnum.obj
 0004:000069a8       $pdata$__free_lc_time      00000001402009a8     LIBCMT:inittime.obj
 0004:000069b4       $pdata$__init_time         00000001402009b4     LIBCMT:inittime.obj
 0004:000069c0       $pdata$_get_lc_time        00000001402009c0     LIBCMT:inittime.obj
 0004:000069cc       $pdata$localeconv          00000001402009cc     LIBCMT:lconv.obj
 0004:000069d8       $pdata$?__crtGetStringTypeA_stat@@YAHPEAUlocaleinfo_struct@@KPEBDHPEAGHH@Z 00000001402009d8     LIBCMT:a_str.obj
 0004:000069e4       $pdata$__crtGetStringTypeA 00000001402009e4     LIBCMT:a_str.obj
 0004:000069f0       $pdata$iswctype            00000001402009f0     LIBCMT:iswctype.obj
 0004:000069fc       $pdata$GetTableIndexFromLocaleName 00000001402009fc     LIBCMT:winapinls.obj
 0004:00006a08       $pdata$__crtCompareStringEx 0000000140200a08     LIBCMT:winapinls.obj
 0004:00006a14       $pdata$__crtDownlevelLCIDToLocaleName 0000000140200a14     LIBCMT:winapinls.obj
 0004:00006a20       $pdata$__crtDownlevelLocaleNameToLCID 0000000140200a20     LIBCMT:winapinls.obj
 0004:00006a2c       $pdata$__crtEnumSystemLocalesEx 0000000140200a2c     LIBCMT:winapinls.obj
 0004:00006a38       $pdata$__crtGetDateFormatEx 0000000140200a38     LIBCMT:winapinls.obj
 0004:00006a44       $pdata$__crtGetLocaleInfoEx 0000000140200a44     LIBCMT:winapinls.obj
 0004:00006a50       $pdata$__crtGetTimeFormatEx 0000000140200a50     LIBCMT:winapinls.obj
 0004:00006a5c       $pdata$__crtGetUserDefaultLocaleName 0000000140200a5c     LIBCMT:winapinls.obj
 0004:00006a68       $pdata$__crtIsValidLocaleName 0000000140200a68     LIBCMT:winapinls.obj
 0004:00006a74       $pdata$__crtLCMapStringEx  0000000140200a74     LIBCMT:winapinls.obj
 0004:00006a80       $pdata$__pctype_func       0000000140200a80     LIBCMT:ctype.obj
 0004:00006a8c       $pdata$___lc_codepage_func 0000000140200a8c     LIBCMT:initctyp.obj
 0004:00006a98       $pdata$___lc_collate_cp_func 0000000140200a98     LIBCMT:initctyp.obj
 0004:00006aa4       $pdata$___lc_locale_name_func 0000000140200aa4     LIBCMT:initctyp.obj
 0004:00006ab0       $pdata$___mb_cur_max_func  0000000140200ab0     LIBCMT:initctyp.obj
 0004:00006abc       $pdata$__init_ctype        0000000140200abc     LIBCMT:initctyp.obj
 0004:00006ad4       $pdata$GetLocaleNameFromDefault 0000000140200ad4     LIBCMT:getqloc.obj
 0004:00006ae0       $pdata$GetLocaleNameFromLangCountry 0000000140200ae0     LIBCMT:getqloc.obj
 0004:00006aec       $pdata$GetLocaleNameFromLanguage 0000000140200aec     LIBCMT:getqloc.obj
 0004:00006af8       $pdata$LangCountryEnumProcEx 0000000140200af8     LIBCMT:getqloc.obj
 0004:00006b04       $pdata$LanguageEnumProcEx  0000000140200b04     LIBCMT:getqloc.obj
 0004:00006b10       $pdata$ProcessCodePage     0000000140200b10     LIBCMT:getqloc.obj
 0004:00006b1c       $pdata$TestDefaultCountry  0000000140200b1c     LIBCMT:getqloc.obj
 0004:00006b28       $pdata$TestDefaultLanguage 0000000140200b28     LIBCMT:getqloc.obj
 0004:00006b34       $pdata$TranslateName       0000000140200b34     LIBCMT:getqloc.obj
 0004:00006b40       $pdata$__get_qualified_locale 0000000140200b40     LIBCMT:getqloc.obj
 0004:00006b4c       $pdata$CountryEnumProc     0000000140200b4c     LIBCMT:getqloc_downlevel.obj
 0004:00006b58       $pdata$GetLcidFromCountry  0000000140200b58     LIBCMT:getqloc_downlevel.obj
 0004:00006b64       $pdata$GetLcidFromDefault  0000000140200b64     LIBCMT:getqloc_downlevel.obj
 0004:00006b70       $pdata$GetLcidFromLangCountry 0000000140200b70     LIBCMT:getqloc_downlevel.obj
 0004:00006b7c       $pdata$GetLcidFromLanguage 0000000140200b7c     LIBCMT:getqloc_downlevel.obj
 0004:00006b88       $pdata$LangCountryEnumProc 0000000140200b88     LIBCMT:getqloc_downlevel.obj
 0004:00006b94       $pdata$LanguageEnumProc    0000000140200b94     LIBCMT:getqloc_downlevel.obj
 0004:00006ba0       $pdata$ProcessCodePage     0000000140200ba0     LIBCMT:getqloc_downlevel.obj
 0004:00006bac       $pdata$TestDefaultLanguage 0000000140200bac     LIBCMT:getqloc_downlevel.obj
 0004:00006bb8       $pdata$TranslateName       0000000140200bb8     LIBCMT:getqloc_downlevel.obj
 0004:00006bc4       $pdata$__get_qualified_locale_downlevel 0000000140200bc4     LIBCMT:getqloc_downlevel.obj
 0004:00006bd0       $pdata$_recalloc           0000000140200bd0     LIBCMT:recalloc.obj
 0004:00006bdc       $pdata$_calloc_impl        0000000140200bdc     LIBCMT:calloc_impl.obj
 0004:00006be8       $pdata$?__crtGetLocaleInfoA_stat@@YAHPEAUlocaleinfo_struct@@PEB_WKPEADH@Z 0000000140200be8     LIBCMT:a_loc.obj
 0004:00006bf4       $pdata$__crtGetLocaleInfoA 0000000140200bf4     LIBCMT:a_loc.obj
 0004:00006c00       $pdata$_fflush_nolock      0000000140200c00     LIBCMT:fflush.obj
 0004:00006c0c       $pdata$_flush              0000000140200c0c     LIBCMT:fflush.obj
 0004:00006c18       $pdata$fflush              0000000140200c18     LIBCMT:fflush.obj
 0004:00006c24       $pdata$flsall              0000000140200c24     LIBCMT:fflush.obj
 0004:00006c30       $pdata$_strtod_l           0000000140200c30     LIBCMT:strtod.obj
 0004:00006c3c       $pdata$__termconout        0000000140200c3c     LIBCMT:initcon.obj
 0004:00006c48       $pdata$__initconout        0000000140200c48     LIBCMT:initcon.obj
 0004:00006c54       $pdata$__crtsetenv         0000000140200c54     LIBCMT:setenv.obj
 0004:00006c60       $pdata$copy_environ        0000000140200c60     LIBCMT:setenv.obj
 0004:00006c6c       $pdata$findenv             0000000140200c6c     LIBCMT:setenv.obj
 0004:00006c78       $pdata$_strnicoll_l        0000000140200c78     LIBCMT:strnicol.obj
 0004:00006c84       $pdata$?__crtCompareStringA_stat@@YAHPEAUlocaleinfo_struct@@PEB_WKPEBDH2HH@Z 0000000140200c84     LIBCMT:a_cmp.obj
 0004:00006c90       $pdata$__crtCompareStringA 0000000140200c90     LIBCMT:a_cmp.obj
 0004:00006c9c       $pdata$_fcloseall          0000000140200c9c     LIBCMT:closeall.obj
 0004:00006ca8       $pdata$_flsbuf             0000000140200ca8     LIBCMT:_flsbuf.obj
 0004:00006cb4       $pdata$_RoundMan           0000000140200cb4     LIBCMT:intrncvt.obj
 0004:00006cc0       $pdata$_ShrMan             0000000140200cc0     LIBCMT:intrncvt.obj
 0004:00006ccc       $pdata$_ld12cvt            0000000140200ccc     LIBCMT:intrncvt.obj
 0004:00006cd8       $pdata$_ld12tod            0000000140200cd8     LIBCMT:intrncvt.obj
 0004:00006ce4       $pdata$_ld12tof            0000000140200ce4     LIBCMT:intrncvt.obj
 0004:00006cf0       $pdata$_ld12told           0000000140200cf0     LIBCMT:intrncvt.obj
 0004:00006cfc       $pdata$__STRINGTOLD_L      0000000140200cfc     LIBCMT:strgtold.obj
 0004:00006d08       $pdata$__ld12mul           0000000140200d08     LIBCMT:strgtold.obj
 0004:00006d14       $pdata$__multtenpow12      0000000140200d14     LIBCMT:strgtold.obj
 0004:00006d20       $pdata$__strgtold12_l      0000000140200d20     LIBCMT:strgtold.obj
 0004:00006d2c       $pdata$$I10_OUTPUT         0000000140200d2c     LIBCMT:x10fout.obj
 0004:00006d38       $pdata$_i64tow_s           0000000140200d38     LIBCMT:xtows.obj
 0004:00006d44       $pdata$_itow_s             0000000140200d44     LIBCMT:xtows.obj
 0004:00006d50       $pdata$_ltow_s             0000000140200d50     LIBCMT:xtows.obj
 0004:00006d5c       $pdata$_ui64tow_s          0000000140200d5c     LIBCMT:xtows.obj
 0004:00006d68       $pdata$_ultow_s            0000000140200d68     LIBCMT:xtows.obj
 0004:00006d74       $pdata$x64tow_s            0000000140200d74     LIBCMT:xtows.obj
 0004:00006d80       $pdata$xtow_s              0000000140200d80     LIBCMT:xtows.obj
 0004:00006d8c       $pdata$wcschr              0000000140200d8c     LIBCMT:wcschr.obj
 0004:00006d98       $pdata$_wcsicmp            0000000140200d98     LIBCMT:wcsicmp.obj
 0004:00006da4       $pdata$_wcsicmp_l          0000000140200da4     LIBCMT:wcsicmp.obj
 0004:00006db0       $pdata$_wcsnicmp           0000000140200db0     LIBCMT:wcsnicmp.obj
 0004:00006dbc       $pdata$_wcsnicmp_l         0000000140200dbc     LIBCMT:wcsnicmp.obj
 0004:00006dc8       $pdata$_commit             0000000140200dc8     LIBCMT:commit.obj
 0004:00006dd4       $pdata$_fltin2             0000000140200dd4     LIBCMT:cfin.obj
 0004:00006de0       $pdata$_strdup             0000000140200de0     LIBCMT:strdup.obj
 0004:00006dec       $pdata$_mbschr_l           0000000140200dec     LIBCMT:mbschr.obj
 0004:00006df8       $pdata$_strnicmp           0000000140200df8     LIBCMT:strnicmp.obj
 0004:00006e04       $pdata$_strnicmp_l         0000000140200e04     LIBCMT:strnicmp.obj
 0004:00006e10       $pdata$_fclose_nolock      0000000140200e10     LIBCMT:fclose.obj
 0004:00006e1c       $pdata$fclose              0000000140200e1c     LIBCMT:fclose.obj
 0004:00006e28       $pdata$_getbuf             0000000140200e28     LIBCMT:_getbuf.obj
 0004:00006e34       $pdata$__mtold12           0000000140200e34     LIBCMT:mantold.obj
 0004:00006e40       $pdata$?wcstoxl@@YAKPEB_WPEAPEB_WHH@Z 0000000140200e40     LIBCMT:wcstol.obj
 0004:00006e4c       $pdata$?wcstoxq@@YA_KPEAUlocaleinfo_struct@@PEB_WPEAPEB_WHH@Z 0000000140200e4c     LIBCMT:wcstoq.obj
 0004:00006e58       $pdata$_wcstof_l           0000000140200e58     LIBCMT:wcstoq.obj
 0004:00006e64       $pdata$_wcstoi64           0000000140200e64     LIBCMT:wcstoq.obj
 0004:00006e70       $pdata$_wcstoi64_l         0000000140200e70     LIBCMT:wcstoq.obj
 0004:00006e7c       $pdata$_wcstoimax_l        0000000140200e7c     LIBCMT:wcstoq.obj
 0004:00006e88       $pdata$_wcstoll_l          0000000140200e88     LIBCMT:wcstoq.obj
 0004:00006e94       $pdata$_wcstoui64          0000000140200e94     LIBCMT:wcstoq.obj
 0004:00006ea0       $pdata$_wcstoui64_l        0000000140200ea0     LIBCMT:wcstoq.obj
 0004:00006eac       $pdata$_wcstoull_l         0000000140200eac     LIBCMT:wcstoq.obj
 0004:00006eb8       $pdata$_wcstoumax_l        0000000140200eb8     LIBCMT:wcstoq.obj
 0004:00006ec4       $pdata$_towlower_l         0000000140200ec4     LIBCMT:towlower.obj
 0004:00006ed0       $pdata$strchr              0000000140200ed0     LIBCMT:strchr.obj
 0004:00006edc       $pdata$_close              0000000140200edc     LIBCMT:close.obj
 0004:00006ee8       $pdata$_close_nolock       0000000140200ee8     LIBCMT:close.obj
 0004:00006ef4       $pdata$_freebuf            0000000140200ef4     LIBCMT:_freebuf.obj
 0004:00006f00       $pdata$_wcstod_l           0000000140200f00     LIBCMT:wcstod.obj
 0004:00006f0c       $pdata$__crtLCMapStringW   0000000140200f0c     LIBCMT:w_map.obj
 0004:00006f18       $pdata$_wfltin2            0000000140200f18     LIBCMT:wcfin.obj
 0004:00006f24       $pdata$__WSTRINGTOLD_L     0000000140200f24     LIBCMT:wstrgtold.obj
 0004:00006f30       $pdata$__wstrgtold12_l     0000000140200f30     LIBCMT:wstrgtold.obj
 0004:00006f48       $pdata$strcat_s            0000000140200f48     LIBCMT:strcat_s.obj
 0004:00006f54       $pdata$strtok              0000000140200f54     LIBCMT:strtok.obj
 0004:00006f78       $pdata$_splitpath          0000000140200f78     LIBCMT:splitpat.obj
 0004:00006f84       $pdata$_splitpath_helper   0000000140200f84     LIBCMT:splitpat.obj
 0004:00006f90       $pdata$_mbsnbcpy_s         0000000140200f90     LIBCMT:mbsnbcpy_s.obj
 0004:00006f9c       $pdata$sib0                0000000140200f9c     LIBCMT:filter_simd.obj
 0004:00006fa8       $pdata$sib8                0000000140200fa8     LIBCMT:filter_simd.obj
 0004:00006fb4       $pdata$sib32               0000000140200fb4     LIBCMT:filter_simd.obj
 0004:00006fc0       $pdata$DppxEmulationWrapper 0000000140200fc0     LIBCMT:filter_simd.obj
 0004:00006fcc       $pdata$LoadOperand         0000000140200fcc     LIBCMT:filter_simd.obj
 0004:00006fd8       $pdata$LoopDppxSimdValue   0000000140200fd8     LIBCMT:filter_simd.obj
 0004:00006fe4       $pdata$_fpieee_flt_simd    0000000140200fe4     LIBCMT:filter_simd.obj
 0004:00006ff0       $pdata$_mbsnbcpy_s_l       0000000140200ff0     LIBCMT:mbsnbcpy_s_l.obj
 0004:00006ffc       $pdata$RoundFloatToIntegral 0000000140200ffc     LIBCMT:xmmi_fp_emul.obj
 0004:00007008       $pdata$_XMMI_FP_Emulation  0000000140201008     LIBCMT:xmmi_fp_emul.obj
 0004:00007014       $pdata$RoundDoubleToIntegral 0000000140201014     LIBCMT:xmmi2_fp_emul.obj
 0004:00007020       $pdata$_XMMI2_FP_Emulation 0000000140201020     LIBCMT:xmmi2_fp_emul.obj
 0004:0000702c       $pdata$__GSHandlerCheck_SEH 000000014020102c     LIBCMT:gshandlerseh.obj
 0004:00007038       $pdata$__tmainCRTStartup$filt$0 0000000140201038     LIBCMT:crt0.obj
 0004:00007044       $pdata$ctrlevent_capture$fin$0 0000000140201044     LIBCMT:winsig.obj
 0004:00007050       $pdata$raise$fin$0         0000000140201050     LIBCMT:winsig.obj
 0004:0000705c       $pdata$signal$fin$0        000000014020105c     LIBCMT:winsig.obj
 0004:00007068       $pdata$_onexit$fin$0       0000000140201068     LIBCMT:onexit.obj
 0004:00007074       $pdata$_callthreadstart$filt$0 0000000140201074     LIBCMT:thread.obj
 0004:00007080       $pdata$doexit$fin$0        0000000140201080     LIBCMT:crt0dat.obj
 0004:0000708c       $pdata$__lock_fhandle$fin$0 000000014020108c     LIBCMT:osfinfo.obj
 0004:00007098       $pdata$_alloc_osfhnd$fin$0 0000000140201098     LIBCMT:osfinfo.obj
 0004:000070a4       $pdata$_alloc_osfhnd$fin$1 00000001402010a4     LIBCMT:osfinfo.obj
 0004:000070b0       $pdata$_open_osfhandle$fin$0 00000001402010b0     LIBCMT:osfinfo.obj
 0004:000070bc       $pdata$_write$fin$0        00000001402010bc     LIBCMT:write.obj
 0004:000070c8       $pdata$_dupenv_s$fin$0     00000001402010c8     LIBCMT:getenv.obj
 0004:000070d4       $pdata$getenv$fin$0        00000001402010d4     LIBCMT:getenv.obj
 0004:000070e0       $pdata$getenv_s$fin$0      00000001402010e0     LIBCMT:getenv.obj
 0004:000070ec       $pdata$_control87$filt$0   00000001402010ec     LIBCMT:ieee.obj
 0004:000070f8       $pdata$fputs$fin$0         00000001402010f8     LIBCMT:fputs.obj
 0004:00007104       $pdata$_freefls$fin$1      0000000140201104     LIBCMT:tidtable.obj
 0004:00007110       $pdata$_freefls$fin$0      0000000140201110     LIBCMT:tidtable.obj
 0004:0000711c       $pdata$_initptd$fin$1      000000014020111c     LIBCMT:tidtable.obj
 0004:00007128       $pdata$_initptd$fin$0      0000000140201128     LIBCMT:tidtable.obj
 0004:00007134       $pdata$_ioinit$fin$0       0000000140201134     LIBCMT:ioinit.obj
 0004:00007140       $pdata$__updatetlocinfo$fin$0 0000000140201140     LIBCMT:localref.obj
 0004:0000714c       $pdata$__updatetmbcinfo$fin$0 000000014020114c     LIBCMT:mbctype.obj
 0004:00007158       $pdata$_setmbcp$fin$0      0000000140201158     LIBCMT:mbctype.obj
 0004:00007164       $pdata$_free_locale$fin$1  0000000140201164     LIBCMT:wsetloca.obj
 0004:00007170       $pdata$_free_locale$fin$0  0000000140201170     LIBCMT:wsetloca.obj
 0004:0000717c       $pdata$_get_current_locale$fin$1 000000014020117c     LIBCMT:wsetloca.obj
 0004:00007188       $pdata$_get_current_locale$fin$0 0000000140201188     LIBCMT:wsetloca.obj
 0004:00007194       $pdata$_locterm$fin$0      0000000140201194     LIBCMT:wsetloca.obj
 0004:000071a0       $pdata$_wsetlocale$fin$1   00000001402011a0     LIBCMT:wsetloca.obj
 0004:000071ac       $pdata$_wsetlocale$fin$0   00000001402011ac     LIBCMT:wsetloca.obj
 0004:000071b8       $pdata$_wsetlocale$fin$2   00000001402011b8     LIBCMT:wsetloca.obj
 0004:000071c4       $pdata$_mtinitlocknum$fin$0 00000001402011c4     LIBCMT:mlock.obj
 0004:000071d0       $pdata$_IsNonwritableInCurrentImage$filt$0 00000001402011d0     LIBCMT:pesect.obj
 0004:000071dc       $pdata$_lseeki64$fin$0     00000001402011dc     LIBCMT:lseeki64.obj
 0004:000071e8       $pdata$_putwch$fin$0       00000001402011e8     LIBCMT:putwch.obj
 0004:000071f4       $pdata$fwrite$fin$0        00000001402011f4     LIBCMT:fwrite.obj
 0004:00007200       $pdata$fflush$fin$0        0000000140201200     LIBCMT:fflush.obj
 0004:0000720c       $pdata$flsall$fin$0        000000014020120c     LIBCMT:fflush.obj
 0004:00007218       $pdata$flsall$fin$1        0000000140201218     LIBCMT:fflush.obj
 0004:00007224       $pdata$_fcloseall$fin$0    0000000140201224     LIBCMT:closeall.obj
 0004:00007230       $pdata$_commit$fin$0       0000000140201230     LIBCMT:commit.obj
 0004:0000723c       $pdata$fclose$fin$0        000000014020123c     LIBCMT:fclose.obj
 0004:00007248       $pdata$_close$fin$0        0000000140201248     LIBCMT:close.obj
 0007:00000000       AliPxDx                    0000000140208000     libirc:fast_memset.obj
 0007:00000040       setPxQx                    0000000140208040     libirc:fast_memset.obj
 0007:00000480       AliPxQx                    0000000140208480     libirc:fast_memset.obj
 0007:00000510       SSExDx                     0000000140208510     libirc:fast_memset.obj
 0007:00000b10       AliPxQx                    0000000140208b10     libirc:fast_memcpy.obj
 0007:00000b50       fwdPxQx                    0000000140208b50     libirc:fast_memcpy.obj
 0007:00001110       SSE_src                    0000000140209110     libirc:fast_memcpy.obj
 0007:00001190       Fix16EndTable              0000000140209190     libirc:fast_memcpy.obj
